
ex3_ucosii_tasks.elf:     file format elf32-littlenios2
ex3_ucosii_tasks.elf
architecture: nios2:r1, flags 0x00000112:
EXEC_P, HAS_SYMS, D_PAGED
start address 0x0000023c

Program Header:
    LOAD off    0x00001000 vaddr 0x00000000 paddr 0x00000000 align 2**12
         filesz 0x00000020 memsz 0x00000020 flags r-x
    LOAD off    0x00001020 vaddr 0x00000020 paddr 0x00000020 align 2**12
         filesz 0x0000e2c8 memsz 0x0000e2c8 flags r-x
    LOAD off    0x0000f2e8 vaddr 0x0000e2e8 paddr 0x0000fcf0 align 2**12
         filesz 0x00001a08 memsz 0x00001a08 flags rw-
    LOAD off    0x000116f8 vaddr 0x000116f8 paddr 0x000116f8 align 2**12
         filesz 0x00000000 memsz 0x0000942c flags rw-

Sections:
Idx Name          Size      VMA       LMA       File off  Algn
  0 .entry        00000020  00000000  00000000  00001000  2**5
                  CONTENTS, ALLOC, LOAD, READONLY, CODE
  1 .exceptions   0000021c  00000020  00000020  00001020  2**2
                  CONTENTS, ALLOC, LOAD, READONLY, CODE
  2 .text         0000dd14  0000023c  0000023c  0000123c  2**2
                  CONTENTS, ALLOC, LOAD, READONLY, CODE
  3 .rodata       00000398  0000df50  0000df50  0000ef50  2**2
                  CONTENTS, ALLOC, LOAD, READONLY, DATA
  4 .rwdata       00001a08  0000e2e8  0000fcf0  0000f2e8  2**2
                  CONTENTS, ALLOC, LOAD, DATA, SMALL_DATA
  5 .bss          0000942c  000116f8  000116f8  000116f8  2**2
                  ALLOC, SMALL_DATA
  6 .SDRAM        00000000  0001ab24  0001ab24  00010cf0  2**0
                  CONTENTS
  7 .VGA_Subsystem_Char_Buf_Subsystem_Onchip_SRAM 00000000  09000000  09000000  00010cf0  2**0
                  CONTENTS
  8 .comment      0000002d  00000000  00000000  00010cf0  2**0
                  CONTENTS, READONLY
  9 .debug_aranges 000008f0  00000000  00000000  00010d20  2**3
                  CONTENTS, READONLY, DEBUGGING, OCTETS
 10 .debug_info   0001523d  00000000  00000000  00011610  2**0
                  CONTENTS, READONLY, DEBUGGING, OCTETS
 11 .debug_abbrev 00005b4d  00000000  00000000  0002684d  2**0
                  CONTENTS, READONLY, DEBUGGING, OCTETS
 12 .debug_line   00009e48  00000000  00000000  0002c39a  2**0
                  CONTENTS, READONLY, DEBUGGING, OCTETS
 13 .debug_frame  000024cc  00000000  00000000  000361e4  2**2
                  CONTENTS, READONLY, DEBUGGING, OCTETS
 14 .debug_str    0000401e  00000000  00000000  000386b0  2**0
                  CONTENTS, READONLY, DEBUGGING, OCTETS
 15 .debug_loc    00004684  00000000  00000000  0003c6ce  2**0
                  CONTENTS, READONLY, DEBUGGING, OCTETS
 16 .debug_alt_sim_info 00000020  00000000  00000000  00040d54  2**2
                  CONTENTS, READONLY, DEBUGGING, OCTETS
 17 .debug_ranges 000009b8  00000000  00000000  00040d78  2**3
                  CONTENTS, READONLY, DEBUGGING, OCTETS
 18 .thread_model 00000006  00000000  00000000  00045cdd  2**0
                  CONTENTS, READONLY
 19 .cpu          00000005  00000000  00000000  00045ce3  2**0
                  CONTENTS, READONLY
 20 .qsys         00000001  00000000  00000000  00045ce8  2**0
                  CONTENTS, READONLY
 21 .simulation_enabled 00000001  00000000  00000000  00045ce9  2**0
                  CONTENTS, READONLY
 22 .sysid_hash   00000004  00000000  00000000  00045cea  2**0
                  CONTENTS, READONLY
 23 .sysid_base   00000004  00000000  00000000  00045cee  2**0
                  CONTENTS, READONLY
 24 .sysid_time   00000004  00000000  00000000  00045cf2  2**0
                  CONTENTS, READONLY
 25 .stderr_dev   00000009  00000000  00000000  00045cf6  2**0
                  CONTENTS, READONLY
 26 .stdin_dev    00000009  00000000  00000000  00045cff  2**0
                  CONTENTS, READONLY
 27 .stdout_dev   00000009  00000000  00000000  00045d08  2**0
                  CONTENTS, READONLY
 28 .sopc_system_name 0000000f  00000000  00000000  00045d11  2**0
                  CONTENTS, READONLY
 29 .quartus_project_dir 0000005a  00000000  00000000  00045d20  2**0
                  CONTENTS, READONLY
 30 .sopcinfo     001d2080  00000000  00000000  00045d7a  2**0
                  CONTENTS, READONLY
SYMBOL TABLE:
00000000 l    d  .entry	00000000 .entry
00000020 l    d  .exceptions	00000000 .exceptions
0000023c l    d  .text	00000000 .text
0000df50 l    d  .rodata	00000000 .rodata
0000e2e8 l    d  .rwdata	00000000 .rwdata
000116f8 l    d  .bss	00000000 .bss
0001ab24 l    d  .SDRAM	00000000 .SDRAM
09000000 l    d  .VGA_Subsystem_Char_Buf_Subsystem_Onchip_SRAM	00000000 .VGA_Subsystem_Char_Buf_Subsystem_Onchip_SRAM
00000000 l    d  .comment	00000000 .comment
00000000 l    d  .debug_aranges	00000000 .debug_aranges
00000000 l    d  .debug_info	00000000 .debug_info
00000000 l    d  .debug_abbrev	00000000 .debug_abbrev
00000000 l    d  .debug_line	00000000 .debug_line
00000000 l    d  .debug_frame	00000000 .debug_frame
00000000 l    d  .debug_str	00000000 .debug_str
00000000 l    d  .debug_loc	00000000 .debug_loc
00000000 l    d  .debug_alt_sim_info	00000000 .debug_alt_sim_info
00000000 l    d  .debug_ranges	00000000 .debug_ranges
00000000 l    df *ABS*	00000000 /home/xix277/engr-ece/Winter_Sem_2022/CME332/cme332_ex3_usosii_tasks/ex3_ucosii_tasks_bsp//obj/HAL/src/crt0.o
00000274 l       .text	00000000 alt_after_alt_main
00000000 l    df *ABS*	00000000 alt_irq_handler.c
00000000 l    df *ABS*	00000000 alt_instruction_exception_entry.c
00000000 l    df *ABS*	00000000 ex3_ucosii_tasks.c
00000000 l    df *ABS*	00000000 floatsisf.c
00000000 l    df *ABS*	00000000 adddf3.c
00000000 l    df *ABS*	00000000 eqdf2.c
00000000 l    df *ABS*	00000000 ledf2.c
00000000 l    df *ABS*	00000000 muldf3.c
00000000 l    df *ABS*	00000000 fixdfsi.c
00000000 l    df *ABS*	00000000 extendsfdf2.c
00000000 l    df *ABS*	00000000 libgcc2.c
00000000 l    df *ABS*	00000000 libgcc2.c
00000000 l    df *ABS*	00000000 alt_load.c
0000203c l     F .text	00000068 alt_load_section
00000000 l    df *ABS*	00000000 alt_main.c
00000000 l    df *ABS*	00000000 alt_env_lock.c
0000fc48 l     O .rwdata	00000004 lockid
00011794 l     O .bss	00000004 locks
00000000 l    df *ABS*	00000000 alt_malloc_lock.c
0000fc4c l     O .rwdata	00000004 lockid
0001179c l     O .bss	00000004 locks
00000000 l    df *ABS*	00000000 os_core.c
00003b18 l     F .text	00000048 OS_InitMisc
00003b60 l     F .text	0000006c OS_InitRdyList
00003cd4 l     F .text	000000e4 OS_InitTCBList
00003a38 l     F .text	000000e0 OS_InitEventList
00003bcc l     F .text	00000084 OS_InitTaskIdle
00003c50 l     F .text	00000084 OS_InitTaskStat
00003f48 l     F .text	0000006c OS_SchedNew
00000000 l    df *ABS*	00000000 os_dbg.c
00000000 l    df *ABS*	00000000 os_flag.c
00005d00 l     F .text	000000f4 OS_FlagTaskRdy
00005abc l     F .text	00000164 OS_FlagBlock
00000000 l    df *ABS*	00000000 os_mem.c
00000000 l    df *ABS*	00000000 os_q.c
00000000 l    df *ABS*	00000000 os_sem.c
00000000 l    df *ABS*	00000000 os_task.c
00000000 l    df *ABS*	00000000 os_time.c
00000000 l    df *ABS*	00000000 alt_sys_init.c
00009e54 l     F .text	00000034 alt_dev_reg
0000e2e8 l     O .rwdata	0000106c JTAG_UART
0000f354 l     O .rwdata	00000030 AV_Config
0000f384 l     O .rwdata	00000030 Audio_Subsystem_Audio
0000f3b4 l     O .rwdata	0000002c Char_LCD_16x2
0000f3e0 l     O .rwdata	0000002c IrDA
0000f40c l     O .rwdata	00000038 PS2_Port
0000f444 l     O .rwdata	00000038 PS2_Port_Dual
0000f47c l     O .rwdata	0000002c Serial_Port
0000f4a8 l     O .rwdata	00000034 USB
0000f4dc l     O .rwdata	0000005c VGA_Subsystem_Char_Buf_Subsystem_Char_Buf_DMA
0000f538 l     O .rwdata	0000005c VGA_Subsystem_VGA_Pixel_DMA
0000f594 l     O .rwdata	0000005c Video_In_Subsystem_Video_In_DMA
0000f5f0 l     O .rwdata	00000044 VGA_Subsystem_VGA_Pixel_RGB_Resampler
0000f634 l     O .rwdata	0000002c SD_Card
00000000 l    df *ABS*	00000000 altera_avalon_jtag_uart_fd.c
00000000 l    df *ABS*	00000000 altera_avalon_jtag_uart_init.c
0000a940 l     F .text	000002b0 altera_avalon_jtag_uart_irq
0000abf0 l     F .text	0000010c altera_avalon_jtag_uart_timeout
00000000 l    df *ABS*	00000000 altera_avalon_jtag_uart_ioctl.c
00000000 l    df *ABS*	00000000 altera_avalon_jtag_uart_read.c
00000000 l    df *ABS*	00000000 altera_avalon_jtag_uart_write.c
00000000 l    df *ABS*	00000000 altera_avalon_timer_sc.c
0000b3f0 l     F .text	00000080 alt_avalon_timer_sc_irq
00000000 l    df *ABS*	00000000 altera_up_avalon_character_lcd.c
00000000 l    df *ABS*	00000000 altera_up_avalon_irda.c
00000000 l    df *ABS*	00000000 altera_up_avalon_ps2.c
00000000 l    df *ABS*	00000000 altera_up_avalon_rs232.c
00000000 l    df *ABS*	00000000 alt_alarm_start.c
00000000 l    df *ABS*	00000000 alt_close.c
0000c8ec l     F .text	0000003c alt_get_errno
00000000 l    df *ABS*	00000000 alt_dcache_flush_all.c
00000000 l    df *ABS*	00000000 alt_dev.c
0000ca18 l     F .text	0000002c alt_dev_null_write
00000000 l    df *ABS*	00000000 alt_dev_llist_insert.c
0000ca44 l     F .text	0000003c alt_get_errno
00000000 l    df *ABS*	00000000 alt_do_ctors.c
00000000 l    df *ABS*	00000000 alt_do_dtors.c
00000000 l    df *ABS*	00000000 alt_errno.c
00000000 l    df *ABS*	00000000 alt_find_dev.c
00000000 l    df *ABS*	00000000 alt_icache_flush_all.c
00000000 l    df *ABS*	00000000 alt_io_redirect.c
0000ccb4 l     F .text	000000b0 alt_open_fd
00000000 l    df *ABS*	00000000 alt_irq_register.c
00000000 l    df *ABS*	00000000 alt_irq_vars.c
00000000 l    df *ABS*	00000000 alt_open.c
0000cf60 l     F .text	0000003c alt_get_errno
0000cf9c l     F .text	000000b8 alt_file_locked
00000000 l    df *ABS*	00000000 alt_release_fd.c
00000000 l    df *ABS*	00000000 alt_tick.c
00000000 l    df *ABS*	00000000 altera_nios2_gen2_irq.c
00000000 l    df *ABS*	00000000 os_cpu_a.o
00000040 l       *ABS*	00000000 OSCtxSw_SWITCH_PC
00000000 l    df *ABS*	00000000 os_cpu_c.c
00000014 l       *ABS*	00000000 OSTCBNext_OFFSET
00000032 l       *ABS*	00000000 OSTCBPrio_OFFSET
00000000 l       *ABS*	00000000 OSTCBStkPtr_OFFSET
00000000 l    df *ABS*	00000000 alt_find_file.c
00000000 l    df *ABS*	00000000 alt_get_fd.c
00000000 l    df *ABS*	00000000 alt_icache_flush.c
00000000 l    df *ABS*	00000000 atexit.c
00000000 l    df *ABS*	00000000 exit.c
00000000 l    df *ABS*	00000000 impure.c
0000f808 l     O .rwdata	00000424 impure_data
00000000 l    df *ABS*	00000000 int_errno.c
00000000 l    df *ABS*	00000000 memcmp.c
00000000 l    df *ABS*	00000000 memcpy.c
00000000 l    df *ABS*	00000000 memset.c
00000000 l    df *ABS*	00000000 strlen.c
00000000 l    df *ABS*	00000000 __atexit.c
00000000 l    df *ABS*	00000000 __call_atexit.c
00000000 l    df *ABS*	00000000 alt_exit.c
000117f8 g     O .bss	00000004 alt_instruction_exception_handler
0000fc9a g     O .rwdata	00000002 OSTaskNameSize
00002128 g     F .text	000000c0 alt_main
0001aa24 g     O .bss	00000100 alt_irq
0000bfc0 g     F .text	00000060 alt_up_ps2_disable_read_interrupt
00006544 g     F .text	000000cc OS_MemInit
00011704 g     O .bss	00000008 old_time
0000fcf0 g       *ABS*	00000000 __flash_rwdata_start
00009df0 g     F .text	00000064 OSTimeSet
0000b560 g     F .text	00000040 alt_up_character_lcd_send_cmd
00001690 g     F .text	00000080 .hidden __eqdf2
0001171c g     O .bss	00000004 engine
00002770 g     F .text	00000638 OSEventPendMulti
0000d5ec g     F .text	00000024 OSTaskCreateHook
00011800 g     O .bss	00002000 task1_stk
0000fc72 g     O .rwdata	00000002 OSMboxEn
00002e00 g     F .text	0000004c OSIntEnter
0000bdd8 g     F .text	00000034 read_CE_bit
0000fc82 g     O .rwdata	00000002 OSQEn
00002430 g     F .text	000000d4 __malloc_unlock
0000d654 g     F .text	00000020 OSTaskStatHook
0000c160 g     F .text	0000009c alt_up_ps2_read_data_byte_timeout
0000c658 g     F .text	00000090 alt_up_rs232_read_fd
000117ba g     O .bss	00000001 OSLockNesting
0000fcc0 g     O .rwdata	00000002 OSDataSize
000117c1 g     O .bss	00000001 OSRunning
0000d694 g     F .text	00000020 OSInitHookBegin
0000fcb8 g     O .rwdata	00000002 OSTmrSize
000117c4 g     O .bss	00000004 OSIdleCtr
0000d3ac g     F .text	00000024 altera_nios2_gen2_irq_init
0000d47c g       .text	00000000 OSStartTsk
0000b4ec g     F .text	00000074 get_DDRAM_addr
00004264 g     F .text	000002e0 OS_TCBInit
00000000 g     F .entry	0000001c __reset
0000fcbe g     O .rwdata	00000002 OSTmrWheelTblSize
00000020 g       *ABS*	00000000 __flash_exceptions_start
0000fc5e g     O .rwdata	00000002 OSEventSize
000117bc g     O .bss	00000001 OSPrioHighRdy
0000d610 g     F .text	00000024 OSTaskDelHook
000117fc g     O .bss	00000004 errno
0000d45c g       .text	00000000 OSStartHighRdy
0000886c g     F .text	000001dc OSTaskCreateExt
000055e4 g     F .text	00000064 OSFlagPendGetFlagsRdy
0000fc9e g     O .rwdata	00000002 OSTaskStatStkSize
000046d4 g     F .text	00000324 OSFlagAccept
00006b94 g     F .text	000000bc OSQFlush
00006610 g     F .text	00000144 OSQAccept
00011788 g     O .bss	00000004 alt_argv
00017c2c g       *ABS*	00000000 _gp
000086c8 g     F .text	000001a4 OSTaskCreate
00008204 g     F .text	000004c4 OSTaskChangePrio
00011798 g     O .bss	00000004 alt_heapsem
00004544 g     F .text	00000190 OSDebugInit
00008a48 g     F .text	00000344 OSTaskDel
0000f688 g     O .rwdata	00000180 alt_fd_list
00018340 g     O .bss	00000370 OSFlagTbl
0001172c g     O .bss	00000004 park
00003820 g     F .text	000000b0 OS_EventTaskRemove
0000cbf0 g     F .text	00000090 alt_find_dev
0000dae0 g     F .text	00000100 memcpy
0000fc88 g     O .rwdata	00000002 OSRdyTblSize
0000b710 g     F .text	00000050 alt_up_character_lcd_write_fd
0001174c g     O .bss	00000004 key_value
0000cd64 g     F .text	0000007c alt_io_redirect
00001710 g     F .text	000000e8 .hidden __ltdf2
0000df50 g       *ABS*	00000000 __DTOR_END__
0000bca8 g     F .text	00000090 alt_up_irda_write_fd
0000c5e4 g     F .text	00000074 alt_up_rs232_read_data
00011780 g     O .bss	00000004 Drive_Neutral_Sem
0000d988 g     F .text	00000098 alt_exception_cause_generated_bad_addr
00002504 g     F .text	00000124 OSEventNameGet
0000fc6c g     O .rwdata	00000002 OSFlagMax
0000fc2c g     O .rwdata	00000004 red_LED_ptr
00002e4c g     F .text	000000f4 OSIntExit
000003d0 g     F .text	0000008c digit_separator
0000fca6 g     O .rwdata	00000002 OSTCBSize
000117bb g     O .bss	00000001 OSPrioCur
0000baa4 g     F .text	00000040 alt_up_irda_get_used_space_in_read_FIFO
0000ae58 g     F .text	000002c8 altera_avalon_jtag_uart_read
0000fc44 g     O .rwdata	00000004 calculate
0000fc8c g     O .rwdata	00000002 OSStkWidth
0000fc80 g     O .rwdata	00000002 OSPtrSize
0000fc60 g     O .rwdata	00000002 OSEventTblSize
0000ba44 g     F .text	00000060 alt_up_irda_disable_read_interrupt
0000d3d0 g       .text	00000000 OSCtxSw
0000d8f8 g     F .text	00000090 alt_icache_flush
000117d4 g     O .bss	00000004 OSTCBList
000117e8 g     O .bss	00000004 alt_fd_list_lock
00019c14 g     O .bss	00000c30 OSMemTbl
000117d8 g     O .bss	00000001 OSTickStepState
0000fc34 g     O .rwdata	00000004 hex3_0_ptr
0000fc84 g     O .rwdata	00000002 OSQMax
000186b0 g     O .bss	00000800 OSTaskStatStk
00006168 g     F .text	000000f4 OSMemNameGet
0000fc64 g     O .rwdata	00000002 OSFlagEn
0000fcaa g     O .rwdata	00000002 OSTimeTickHookEn
0000705c g     F .text	00000174 OSQPost
00005df4 g     F .text	000000a4 OS_FlagUnlink
0000fcd4 g     O .rwdata	00000004 alt_max_fd
0000c560 g     F .text	00000044 alt_up_rs232_check_parity
00003e10 g     F .text	0000006c OS_MemCopy
00003e7c g     F .text	000000cc OS_Sched
00006070 g     F .text	000000f8 OSMemGet
00011740 g     O .bss	00000004 sw9
00009080 g     F .text	000001bc OSTaskNameSet
0000be0c g     F .text	00000030 read_num_bytes_available
000117a0 g     O .bss	00000004 OSCtxSwCtr
0000d674 g     F .text	00000020 OSTimeTickHook
0000cde0 g     F .text	00000180 alt_irq_register
0000fc6e g     O .rwdata	00000002 OSFlagNameSize
0000bd74 g     F .text	00000034 read_RI_bit
00001eec g     F .text	000000fc .hidden __extendsfdf2
000038d0 g     F .text	000000fc OS_EventTaskRemoveMulti
00000da0 g     F .text	000008f0 .hidden __adddf3
000036d8 g     F .text	00000148 OS_EventTaskWaitMulti
00011718 g     O .bss	00000004 throttle
0000fc86 g     O .rwdata	00000002 OSQSize
00007b4c g     F .text	00000214 OSSemPend
0000fce8 g     O .rwdata	00000004 _global_impure_ptr
00011778 g     O .bss	00000004 Throttle_Sem
0000fc70 g     O .rwdata	00000002 OSLowestPrio
0001ab24 g       *ABS*	00000000 __bss_end
0000d6f4 g     F .text	00000024 OSTCBInitHook
0000fcb6 g     O .rwdata	00000002 OSTmrCfgTicksPerSec
0000d2a4 g     F .text	00000108 alt_tick
0000fc58 g     O .rwdata	00000002 OSEventEn
0000fcb2 g     O .rwdata	00000002 OSTmrCfgNameSize
0000be70 g     F .text	0000002c read_data_byte
00005c20 g     F .text	000000e0 OS_FlagInit
0000d200 g     F .text	000000a4 alt_alarm_stop
0000fc40 g     O .rwdata	00000004 KEY_ptr
0000bda8 g     F .text	00000030 read_RE_bit
0000fc94 g     O .rwdata	00000002 OSTaskIdleStkSize
00011728 g     O .bss	00000004 drive_neutral
000117ec g     O .bss	00000004 alt_irq_active
0000776c g     F .text	000000b4 OSSemAccept
00006378 g     F .text	000000e0 OSMemPut
00005e98 g     F .text	000001d8 OSMemCreate
00011738 g     O .bss	00000004 eng_start_stop
000117b0 g     O .bss	00000004 OSIdleCtrMax
0000bae4 g     F .text	0000003c alt_up_irda_get_available_space_in_write_FIFO
000000fc g     F .exceptions	000000cc alt_irq_handler
0000f660 g     O .rwdata	00000028 alt_dev_null
0000fca8 g     O .rwdata	00000002 OSTicksPerSec
0000b9b0 g     F .text	00000038 alt_up_character_lcd_cursor_blink_on
0000d3d0 g       .text	00000000 OSIntCtxSw
0000c020 g     F .text	00000074 alt_up_ps2_write_data_byte
0000c9f8 g     F .text	00000020 alt_dcache_flush_all
00001e6c g     F .text	00000080 .hidden __fixdfsi
000117cc g     O .bss	00000004 OSTCBFreeList
0000fcf0 g       *ABS*	00000000 __ram_rwdata_end
00007d60 g     F .text	00000174 OSSemPendAbort
0000fccc g     O .rwdata	00000008 alt_dev_list
00011714 g     O .bss	00000004 speed_in_km
0000fcac g     O .rwdata	00000002 OSVersionNbr
0000e2e8 g       *ABS*	00000000 __ram_rodata_end
0000c6e8 g     F .text	00000094 alt_up_rs232_write_fd
00011764 g     O .bss	00000004 Brake_Pedal_Sem
00000000 g       *ABS*	00000000 __alt_mem_SDRAM
00001710 g     F .text	000000e8 .hidden __ledf2
0000fc54 g     O .rwdata	00000004 OSEndiannessTest
0000fc66 g     O .rwdata	00000002 OSFlagGrpSize
0001ab24 g       *ABS*	00000000 end
0000c354 g     F .text	00000098 alt_up_ps2_write_fd
0000bb20 g     F .text	00000044 alt_up_irda_check_parity
00011758 g     O .bss	00000004 key0
0000a7fc g     F .text	00000144 altera_avalon_jtag_uart_init
000040dc g     F .text	000000c4 OS_TaskStat
000001c8 g     F .exceptions	00000074 alt_instruction_exception_entry
0000df50 g       *ABS*	00000000 __CTOR_LIST__
04000000 g       *ABS*	00000000 __alt_stack_pointer
0000b470 g     F .text	0000007c alt_avalon_timer_sc_init
0001177c g     O .bss	00000004 Speed_Sem
00001fe8 g     F .text	00000054 .hidden __clzsi2
0000b120 g     F .text	000002d0 altera_avalon_jtag_uart_write
00003db8 g     F .text	00000058 OS_MemClr
0000b614 g     F .text	00000080 alt_up_character_lcd_write
0000d4a0 g     F .text	0000014c OSTaskStkInit
00003448 g     F .text	00000188 OS_EventTaskRdy
0000ddf8 g     F .text	00000120 __call_exitprocs
000117ac g     O .bss	00000001 OSCPUUsage
0000023c g     F .text	0000003c _start
000117f0 g     O .bss	00000004 _alt_tick_rate
00006c50 g     F .text	00000298 OSQPend
00009954 g     F .text	00000108 OSTimeDly
000117f4 g     O .bss	00000004 _alt_nticks
00009ec4 g     F .text	000007d4 alt_sys_init
0000b860 g     F .text	0000008c alt_up_character_lcd_shift_display
00000c7c g     F .text	00000124 .hidden __floatsisf
0000dd68 g     F .text	00000090 __register_exitproc
000117c2 g     O .bss	00000001 OSTaskCtr
0000c26c g     F .text	0000005c alt_up_ps2_clear_fifo
0000c524 g     F .text	0000003c alt_up_rs232_get_available_space_in_write_FIFO
00009a5c g     F .text	00000154 OSTimeDlyHMSM
0000b8ec g     F .text	0000008c alt_up_character_lcd_erase_pos
0000fc30 g     O .rwdata	00000004 switch_ptr
0000acfc g     F .text	00000068 altera_avalon_jtag_uart_close
0000e2e8 g       *ABS*	00000000 __ram_rwdata_start
0000df50 g       *ABS*	00000000 __ram_rodata_start
0000fc5a g     O .rwdata	00000002 OSEventMax
00007ed4 g     F .text	0000011c OSSemPost
0001173c g     O .bss	00000004 sw_value
00002fd0 g     F .text	000000e4 OSSchedUnlock
0000a698 g     F .text	00000060 altera_avalon_jtag_uart_read_fd
0000d820 g     F .text	000000d8 alt_get_fd
000117dc g     O .bss	00000004 OSMemFreeList
0000311c g     F .text	000000b8 OSStatInit
000059f4 g     F .text	000000c8 OSFlagQuery
0000fc90 g     O .rwdata	00000002 OSTaskCreateExtEn
00011770 g     O .bss	00000004 Park_Sem
0000da68 g     F .text	00000078 memcmp
00003428 g     F .text	00000020 OS_Dummy
0000a758 g     F .text	00000050 altera_avalon_jtag_uart_close_fd
00000514 g     F .text	00000394 IO_task
0001ab24 g       *ABS*	00000000 __alt_stack_base
0000a7a8 g     F .text	00000054 altera_avalon_jtag_uart_ioctl_fd
0000b9e8 g     F .text	0000005c alt_up_irda_enable_read_interrupt
0001a844 g     O .bss	000001e0 OSQTbl
0000045c g     F .text	000000b8 hex_display_cnvtr
00011720 g     O .bss	00000004 eng_timer
00011730 g     O .bss	00000004 brake_pedal
00000a68 g     F .text	00000214 vehicle_task
000117d0 g     O .bss	00000004 OSTCBHighRdy
000017f8 g     F .text	00000674 .hidden __muldf3
00011760 g     O .bss	00000004 Key_Fob_Sem
000117e0 g     O .bss	00000004 OSQFreeList
0000c484 g     F .text	00000060 alt_up_rs232_disable_read_interrupt
0000d718 g     F .text	00000108 alt_find_file
00011774 g     O .bss	00000004 Accel_Pedal_Sem
0000ca80 g     F .text	000000a8 alt_dev_llist_insert
00002308 g     F .text	00000128 __malloc_lock
00002628 g     F .text	00000148 OSEventNameSet
000117bd g     O .bss	00000001 OSRdyGrp
000116f8 g       *ABS*	00000000 __bss_start
00011724 g     O .bss	00000004 key_fob
00011768 g     O .bss	00000004 Eng_Start_Stop_Sem
0000dbe0 g     F .text	000000f0 memset
00000278 g     F .text	00000158 main
0001178c g     O .bss	00000004 alt_envp
0000a6f8 g     F .text	00000060 altera_avalon_jtag_uart_write_fd
0000e060 g     O .rodata	00000100 OSUnMapTbl
0000fc8a g     O .rwdata	00000002 OSSemEn
0000b7d4 g     F .text	0000008c alt_up_character_lcd_shift_cursor
00005648 g     F .text	000003ac OSFlagPost
000035d0 g     F .text	00000108 OS_EventTaskWait
00013800 g     O .bss	00002000 task2_stk
0000c1fc g     F .text	00000070 alt_up_ps2_read_data_byte
000041a0 g     F .text	000000c4 OS_TaskStatStkChk
00008d8c g     F .text	00000158 OSTaskDelReq
0000fcd8 g     O .rwdata	00000004 alt_errno
000030b4 g     F .text	00000068 OSStart
00015800 g     O .bss	00002000 task3_stk
000022a8 g     F .text	00000060 __env_unlock
0000923c g     F .text	000001e0 OSTaskResume
00006458 g     F .text	000000ec OSMemQuery
0000fc9c g     O .rwdata	00000002 OSTaskStatEn
0000bb64 g     F .text	00000040 alt_up_irda_write_data
0000fc76 g     O .rwdata	00000002 OSMemMax
000071d0 g     F .text	0000017c OSQPostFront
0000c3ec g     F .text	0000003c alt_up_ps2_open_dev
000117be g     O .bss	00000003 OSRdyTbl
0000fc50 g     O .rwdata	00000002 OSDebugEn
0000b5d8 g     F .text	0000003c alt_up_character_lcd_open_dev
0000bf64 g     F .text	0000005c alt_up_ps2_enable_read_interrupt
0000df50 g       *ABS*	00000000 __CTOR_END__
0000fc68 g     O .rwdata	00000002 OSFlagNodeSize
0001176c g     O .bss	00000004 Engine_Sem
0000fcb0 g     O .rwdata	00000002 OSTmrCfgMax
0000b5a0 g     F .text	00000038 alt_up_character_lcd_init
00006754 g     F .text	000001b0 OSQCreate
00008ee4 g     F .text	0000019c OSTaskNameGet
0000df50 g       *ABS*	00000000 __flash_rodata_start
0000734c g     F .text	00000218 OSQPostOpt
000031d4 g     F .text	00000234 OSTimeTick
0000fc98 g     O .rwdata	00000002 OSTaskMax
0000df50 g       *ABS*	00000000 __DTOR_LIST__
00007820 g     F .text	000000dc OSSemCreate
0000fcbc g     O .rwdata	00000002 OSTmrWheelSize
00011750 g     O .bss	00000004 key3
0000c77c g     F .text	0000003c alt_up_rs232_open_dev
00001690 g     F .text	00000080 .hidden __nedf2
0000fc92 g     O .rwdata	00000002 OSTaskDelEn
00007ff0 g     F .text	00000114 OSSemQuery
00006904 g     F .text	00000290 OSQDel
00006ee8 g     F .text	00000174 OSQPendAbort
00009e88 g     F .text	0000003c alt_irq_init
0000d1a8 g     F .text	00000058 alt_release_fd
0000be3c g     F .text	00000034 read_data_valid
0000b978 g     F .text	00000038 alt_up_character_lcd_cursor_off
0000df50 g     O .rodata	00000100 .hidden __clz_tab
0000c0fc g     F .text	00000064 alt_up_ps2_write_data_byte_with_ack
0000da20 g     F .text	00000014 atexit
000116f8 g     O .bss	00000004 speed_timer
00002f40 g     F .text	00000090 OSSchedLock
000049f8 g     F .text	00000110 OSFlagCreate
0000fcec g     O .rwdata	00000004 _impure_ptr
00011784 g     O .bss	00000004 alt_argc
0000cb8c g     F .text	00000064 _do_dtors
0000fc62 g     O .rwdata	00000002 OSEventMultiEn
09000000 g       *ABS*	00000000 __alt_mem_VGA_Subsystem_Char_Buf_Subsystem_Onchip_SRAM
00004b08 g     F .text	00000258 OSFlagDel
000117a4 g     O .bss	00000004 OSEventFreeList
00000020 g       .exceptions	00000000 alt_irq_entry
000116fc g     O .bss	00000008 speed
00004fe4 g     F .text	00000600 OSFlagPend
0000fcae g     O .rwdata	00000002 OSTmrEn
0000fcc4 g     O .rwdata	00000008 alt_fs_list
00011734 g     O .bss	00000004 accel_pedal
00003fb4 g     F .text	00000074 OS_StrCopy
0000c428 g     F .text	0000005c alt_up_rs232_enable_read_interrupt
0000c5a4 g     F .text	00000040 alt_up_rs232_write_data
0000fc78 g     O .rwdata	00000002 OSMemNameSize
0000d6b4 g     F .text	00000020 OSInitHookEnd
00000020 g       *ABS*	00000000 __ram_exceptions_start
0000fca4 g     O .rwdata	00000002 OSTCBPrioTblMax
000008a8 g     F .text	000001c0 engine_task
0000fca0 g     O .rwdata	00000002 OSTaskStatStkChkEn
0000fc74 g     O .rwdata	00000002 OSMemEn
0000fc7e g     O .rwdata	00000002 OSMutexEn
0000fcf0 g       *ABS*	00000000 _edata
0000fc3c g     O .rwdata	00000004 interval_timer_ptr
0001ab24 g       *ABS*	00000000 _end
000117b9 g     O .bss	00000001 OSIntNesting
0000023c g       *ABS*	00000000 __ram_exceptions_end
0000ad64 g     F .text	000000f4 altera_avalon_jtag_uart_ioctl
00011754 g     O .bss	00000004 key2
00009bb0 g     F .text	000001e0 OSTimeDlyResume
00004e90 g     F .text	00000154 OSFlagNameSet
0000941c g     F .text	000001b8 OSTaskStkChk
0000fc7a g     O .rwdata	00000002 OSMemSize
000117c8 g     O .bss	00000004 OSTCBCur
0000da34 g     F .text	00000034 exit
0000bba4 g     F .text	00000074 alt_up_irda_read_data
0000fc7c g     O .rwdata	00000002 OSMemTblSize
0000be9c g     F .text	000000c8 alt_up_ps2_init
04000000 g       *ABS*	00000000 __alt_data_end
00000020 g     F .exceptions	00000000 alt_exception
00002da8 g     F .text	00000058 OSInit
000097bc g     F .text	00000128 OSTaskQuery
0000b694 g     F .text	0000007c alt_up_character_lcd_string
000076c4 g     F .text	000000a8 OS_QInit
00004028 g     F .text	00000054 OS_StrLen
0000bd38 g     F .text	0000003c alt_up_irda_open_dev
0000625c g     F .text	0000011c OSMemNameSet
0000fc96 g     O .rwdata	00000002 OSTaskProfileEn
000117e4 g     O .bss	00000004 OSTime
00018eb0 g     O .bss	00000800 OSTaskIdleStk
0000df18 g     F .text	00000038 _exit
0000c7b8 g     F .text	00000134 alt_alarm_start
00004d60 g     F .text	00000130 OSFlagNameGet
00011744 g     O .bss	00000004 sw1
00009d90 g     F .text	00000060 OSTimeGet
0000c094 g     F .text	00000068 alt_up_ps2_wait_for_ack
0000dcd0 g     F .text	00000098 strlen
0000d634 g     F .text	00000020 OSTaskSwHook
0000d054 g     F .text	00000154 open
00017800 g     O .bss	00000b40 OSEventTbl
00019704 g     O .bss	00000510 OSTCBTbl
00008104 g     F .text	00000100 OSSemSet
0000cc80 g     F .text	00000034 alt_icache_flush_all
0000fc38 g     O .rwdata	00000004 green_LED_ptr
0000b760 g     F .text	00000074 alt_up_character_lcd_set_cursor_pos
0000fcdc g     O .rwdata	00000004 alt_priority_mask
000078fc g     F .text	00000250 OSSemDel
000117a8 g     O .bss	00000004 OSFlagFreeList
0000fc5c g     O .rwdata	00000002 OSEventNameSize
000117b8 g     O .bss	00000001 OSStatRdy
000196b0 g     O .bss	00000054 OSTCBPrioTbl
000021e8 g     F .text	000000c0 __env_lock
0000c2c8 g     F .text	0000008c alt_up_ps2_read_fd
0000fca2 g     O .rwdata	00000002 OSTaskSwHookEn
0000bc18 g     F .text	00000090 alt_up_irda_read_fd
0001175c g     O .bss	00000004 hex_array
0001170c g     O .bss	00000008 acceleration
0000fce0 g     O .rwdata	00000008 alt_alarm_list
0000fc6a g     O .rwdata	00000002 OSFlagWidth
0000cb28 g     F .text	00000064 _do_ctors
0000c4e4 g     F .text	00000040 alt_up_rs232_get_used_space_in_read_FIFO
0000c928 g     F .text	000000d0 close
00011790 g     O .bss	00000004 alt_envsem
000117b4 g     O .bss	00000004 OSIdleCtrRun
00003408 g     F .text	00000020 OSVersion
0000fcb4 g     O .rwdata	00000002 OSTmrCfgWheelSize
000020a4 g     F .text	00000084 alt_load
000098e4 g     F .text	00000070 OS_TaskStkClr
0000fc8e g     O .rwdata	00000002 OSTaskCreateEn
000039cc g     F .text	0000006c OS_EventWaitListInit
0000d6d4 g     F .text	00000020 OSTaskIdleHook
000095d4 g     F .text	000001e8 OSTaskSuspend
00011748 g     O .bss	00000004 sw0
0000407c g     F .text	00000060 OS_TaskIdle
0000fcba g     O .rwdata	00000002 OSTmrTblSize
00007564 g     F .text	00000160 OSQQuery



Disassembly of section .entry:

00000000 <__reset>:
#if NIOS2_ICACHE_SIZE > 0 && defined(ALT_ALLOW_CODE_AT_RESET) && (!defined(ALT_SIM_OPTIMIZE) || defined(NIOS2_ECC_PRESENT))
    /* Assume the instruction cache size is always a power of two. */
#if NIOS2_ICACHE_SIZE > 0x8000
    movhi r2, %hi(NIOS2_ICACHE_SIZE)
#else
    movui r2, NIOS2_ICACHE_SIZE
   0:	00840014 	movui	r2,4096
#endif

0:
    initi r2
   4:	1001483a 	initi	r2
    addi r2, r2, -NIOS2_ICACHE_LINE_SIZE
   8:	10bff804 	addi	r2,r2,-32
    bgt r2, zero, 0b
   c:	00bffd16 	blt	zero,r2,4 <__reset+0x4>
 * Jump to the _start entry point in the .text section if reset code
 * is allowed or if optimizing for RTL simulation.
 */
#if defined(ALT_ALLOW_CODE_AT_RESET) || defined(ALT_SIM_OPTIMIZE)
    /* Jump to the _start entry point in the .text section. */
    movhi r1, %hi(_start)
  10:	00400034 	movhi	at,0
    ori r1, r1, %lo(_start)
  14:	08408f14 	ori	at,at,572
    jmp r1
  18:	0800683a 	jmp	at
  1c:	00000000 	call	0 <__reset>

Disassembly of section .exceptions:

00000020 <alt_exception>:

#else /* ALT_EXCEPTION_STACK disabled */
        /* 
         * Reserve space on normal stack for registers about to be pushed.
         */
        addi  sp, sp, -76
  20:	deffed04 	addi	sp,sp,-76
         * documentation for details).
         *
         * Leave a gap in the stack frame at 4(sp) for the muldiv handler to
         * store zero into.
         */
        stw   ra,  0(sp)
  24:	dfc00015 	stw	ra,0(sp)
        stw   r1,   8(sp)
  28:	d8400215 	stw	at,8(sp)
        stw   r2,  12(sp)
  2c:	d8800315 	stw	r2,12(sp)
        stw   r3,  16(sp)
  30:	d8c00415 	stw	r3,16(sp)
        stw   r4,  20(sp)
  34:	d9000515 	stw	r4,20(sp)
        stw   r5,  24(sp)
  38:	d9400615 	stw	r5,24(sp)
        stw   r6,  28(sp)
  3c:	d9800715 	stw	r6,28(sp)
        stw   r7,  32(sp)
  40:	d9c00815 	stw	r7,32(sp)
        rdctl r5, estatus   /* Read early to avoid usage stall */
  44:	000b307a 	rdctl	r5,estatus
        stw   r8,  36(sp)
  48:	da000915 	stw	r8,36(sp)
        stw   r9,  40(sp)
  4c:	da400a15 	stw	r9,40(sp)
        stw   r10, 44(sp)
  50:	da800b15 	stw	r10,44(sp)
        stw   r11, 48(sp)
  54:	dac00c15 	stw	r11,48(sp)
        stw   r12, 52(sp)
  58:	db000d15 	stw	r12,52(sp)
        stw   r13, 56(sp)
  5c:	db400e15 	stw	r13,56(sp)
        stw   r14, 60(sp)
  60:	db800f15 	stw	r14,60(sp)
        stw   r15, 64(sp)
  64:	dbc01015 	stw	r15,64(sp)
        /*
         * ea-4 contains the address of the instruction being executed
         * when the exception occured. For interrupt exceptions, we will
         * will be re-issue the isntruction. Store it in 72(sp)
         */
        stw   r5,  68(sp)  /* estatus */
  68:	d9401115 	stw	r5,68(sp)
        addi  r15, ea, -4  /* instruction that caused exception */
  6c:	ebffff04 	addi	r15,ea,-4
        stw   r15,  72(sp)
  70:	dbc01215 	stw	r15,72(sp)
#else
        /*
         * Test to see if the exception was a software exception or caused 
         * by an external interrupt, and vector accordingly.
         */
        rdctl r4, ipending
  74:	0009313a 	rdctl	r4,ipending
        andi  r2, r5, 1
  78:	2880004c 	andi	r2,r5,1
        beq   r2, zero, .Lnot_irq
  7c:	10000326 	beq	r2,zero,8c <OSCtxSw_SWITCH_PC+0x4c>
        beq   r4, zero, .Lnot_irq
  80:	20000226 	beq	r4,zero,8c <OSCtxSw_SWITCH_PC+0x4c>
        /*
         * Now that all necessary registers have been preserved, call 
         * alt_irq_handler() to process the interrupts.
         */

        call alt_irq_handler
  84:	00000fc0 	call	fc <alt_irq_handler>

        .section .exceptions.irqreturn, "xa"

        br    .Lexception_exit
  88:	00000706 	br	a8 <OSCtxSw_SWITCH_PC+0x68>
         * upon completion, so we write ea (address of instruction *after*
         * the one where the exception occured) into 72(sp). The actual
         * instruction that caused the exception is written in r2, which these
         * handlers will utilize.
         */
        stw ea, 72(sp) /* EA is PC+4 so will skip over instruction causing exception */
  8c:	df401215 	stw	ea,72(sp)
.Lunknown_16bit:
        addi.n r4, r4, 2 /* Need PC+2 to skip over instruction causing exception */
        stw r4, 72(sp)

#else /* CDX is not Enabled and all instructions are 32bits */
        ldw r2, -4(ea) /* Instruction value that caused exception */
  90:	e8bfff17 	ldw	r2,-4(ea)
         * debugger is present) or go into an infinite loop since the
         * handling behavior is undefined; in that case we will not return here.
         */

        /* Load exception-causing address as first argument (r4) */
        addi   r4, ea, -4
  94:	e93fff04 	addi	r4,ea,-4

        /* Call the instruction-exception entry */
        call   alt_instruction_exception_entry
  98:	00001c80 	call	1c8 <alt_instruction_exception_entry>
         * instruction
         *
         * Return code was 0: Skip. The instruction after the exception is
         * already stored in 72(sp).
         */
        bne   r2, r0, .Lexception_exit
  9c:	1000021e 	bne	r2,zero,a8 <OSCtxSw_SWITCH_PC+0x68>

        /*
         * Otherwise, modify 72(sp) to re-issue the instruction that caused the
         * exception.
         */
        addi  r15, ea, -4  /* instruction that caused exception */
  a0:	ebffff04 	addi	r15,ea,-4
        stw   r15,  72(sp)
  a4:	dbc01215 	stw	r15,72(sp)
        /* 
         * Restore the saved registers, so that all general purpose registers 
         * have been restored to their state at the time the interrupt occured.
         */

        ldw   r5,  68(sp)
  a8:	d9401117 	ldw	r5,68(sp)
        ldw   ea,  72(sp)  /* This becomes the PC once eret is executed */
  ac:	df401217 	ldw	ea,72(sp)
        ldw   ra,   0(sp)
  b0:	dfc00017 	ldw	ra,0(sp)

        wrctl estatus, r5
  b4:	2801707a 	wrctl	estatus,r5

        ldw   r1,   8(sp)
  b8:	d8400217 	ldw	at,8(sp)
        ldw   r2,  12(sp)
  bc:	d8800317 	ldw	r2,12(sp)
        ldw   r3,  16(sp)
  c0:	d8c00417 	ldw	r3,16(sp)
        ldw   r4,  20(sp)
  c4:	d9000517 	ldw	r4,20(sp)
        ldw   r5,  24(sp)
  c8:	d9400617 	ldw	r5,24(sp)
        ldw   r6,  28(sp)
  cc:	d9800717 	ldw	r6,28(sp)
        ldw   r7,  32(sp)
  d0:	d9c00817 	ldw	r7,32(sp)

#if defined(ALT_EXCEPTION_STACK) && defined(ALT_STACK_CHECK)
        ldw   et, %gprel(alt_exception_old_stack_limit)(gp)
#endif

        ldw   r8,  36(sp)
  d4:	da000917 	ldw	r8,36(sp)
        ldw   r9,  40(sp)
  d8:	da400a17 	ldw	r9,40(sp)
        ldw   r10, 44(sp)
  dc:	da800b17 	ldw	r10,44(sp)
        ldw   r11, 48(sp)
  e0:	dac00c17 	ldw	r11,48(sp)
        ldw   r12, 52(sp)
  e4:	db000d17 	ldw	r12,52(sp)
        ldw   r13, 56(sp)
  e8:	db400e17 	ldw	r13,56(sp)
        ldw   r14, 60(sp)
  ec:	db800f17 	ldw	r14,60(sp)
        ldw   r15, 64(sp)
  f0:	dbc01017 	ldw	r15,64(sp)
        stw   et, %gprel(alt_stack_limit_value)(gp)
        stw   zero, %gprel(alt_exception_old_stack_limit)(gp)
#endif /* ALT_STACK_CHECK */
        ldw   sp,  76(sp)
#else /* ALT_EXCEPTION_STACK disabled */
        addi  sp, sp, 76
  f4:	dec01304 	addi	sp,sp,76

        /*
         * Return to the interrupted instruction.
         */

        eret
  f8:	ef80083a 	eret

000000fc <alt_irq_handler>:
 * instruction is present if the macro ALT_CI_INTERRUPT_VECTOR defined.
 */

void alt_irq_handler (void) __attribute__ ((section (".exceptions")));
void alt_irq_handler (void)
{
  fc:	defff904 	addi	sp,sp,-28
 100:	dfc00615 	stw	ra,24(sp)
 104:	df000515 	stw	fp,20(sp)
 108:	df000504 	addi	fp,sp,20
  
  /*
   * Notify the operating system that we are at interrupt level.
   */ 
  
  ALT_OS_INT_ENTER();
 10c:	0002e000 	call	2e00 <OSIntEnter>
#ifndef NIOS2_EIC_PRESENT
static ALT_INLINE alt_u32 ALT_ALWAYS_INLINE alt_irq_pending (void)
{
  alt_u32 active;

  NIOS2_READ_IPENDING (active);
 110:	0005313a 	rdctl	r2,ipending
 114:	e0bffc15 	stw	r2,-16(fp)

  return active;
 118:	e0bffc17 	ldw	r2,-16(fp)
   * Consider the case where the high priority interupt is asserted during
   * the interrupt entry sequence for a lower priority interrupt to see why
   * this is the case.
   */

  active = alt_irq_pending ();
 11c:	e0bfff15 	stw	r2,-4(fp)

  do
  {
    i = 0;
 120:	e03ffd15 	stw	zero,-12(fp)
    mask = 1;
 124:	00800044 	movi	r2,1
 128:	e0bffe15 	stw	r2,-8(fp)
     * called to clear the interrupt condition.
     */

    do
    {
      if (active & mask)
 12c:	e0ffff17 	ldw	r3,-4(fp)
 130:	e0bffe17 	ldw	r2,-8(fp)
 134:	1884703a 	and	r2,r3,r2
 138:	10001226 	beq	r2,zero,184 <alt_irq_handler+0x88>
      { 
#ifdef ALT_ENHANCED_INTERRUPT_API_PRESENT
        alt_irq[i].handler(alt_irq[i].context); 
#else
        alt_irq[i].handler(alt_irq[i].context, i); 
 13c:	e0bffd17 	ldw	r2,-12(fp)
 140:	100690fa 	slli	r3,r2,3
 144:	008000b4 	movhi	r2,2
 148:	1885883a 	add	r2,r3,r2
 14c:	10ea8917 	ldw	r3,-21980(r2)
 150:	e0bffd17 	ldw	r2,-12(fp)
 154:	100890fa 	slli	r4,r2,3
 158:	008000b4 	movhi	r2,2
 15c:	2085883a 	add	r2,r4,r2
 160:	10aa8a17 	ldw	r2,-21976(r2)
 164:	e17ffd17 	ldw	r5,-12(fp)
 168:	1009883a 	mov	r4,r2
 16c:	183ee83a 	callr	r3
#endif
        break;
 170:	0001883a 	nop
  NIOS2_READ_IPENDING (active);
 174:	0005313a 	rdctl	r2,ipending
 178:	e0bffb15 	stw	r2,-20(fp)
  return active;
 17c:	e0bffb17 	ldw	r2,-20(fp)
 180:	00000706 	br	1a0 <alt_irq_handler+0xa4>
      }
      mask <<= 1;
 184:	e0bffe17 	ldw	r2,-8(fp)
 188:	1085883a 	add	r2,r2,r2
 18c:	e0bffe15 	stw	r2,-8(fp)
      i++;
 190:	e0bffd17 	ldw	r2,-12(fp)
 194:	10800044 	addi	r2,r2,1
 198:	e0bffd15 	stw	r2,-12(fp)
      if (active & mask)
 19c:	003fe306 	br	12c <alt_irq_handler+0x30>

    } while (1);

    active = alt_irq_pending ();
 1a0:	e0bfff15 	stw	r2,-4(fp)
    
  } while (active);
 1a4:	e0bfff17 	ldw	r2,-4(fp)
 1a8:	103fdd1e 	bne	r2,zero,120 <alt_irq_handler+0x24>

  /*
   * Notify the operating system that interrupt processing is complete.
   */ 

  ALT_OS_INT_EXIT();
 1ac:	0002e4c0 	call	2e4c <OSIntExit>
}
 1b0:	0001883a 	nop
 1b4:	e037883a 	mov	sp,fp
 1b8:	dfc00117 	ldw	ra,4(sp)
 1bc:	df000017 	ldw	fp,0(sp)
 1c0:	dec00204 	addi	sp,sp,8
 1c4:	f800283a 	ret

000001c8 <alt_instruction_exception_entry>:
 * that handler if it has been registered. Absent a handler, it will
 * break break or hang as discussed below.
 */
int 
alt_instruction_exception_entry (alt_u32 exception_pc)
{
 1c8:	defffb04 	addi	sp,sp,-20
 1cc:	dfc00415 	stw	ra,16(sp)
 1d0:	df000315 	stw	fp,12(sp)
 1d4:	df000304 	addi	fp,sp,12
 1d8:	e13ffd15 	stw	r4,-12(fp)
 * NIOS2_EXCEPTION_CAUSE_NOT_PRESENT. Your handling routine should
 * check the validity of the cause argument before proceeding.
 */
#ifdef NIOS2_HAS_EXTRA_EXCEPTION_INFO
  /* Get exception cause & "badaddr" */
  NIOS2_READ_EXCEPTION(cause);
 1dc:	000531fa 	rdctl	r2,exception
 1e0:	e0bfff15 	stw	r2,-4(fp)
  cause = ( (cause & NIOS2_EXCEPTION_REG_CAUSE_MASK) >>
 1e4:	e0bfff17 	ldw	r2,-4(fp)
 1e8:	1004d0ba 	srli	r2,r2,2
 1ec:	108007cc 	andi	r2,r2,31
 1f0:	e0bfff15 	stw	r2,-4(fp)
              NIOS2_EXCEPTION_REG_CAUSE_OFST );

  NIOS2_READ_BADADDR(badaddr);
 1f4:	0005333a 	rdctl	r2,badaddr
 1f8:	e0bffe15 	stw	r2,-8(fp)
#else
  cause = NIOS2_EXCEPTION_CAUSE_NOT_PRESENT;
  badaddr = 0;
#endif /* NIOS2_HAS_EXTRA_EXCEPTION_INFO */

  if(alt_instruction_exception_handler) {
 1fc:	d0a6f317 	ldw	r2,-25652(gp)
 200:	10000726 	beq	r2,zero,220 <alt_instruction_exception_entry+0x58>
     * Call handler. Its return value indicates whether the exception-causing
     * instruction should be re-issued. The code that called us,
     * alt_eceptions_entry.S, will look at this value and adjust the ea
     * register as necessary
     */
    return alt_instruction_exception_handler(cause, exception_pc, badaddr);
 204:	d0a6f317 	ldw	r2,-25652(gp)
 208:	e0ffff17 	ldw	r3,-4(fp)
 20c:	e1bffe17 	ldw	r6,-8(fp)
 210:	e17ffd17 	ldw	r5,-12(fp)
 214:	1809883a 	mov	r4,r3
 218:	103ee83a 	callr	r2
 21c:	00000206 	br	228 <alt_instruction_exception_entry+0x60>
   *    (a peripheral which negates its interrupt output before its
   *    interrupt handler has been executed will cause spurious interrupts)
   */
  else {
#ifdef NIOS2_HAS_DEBUG_STUB
    NIOS2_BREAK();
 220:	003da03a 	break	0
      ;
#endif /* NIOS2_HAS_DEBUG_STUB */
  }

  /* We should not get here. Remove compiler warning. */
  return NIOS2_EXCEPTION_RETURN_REISSUE_INST;
 224:	0005883a 	mov	r2,zero
}
 228:	e037883a 	mov	sp,fp
 22c:	dfc00117 	ldw	ra,4(sp)
 230:	df000017 	ldw	fp,0(sp)
 234:	dec00204 	addi	sp,sp,8
 238:	f800283a 	ret

Disassembly of section .text:

0000023c <_start>:

    /*
     * Now that the caches are initialized, set up the stack pointer and global pointer.
     * The values provided by the linker are assumed to be correctly aligned.
     */
    movhi sp, %hi(__alt_stack_pointer)
     23c:	06c10034 	movhi	sp,1024
    ori sp, sp, %lo(__alt_stack_pointer)
     240:	dec00014 	ori	sp,sp,0
    movhi gp, %hi(_gp)
     244:	06800074 	movhi	gp,1
    ori gp, gp, %lo(_gp)
     248:	d69f0b14 	ori	gp,gp,31788
 */
#ifndef ALT_SIM_OPTIMIZE
    /* Log that the BSS is about to be cleared. */
    ALT_LOG_PUTS(alt_log_msg_bss)

    movhi r2, %hi(__bss_start)
     24c:	00800074 	movhi	r2,1
    ori r2, r2, %lo(__bss_start)
     250:	1085be14 	ori	r2,r2,5880

    movhi r3, %hi(__bss_end)
     254:	00c00074 	movhi	r3,1
    ori r3, r3, %lo(__bss_end)
     258:	18eac914 	ori	r3,r3,43812

    beq r2, r3, 1f
     25c:	10c00326 	beq	r2,r3,26c <_start+0x30>

0:
    stw zero, (r2)
     260:	10000015 	stw	zero,0(r2)
    addi r2, r2, 4
     264:	10800104 	addi	r2,r2,4
    bltu r2, r3, 0b
     268:	10fffd36 	bltu	r2,r3,260 <_start+0x24>
     * section aren't defined until alt_load() has been called).
     */
    mov   et, zero
#endif

    call alt_load
     26c:	00020a40 	call	20a4 <alt_load>

    /* Log that alt_main is about to be called. */
    ALT_LOG_PUTS(alt_log_msg_alt_main)

    /* Call the C entry point. It should never return. */
    call alt_main
     270:	00021280 	call	2128 <alt_main>

00000274 <alt_after_alt_main>:

    /* Wait in infinite loop in case alt_main does return. */
alt_after_alt_main:
    br alt_after_alt_main
     274:	003fff06 	br	274 <alt_after_alt_main>

00000278 <main>:
void IO_task(void* pdata);
void vehicle_task(void* pdata);

/* The main function creates two task and starts multi-tasking */
int main(void)
{
     278:	defff904 	addi	sp,sp,-28
     27c:	dfc00615 	stw	ra,24(sp)
     280:	df000515 	stw	fp,20(sp)
     284:	df000504 	addi	fp,sp,20
	Key_Fob_Sem = OSSemCreate(1);
     288:	01000044 	movi	r4,1
     28c:	00078200 	call	7820 <OSSemCreate>
     290:	d0a6cd15 	stw	r2,-25804(gp)
	Brake_Pedal_Sem = OSSemCreate(1);
     294:	01000044 	movi	r4,1
     298:	00078200 	call	7820 <OSSemCreate>
     29c:	d0a6ce15 	stw	r2,-25800(gp)
	Eng_Start_Stop_Sem = OSSemCreate(1);
     2a0:	01000044 	movi	r4,1
     2a4:	00078200 	call	7820 <OSSemCreate>
     2a8:	d0a6cf15 	stw	r2,-25796(gp)
	Engine_Sem = OSSemCreate(1);
     2ac:	01000044 	movi	r4,1
     2b0:	00078200 	call	7820 <OSSemCreate>
     2b4:	d0a6d015 	stw	r2,-25792(gp)
	Park_Sem = OSSemCreate(1);
     2b8:	01000044 	movi	r4,1
     2bc:	00078200 	call	7820 <OSSemCreate>
     2c0:	d0a6d115 	stw	r2,-25788(gp)
	Accel_Pedal_Sem = OSSemCreate(1);
     2c4:	01000044 	movi	r4,1
     2c8:	00078200 	call	7820 <OSSemCreate>
     2cc:	d0a6d215 	stw	r2,-25784(gp)
	Throttle_Sem = OSSemCreate(1);
     2d0:	01000044 	movi	r4,1
     2d4:	00078200 	call	7820 <OSSemCreate>
     2d8:	d0a6d315 	stw	r2,-25780(gp)
	Speed_Sem = OSSemCreate(1);
     2dc:	01000044 	movi	r4,1
     2e0:	00078200 	call	7820 <OSSemCreate>
     2e4:	d0a6d415 	stw	r2,-25776(gp)
	Drive_Neutral_Sem = OSSemCreate(1);
     2e8:	01000044 	movi	r4,1
     2ec:	00078200 	call	7820 <OSSemCreate>
     2f0:	d0a6d515 	stw	r2,-25772(gp)

	OSTaskCreateExt(IO_task,
     2f4:	d8000415 	stw	zero,16(sp)
     2f8:	d8000315 	stw	zero,12(sp)
     2fc:	00820004 	movi	r2,2048
     300:	d8800215 	stw	r2,8(sp)
     304:	00800074 	movhi	r2,1
     308:	10860004 	addi	r2,r2,6144
     30c:	d8800115 	stw	r2,4(sp)
     310:	00800044 	movi	r2,1
     314:	d8800015 	stw	r2,0(sp)
     318:	01c00044 	movi	r7,1
     31c:	01800074 	movhi	r6,1
     320:	318dff04 	addi	r6,r6,14332
     324:	000b883a 	mov	r5,zero
     328:	01000034 	movhi	r4,0
     32c:	21014504 	addi	r4,r4,1300
     330:	000886c0 	call	886c <OSTaskCreateExt>
                  TASK1_PRIORITY,
                  task1_stk,
                  TASK_STACKSIZE,
                  NULL,
                  0);
	OSTaskCreateExt(engine_task,
     334:	d8000415 	stw	zero,16(sp)
     338:	d8000315 	stw	zero,12(sp)
     33c:	00820004 	movi	r2,2048
     340:	d8800215 	stw	r2,8(sp)
     344:	00800074 	movhi	r2,1
     348:	108e0004 	addi	r2,r2,14336
     34c:	d8800115 	stw	r2,4(sp)
     350:	00800084 	movi	r2,2
     354:	d8800015 	stw	r2,0(sp)
     358:	01c00084 	movi	r7,2
     35c:	01800074 	movhi	r6,1
     360:	3195ff04 	addi	r6,r6,22524
     364:	000b883a 	mov	r5,zero
     368:	01000034 	movhi	r4,0
     36c:	21022a04 	addi	r4,r4,2216
     370:	000886c0 	call	886c <OSTaskCreateExt>
                  TASK2_PRIORITY,
                  task2_stk,
                  TASK_STACKSIZE,
                  NULL,
                  0);
	OSTaskCreateExt(vehicle_task,
     374:	d8000415 	stw	zero,16(sp)
     378:	d8000315 	stw	zero,12(sp)
     37c:	00820004 	movi	r2,2048
     380:	d8800215 	stw	r2,8(sp)
     384:	00800074 	movhi	r2,1
     388:	10960004 	addi	r2,r2,22528
     38c:	d8800115 	stw	r2,4(sp)
     390:	008000c4 	movi	r2,3
     394:	d8800015 	stw	r2,0(sp)
     398:	01c000c4 	movi	r7,3
     39c:	01800074 	movhi	r6,1
     3a0:	319dff04 	addi	r6,r6,30716
     3a4:	000b883a 	mov	r5,zero
     3a8:	01000034 	movhi	r4,0
     3ac:	21029a04 	addi	r4,r4,2664
     3b0:	000886c0 	call	886c <OSTaskCreateExt>
                  TASK3_PRIORITY,
                  task3_stk,
                  TASK_STACKSIZE,
                  NULL,
                  0);
	OSStart();
     3b4:	00030b40 	call	30b4 <OSStart>
	return 0;
     3b8:	0005883a 	mov	r2,zero
}
     3bc:	e037883a 	mov	sp,fp
     3c0:	dfc00117 	ldw	ra,4(sp)
     3c4:	df000017 	ldw	fp,0(sp)
     3c8:	dec00204 	addi	sp,sp,8
     3cc:	f800283a 	ret

000003d0 <digit_separator>:

/**
 * takes in a pointer to an array, and an integer of 3 digits and appends them into a 3 digit array
 *
 */
void digit_separator(int* array, int numbers){
     3d0:	defffb04 	addi	sp,sp,-20
     3d4:	df000415 	stw	fp,16(sp)
     3d8:	df000404 	addi	fp,sp,16
     3dc:	e13ffd15 	stw	r4,-12(fp)
     3e0:	e17ffc15 	stw	r5,-16(fp)
    int dig = numbers;
     3e4:	e0bffc17 	ldw	r2,-16(fp)
     3e8:	e0bfff15 	stw	r2,-4(fp)
    for(int i=2; i >= 0; i--){
     3ec:	00800084 	movi	r2,2
     3f0:	e0bffe15 	stw	r2,-8(fp)
     3f4:	00001106 	br	43c <digit_separator+0x6c>

        array[i] = dig%10;
     3f8:	e0bffe17 	ldw	r2,-8(fp)
     3fc:	100490ba 	slli	r2,r2,2
     400:	e0fffd17 	ldw	r3,-12(fp)
     404:	1887883a 	add	r3,r3,r2
     408:	e0bfff17 	ldw	r2,-4(fp)
     40c:	01000284 	movi	r4,10
     410:	1109283a 	div	r4,r2,r4
     414:	210002a4 	muli	r4,r4,10
     418:	1105c83a 	sub	r2,r2,r4
     41c:	18800015 	stw	r2,0(r3)
        dig/=10;
     420:	e0ffff17 	ldw	r3,-4(fp)
     424:	00800284 	movi	r2,10
     428:	1885283a 	div	r2,r3,r2
     42c:	e0bfff15 	stw	r2,-4(fp)
    for(int i=2; i >= 0; i--){
     430:	e0bffe17 	ldw	r2,-8(fp)
     434:	10bfffc4 	addi	r2,r2,-1
     438:	e0bffe15 	stw	r2,-8(fp)
     43c:	e0bffe17 	ldw	r2,-8(fp)
     440:	103fed0e 	bge	r2,zero,3f8 <digit_separator+0x28>
    }
}
     444:	0001883a 	nop
     448:	0001883a 	nop
     44c:	e037883a 	mov	sp,fp
     450:	df000017 	ldw	fp,0(sp)
     454:	dec00104 	addi	sp,sp,4
     458:	f800283a 	ret

0000045c <hex_display_cnvtr>:

/**
 * converts integer value to the corresponding hex segments value.
 *
 */
int hex_display_cnvtr(int value){
     45c:	defffe04 	addi	sp,sp,-8
     460:	df000115 	stw	fp,4(sp)
     464:	df000104 	addi	fp,sp,4
     468:	e13fff15 	stw	r4,-4(fp)
     46c:	e0bfff17 	ldw	r2,-4(fp)
     470:	108002a8 	cmpgeui	r2,r2,10
     474:	1000221e 	bne	r2,zero,500 <hex_display_cnvtr+0xa4>
     478:	e0bfff17 	ldw	r2,-4(fp)
     47c:	100690ba 	slli	r3,r2,2
     480:	00800034 	movhi	r2,0
     484:	1885883a 	add	r2,r3,r2
     488:	10812417 	ldw	r2,1168(r2)
     48c:	1000683a 	jmp	r2
     490:	00000500 	call	50 <OSCtxSw_SWITCH_PC+0x10>
     494:	000004b8 	rdprs	zero,zero,18
     498:	000004c0 	call	4c <OSCtxSw_SWITCH_PC+0xc>
     49c:	000004c8 	cmpgei	zero,zero,19
     4a0:	000004d0 	cmplti	zero,zero,19
     4a4:	000004d8 	cmpnei	zero,zero,19
     4a8:	000004e0 	cmpeqi	zero,zero,19
     4ac:	000004e8 	cmpgeui	zero,zero,19
     4b0:	000004f0 	cmpltui	zero,zero,19
     4b4:	000004f8 	rdprs	zero,zero,19
    switch(value){
        case 1:
            return 0x06;
     4b8:	00800184 	movi	r2,6
     4bc:	00001106 	br	504 <hex_display_cnvtr+0xa8>
        case 2:
            return 0x5b;
     4c0:	008016c4 	movi	r2,91
     4c4:	00000f06 	br	504 <hex_display_cnvtr+0xa8>
        case 3:
            return 0x4f;
     4c8:	008013c4 	movi	r2,79
     4cc:	00000d06 	br	504 <hex_display_cnvtr+0xa8>

        case 4:
            return 0x66;
     4d0:	00801984 	movi	r2,102
     4d4:	00000b06 	br	504 <hex_display_cnvtr+0xa8>

        case 5:
            return 0x6d;
     4d8:	00801b44 	movi	r2,109
     4dc:	00000906 	br	504 <hex_display_cnvtr+0xa8>
        case 6:
            return 0x7d;
     4e0:	00801f44 	movi	r2,125
     4e4:	00000706 	br	504 <hex_display_cnvtr+0xa8>
        case 7:
            return 0x07;
     4e8:	008001c4 	movi	r2,7
     4ec:	00000506 	br	504 <hex_display_cnvtr+0xa8>
        case 8:
            return 0x7f;
     4f0:	00801fc4 	movi	r2,127
     4f4:	00000306 	br	504 <hex_display_cnvtr+0xa8>
        case 9:
            return 0x6f;
     4f8:	00801bc4 	movi	r2,111
     4fc:	00000106 	br	504 <hex_display_cnvtr+0xa8>
        default:
            // this is for 0
            return 0x3f;
     500:	00800fc4 	movi	r2,63

    }

}
     504:	e037883a 	mov	sp,fp
     508:	df000017 	ldw	fp,0(sp)
     50c:	dec00104 	addi	sp,sp,4
     510:	f800283a 	ret

00000514 <IO_task>:

/* Prints "Hello World" and sleeps for three seconds */
void IO_task(void* pdata)
{
     514:	defffb04 	addi	sp,sp,-20
     518:	dfc00415 	stw	ra,16(sp)
     51c:	df000315 	stw	fp,12(sp)
     520:	dc000215 	stw	r16,8(sp)
     524:	df000304 	addi	fp,sp,12
     528:	e13ffd15 	stw	r4,-12(fp)

	while (1)
	{
		/* do IO tasks */
		//T1_flag = 1;
		sw9 = *switch_ptr & 0x200; //sw9
     52c:	d0a00117 	ldw	r2,-32764(gp)
     530:	10800017 	ldw	r2,0(r2)
     534:	1080800c 	andi	r2,r2,512
     538:	d0a6c515 	stw	r2,-25836(gp)
		sw1 = *switch_ptr & 0x2; //sw1
     53c:	d0a00117 	ldw	r2,-32764(gp)
     540:	10800017 	ldw	r2,0(r2)
     544:	1080008c 	andi	r2,r2,2
     548:	d0a6c615 	stw	r2,-25832(gp)
		sw0 = *switch_ptr & 0x1; // sw0
     54c:	d0a00117 	ldw	r2,-32764(gp)
     550:	10800017 	ldw	r2,0(r2)
     554:	1080004c 	andi	r2,r2,1
     558:	d0a6c715 	stw	r2,-25828(gp)
		key3 = *KEY_ptr & 0x8;
     55c:	d0a00517 	ldw	r2,-32748(gp)
     560:	10800017 	ldw	r2,0(r2)
     564:	1080020c 	andi	r2,r2,8
     568:	d0a6c915 	stw	r2,-25820(gp)
		key2 = *KEY_ptr & 0x4;
     56c:	d0a00517 	ldw	r2,-32748(gp)
     570:	10800017 	ldw	r2,0(r2)
     574:	1080010c 	andi	r2,r2,4
     578:	d0a6ca15 	stw	r2,-25816(gp)
		key0 = *KEY_ptr & 0x1;
     57c:	d0a00517 	ldw	r2,-32748(gp)
     580:	10800017 	ldw	r2,0(r2)
     584:	1080004c 	andi	r2,r2,1
     588:	d0a6cb15 	stw	r2,-25812(gp)
		*red_LED_ptr = sw9 + sw1 + sw0;
     58c:	d0e6c517 	ldw	r3,-25836(gp)
     590:	d0a6c617 	ldw	r2,-25832(gp)
     594:	1889883a 	add	r4,r3,r2
     598:	d0e6c717 	ldw	r3,-25828(gp)
     59c:	d0a00017 	ldw	r2,-32768(gp)
     5a0:	20c7883a 	add	r3,r4,r3
     5a4:	10c00015 	stw	r3,0(r2)
		*green_LED_ptr = key0 + key2 + key3;
     5a8:	d0e6cb17 	ldw	r3,-25812(gp)
     5ac:	d0a6ca17 	ldw	r2,-25816(gp)
     5b0:	1889883a 	add	r4,r3,r2
     5b4:	d0e6c917 	ldw	r3,-25820(gp)
     5b8:	d0a00317 	ldw	r2,-32756(gp)
     5bc:	20c7883a 	add	r3,r4,r3
     5c0:	10c00015 	stw	r3,0(r2)

		OSSemPend(Key_Fob_Sem, 0, &err);
     5c4:	d0a6cd17 	ldw	r2,-25804(gp)
     5c8:	e0fffec4 	addi	r3,fp,-5
     5cc:	180d883a 	mov	r6,r3
     5d0:	000b883a 	mov	r5,zero
     5d4:	1009883a 	mov	r4,r2
     5d8:	0007b4c0 	call	7b4c <OSSemPend>
		//key fob
		if (sw9 == 0x200){
     5dc:	d0a6c517 	ldw	r2,-25836(gp)
     5e0:	10808018 	cmpnei	r2,r2,512
     5e4:	1000031e 	bne	r2,zero,5f4 <IO_task+0xe0>
		   key_fob = ON;
     5e8:	00800044 	movi	r2,1
     5ec:	d0a6be15 	stw	r2,-25864(gp)
     5f0:	00000106 	br	5f8 <IO_task+0xe4>
		}
		else{
			key_fob = OFF;
     5f4:	d026be15 	stw	zero,-25864(gp)
		}
		OSSemPost(Key_Fob_Sem);
     5f8:	d0a6cd17 	ldw	r2,-25804(gp)
     5fc:	1009883a 	mov	r4,r2
     600:	0007ed40 	call	7ed4 <OSSemPost>

		OSSemPend(Drive_Neutral_Sem, 0, &err);
     604:	d0a6d517 	ldw	r2,-25772(gp)
     608:	e0fffec4 	addi	r3,fp,-5
     60c:	180d883a 	mov	r6,r3
     610:	000b883a 	mov	r5,zero
     614:	1009883a 	mov	r4,r2
     618:	0007b4c0 	call	7b4c <OSSemPend>
		//drive or neutral
		if (sw1 == 0x2){
     61c:	d0a6c617 	ldw	r2,-25832(gp)
     620:	10800098 	cmpnei	r2,r2,2
     624:	1000031e 	bne	r2,zero,634 <IO_task+0x120>
			drive_neutral = ON;
     628:	00800044 	movi	r2,1
     62c:	d0a6bf15 	stw	r2,-25860(gp)
     630:	00000106 	br	638 <IO_task+0x124>
		}
		else{
			drive_neutral = OFF;
     634:	d026bf15 	stw	zero,-25860(gp)
		}
		OSSemPost(Drive_Neutral_Sem);
     638:	d0a6d517 	ldw	r2,-25772(gp)
     63c:	1009883a 	mov	r4,r2
     640:	0007ed40 	call	7ed4 <OSSemPost>

		OSSemPend(Park_Sem, 0, &err);
     644:	d0a6d117 	ldw	r2,-25788(gp)
     648:	e0fffec4 	addi	r3,fp,-5
     64c:	180d883a 	mov	r6,r3
     650:	000b883a 	mov	r5,zero
     654:	1009883a 	mov	r4,r2
     658:	0007b4c0 	call	7b4c <OSSemPend>
		OSSemPend(Speed_Sem,0, &err);
     65c:	d0a6d417 	ldw	r2,-25776(gp)
     660:	e0fffec4 	addi	r3,fp,-5
     664:	180d883a 	mov	r6,r3
     668:	000b883a 	mov	r5,zero
     66c:	1009883a 	mov	r4,r2
     670:	0007b4c0 	call	7b4c <OSSemPend>
		// park on/off
		if(sw0 == 0x1 && speed == 0){
     674:	d0a6c717 	ldw	r2,-25828(gp)
     678:	10800058 	cmpnei	r2,r2,1
     67c:	10000b1e 	bne	r2,zero,6ac <IO_task+0x198>
     680:	d0a6b417 	ldw	r2,-25904(gp)
     684:	d0e6b517 	ldw	r3,-25900(gp)
     688:	000d883a 	mov	r6,zero
     68c:	000f883a 	mov	r7,zero
     690:	1009883a 	mov	r4,r2
     694:	180b883a 	mov	r5,r3
     698:	00016900 	call	1690 <__eqdf2>
     69c:	1000031e 	bne	r2,zero,6ac <IO_task+0x198>
			park = ON;
     6a0:	00800044 	movi	r2,1
     6a4:	d0a6c015 	stw	r2,-25856(gp)
     6a8:	00000106 	br	6b0 <IO_task+0x19c>
		}
		else{
			park = OFF;
     6ac:	d026c015 	stw	zero,-25856(gp)
		}
		OSSemPost(Park_Sem);
     6b0:	d0a6d117 	ldw	r2,-25788(gp)
     6b4:	1009883a 	mov	r4,r2
     6b8:	0007ed40 	call	7ed4 <OSSemPost>

		OSSemPend(Brake_Pedal_Sem, 0, &err);
     6bc:	d0a6ce17 	ldw	r2,-25800(gp)
     6c0:	e0fffec4 	addi	r3,fp,-5
     6c4:	180d883a 	mov	r6,r3
     6c8:	000b883a 	mov	r5,zero
     6cc:	1009883a 	mov	r4,r2
     6d0:	0007b4c0 	call	7b4c <OSSemPend>
		// brake pedal
		if(key3 == 0x8){
     6d4:	d0a6c917 	ldw	r2,-25820(gp)
     6d8:	10800218 	cmpnei	r2,r2,8
     6dc:	1000031e 	bne	r2,zero,6ec <IO_task+0x1d8>
		   brake_pedal = ON;
     6e0:	00800044 	movi	r2,1
     6e4:	d0a6c115 	stw	r2,-25852(gp)
     6e8:	00000106 	br	6f0 <IO_task+0x1dc>
		}
		else{
			brake_pedal = OFF;
     6ec:	d026c115 	stw	zero,-25852(gp)
		}
		OSSemPost(Brake_Pedal_Sem);
     6f0:	d0a6ce17 	ldw	r2,-25800(gp)
     6f4:	1009883a 	mov	r4,r2
     6f8:	0007ed40 	call	7ed4 <OSSemPost>

		OSSemPend(Accel_Pedal_Sem, 0, &err);
     6fc:	d0a6d217 	ldw	r2,-25784(gp)
     700:	e0fffec4 	addi	r3,fp,-5
     704:	180d883a 	mov	r6,r3
     708:	000b883a 	mov	r5,zero
     70c:	1009883a 	mov	r4,r2
     710:	0007b4c0 	call	7b4c <OSSemPend>
		// accel_pedal
		if(key2 == 0x4){
     714:	d0a6ca17 	ldw	r2,-25816(gp)
     718:	10800118 	cmpnei	r2,r2,4
     71c:	1000031e 	bne	r2,zero,72c <IO_task+0x218>
		   accel_pedal = ON;
     720:	00800044 	movi	r2,1
     724:	d0a6c215 	stw	r2,-25848(gp)
     728:	00000106 	br	730 <IO_task+0x21c>
		}
		else{
			accel_pedal = OFF;
     72c:	d026c215 	stw	zero,-25848(gp)
		}
		OSSemPost(Accel_Pedal_Sem);
     730:	d0a6d217 	ldw	r2,-25784(gp)
     734:	1009883a 	mov	r4,r2
     738:	0007ed40 	call	7ed4 <OSSemPost>

		OSSemPend(Eng_Start_Stop_Sem, 0, &err);
     73c:	d0a6cf17 	ldw	r2,-25796(gp)
     740:	e0fffec4 	addi	r3,fp,-5
     744:	180d883a 	mov	r6,r3
     748:	000b883a 	mov	r5,zero
     74c:	1009883a 	mov	r4,r2
     750:	0007b4c0 	call	7b4c <OSSemPend>
		// eng_start_stop
		if(key0 == 0x1){
     754:	d0a6cb17 	ldw	r2,-25812(gp)
     758:	10800058 	cmpnei	r2,r2,1
     75c:	1000031e 	bne	r2,zero,76c <IO_task+0x258>
			eng_start_stop = ON;
     760:	00800044 	movi	r2,1
     764:	d0a6c315 	stw	r2,-25844(gp)
     768:	00000106 	br	770 <IO_task+0x25c>
		}
		else{
			eng_start_stop = OFF;
     76c:	d026c315 	stw	zero,-25844(gp)
		}
		OSSemPost(Eng_Start_Stop_Sem);
     770:	d0a6cf17 	ldw	r2,-25796(gp)
     774:	1009883a 	mov	r4,r2
     778:	0007ed40 	call	7ed4 <OSSemPost>


		speed_in_km = speed*3.6;
     77c:	d0a6b417 	ldw	r2,-25904(gp)
     780:	d0e6b517 	ldw	r3,-25900(gp)
     784:	01b00034 	movhi	r6,49152
     788:	01d00374 	movhi	r7,16397
     78c:	39f33304 	addi	r7,r7,-13108
     790:	1009883a 	mov	r4,r2
     794:	180b883a 	mov	r5,r3
     798:	00017f80 	call	17f8 <__muldf3>
     79c:	1009883a 	mov	r4,r2
     7a0:	180b883a 	mov	r5,r3
     7a4:	2005883a 	mov	r2,r4
     7a8:	2807883a 	mov	r3,r5
     7ac:	1009883a 	mov	r4,r2
     7b0:	180b883a 	mov	r5,r3
     7b4:	0001e6c0 	call	1e6c <__fixdfsi>
     7b8:	d0a6ba15 	stw	r2,-25880(gp)
		OSSemPost(Speed_Sem);
     7bc:	d0a6d417 	ldw	r2,-25776(gp)
     7c0:	1009883a 	mov	r4,r2
     7c4:	0007ed40 	call	7ed4 <OSSemPost>
		//check for if speed is over 999 or < 000. ie set a cap
		if (speed_in_km > 999){
     7c8:	d0a6ba17 	ldw	r2,-25880(gp)
     7cc:	1080fa10 	cmplti	r2,r2,1000
     7d0:	1000031e 	bne	r2,zero,7e0 <IO_task+0x2cc>
			speed_in_km = 999;
     7d4:	0080f9c4 	movi	r2,999
     7d8:	d0a6ba15 	stw	r2,-25880(gp)
     7dc:	00000306 	br	7ec <IO_task+0x2d8>
		}
		else if (speed_in_km < 0){
     7e0:	d0a6ba17 	ldw	r2,-25880(gp)
     7e4:	1000010e 	bge	r2,zero,7ec <IO_task+0x2d8>
			speed_in_km = 0;
     7e8:	d026ba15 	stw	zero,-25880(gp)
		}

		OSSemPend(Engine_Sem, 0, &err);
     7ec:	d0a6d017 	ldw	r2,-25792(gp)
     7f0:	e0fffec4 	addi	r3,fp,-5
     7f4:	180d883a 	mov	r6,r3
     7f8:	000b883a 	mov	r5,zero
     7fc:	1009883a 	mov	r4,r2
     800:	0007b4c0 	call	7b4c <OSSemPend>
		if(engine == ON){
     804:	d0a6bc17 	ldw	r2,-25872(gp)
     808:	10800058 	cmpnei	r2,r2,1
     80c:	10001b1e 	bne	r2,zero,87c <IO_task+0x368>
		  digit_separator(hex_array, speed_in_km);
     810:	d0a6cc17 	ldw	r2,-25808(gp)
     814:	d0e6ba17 	ldw	r3,-25880(gp)
     818:	180b883a 	mov	r5,r3
     81c:	1009883a 	mov	r4,r2
     820:	00003d00 	call	3d0 <digit_separator>
			*(hex3_0_ptr) = (hex_display_cnvtr(hex_array[0])<<16) + (hex_display_cnvtr(hex_array[1])<<8)+ hex_display_cnvtr(hex_array[2]);
     824:	d0a6cc17 	ldw	r2,-25808(gp)
     828:	10800017 	ldw	r2,0(r2)
     82c:	1009883a 	mov	r4,r2
     830:	000045c0 	call	45c <hex_display_cnvtr>
     834:	1020943a 	slli	r16,r2,16
     838:	d0a6cc17 	ldw	r2,-25808(gp)
     83c:	10800104 	addi	r2,r2,4
     840:	10800017 	ldw	r2,0(r2)
     844:	1009883a 	mov	r4,r2
     848:	000045c0 	call	45c <hex_display_cnvtr>
     84c:	1004923a 	slli	r2,r2,8
     850:	80a1883a 	add	r16,r16,r2
     854:	d0a6cc17 	ldw	r2,-25808(gp)
     858:	10800204 	addi	r2,r2,8
     85c:	10800017 	ldw	r2,0(r2)
     860:	1009883a 	mov	r4,r2
     864:	000045c0 	call	45c <hex_display_cnvtr>
     868:	1007883a 	mov	r3,r2
     86c:	d0a00217 	ldw	r2,-32760(gp)
     870:	80c7883a 	add	r3,r16,r3
     874:	10c00015 	stw	r3,0(r2)
     878:	00000206 	br	884 <IO_task+0x370>
		}
		else{
			*(hex3_0_ptr) = 0;
     87c:	d0a00217 	ldw	r2,-32760(gp)
     880:	10000015 	stw	zero,0(r2)
		}
		OSSemPost(Engine_Sem);
     884:	d0a6d017 	ldw	r2,-25792(gp)
     888:	1009883a 	mov	r4,r2
     88c:	0007ed40 	call	7ed4 <OSSemPost>

		//printf("Hello from task1\n");
		OSTimeDlyHMSM(0,0,0,125);
     890:	01c01f44 	movi	r7,125
     894:	000d883a 	mov	r6,zero
     898:	000b883a 	mov	r5,zero
     89c:	0009883a 	mov	r4,zero
     8a0:	0009a5c0 	call	9a5c <OSTimeDlyHMSM>
		sw9 = *switch_ptr & 0x200; //sw9
     8a4:	003f2106 	br	52c <IO_task+0x18>

000008a8 <engine_task>:
	  }
}
/* Prints "Hello World" and sleeps for three seconds */
void engine_task(void* pdata)
{
     8a8:	defffc04 	addi	sp,sp,-16
     8ac:	dfc00315 	stw	ra,12(sp)
     8b0:	df000215 	stw	fp,8(sp)
     8b4:	df000204 	addi	fp,sp,8
     8b8:	e13ffe15 	stw	r4,-8(fp)
	INT8U err;
	while (1)
	{
	// do engine tasks
	// remember to put in the 1 second counter
		OSSemPend(Engine_Sem, 0, &err);
     8bc:	d0a6d017 	ldw	r2,-25792(gp)
     8c0:	e0ffffc4 	addi	r3,fp,-1
     8c4:	180d883a 	mov	r6,r3
     8c8:	000b883a 	mov	r5,zero
     8cc:	1009883a 	mov	r4,r2
     8d0:	0007b4c0 	call	7b4c <OSSemPend>
		OSSemPend(Accel_Pedal_Sem, 0, &err);
     8d4:	d0a6d217 	ldw	r2,-25784(gp)
     8d8:	e0ffffc4 	addi	r3,fp,-1
     8dc:	180d883a 	mov	r6,r3
     8e0:	000b883a 	mov	r5,zero
     8e4:	1009883a 	mov	r4,r2
     8e8:	0007b4c0 	call	7b4c <OSSemPend>
		OSSemPend(Key_Fob_Sem, 0, &err);
     8ec:	d0a6cd17 	ldw	r2,-25804(gp)
     8f0:	e0ffffc4 	addi	r3,fp,-1
     8f4:	180d883a 	mov	r6,r3
     8f8:	000b883a 	mov	r5,zero
     8fc:	1009883a 	mov	r4,r2
     900:	0007b4c0 	call	7b4c <OSSemPend>
		OSSemPend(Eng_Start_Stop_Sem, 0, &err);
     904:	d0a6cf17 	ldw	r2,-25796(gp)
     908:	e0ffffc4 	addi	r3,fp,-1
     90c:	180d883a 	mov	r6,r3
     910:	000b883a 	mov	r5,zero
     914:	1009883a 	mov	r4,r2
     918:	0007b4c0 	call	7b4c <OSSemPend>
		OSSemPend(Throttle_Sem, 0, &err);
     91c:	d0a6d317 	ldw	r2,-25780(gp)
     920:	e0ffffc4 	addi	r3,fp,-1
     924:	180d883a 	mov	r6,r3
     928:	000b883a 	mov	r5,zero
     92c:	1009883a 	mov	r4,r2
     930:	0007b4c0 	call	7b4c <OSSemPend>
		OSSemPend(Park_Sem, 0, &err);
     934:	d0a6d117 	ldw	r2,-25788(gp)
     938:	e0ffffc4 	addi	r3,fp,-1
     93c:	180d883a 	mov	r6,r3
     940:	000b883a 	mov	r5,zero
     944:	1009883a 	mov	r4,r2
     948:	0007b4c0 	call	7b4c <OSSemPend>
		OSSemPend(Brake_Pedal_Sem, 0, &err);
     94c:	d0a6ce17 	ldw	r2,-25800(gp)
     950:	e0ffffc4 	addi	r3,fp,-1
     954:	180d883a 	mov	r6,r3
     958:	000b883a 	mov	r5,zero
     95c:	1009883a 	mov	r4,r2
     960:	0007b4c0 	call	7b4c <OSSemPend>
		if((key_fob == ON) && (brake_pedal == ON) && (eng_start_stop == ON)){
     964:	d0a6be17 	ldw	r2,-25864(gp)
     968:	10800058 	cmpnei	r2,r2,1
     96c:	10000f1e 	bne	r2,zero,9ac <engine_task+0x104>
     970:	d0a6c117 	ldw	r2,-25852(gp)
     974:	10800058 	cmpnei	r2,r2,1
     978:	10000c1e 	bne	r2,zero,9ac <engine_task+0x104>
     97c:	d0a6c317 	ldw	r2,-25844(gp)
     980:	10800058 	cmpnei	r2,r2,1
     984:	1000091e 	bne	r2,zero,9ac <engine_task+0x104>
		//OSTimeDlyHMSM(0,0,1,0);
		// check that its been held for longer than 1 second. still in the works
			eng_timer ++;
     988:	d0a6bd17 	ldw	r2,-25868(gp)
     98c:	10800044 	addi	r2,r2,1
     990:	d0a6bd15 	stw	r2,-25868(gp)
			if(eng_timer > 8){
     994:	d0a6bd17 	ldw	r2,-25868(gp)
     998:	10800250 	cmplti	r2,r2,9
     99c:	1000031e 	bne	r2,zero,9ac <engine_task+0x104>
				engine = ON;
     9a0:	00800044 	movi	r2,1
     9a4:	d0a6bc15 	stw	r2,-25872(gp)
				eng_timer = 0;
     9a8:	d026bd15 	stw	zero,-25868(gp)
			}
		}

	// turn off the engine
		if ((park == ON) && (eng_start_stop == ON) && (engine == ON)){
     9ac:	d0a6c017 	ldw	r2,-25856(gp)
     9b0:	10800058 	cmpnei	r2,r2,1
     9b4:	1000071e 	bne	r2,zero,9d4 <engine_task+0x12c>
     9b8:	d0a6c317 	ldw	r2,-25844(gp)
     9bc:	10800058 	cmpnei	r2,r2,1
     9c0:	1000041e 	bne	r2,zero,9d4 <engine_task+0x12c>
     9c4:	d0a6bc17 	ldw	r2,-25872(gp)
     9c8:	10800058 	cmpnei	r2,r2,1
     9cc:	1000011e 	bne	r2,zero,9d4 <engine_task+0x12c>
			engine = OFF;
     9d0:	d026bc15 	stw	zero,-25872(gp)
		}

		if((accel_pedal == ON) && (engine == ON) ){
     9d4:	d0a6c217 	ldw	r2,-25848(gp)
     9d8:	10800058 	cmpnei	r2,r2,1
     9dc:	1000061e 	bne	r2,zero,9f8 <engine_task+0x150>
     9e0:	d0a6bc17 	ldw	r2,-25872(gp)
     9e4:	10800058 	cmpnei	r2,r2,1
     9e8:	1000031e 	bne	r2,zero,9f8 <engine_task+0x150>
			throttle = 6;
     9ec:	00800184 	movi	r2,6
     9f0:	d0a6bb15 	stw	r2,-25876(gp)
     9f4:	00000106 	br	9fc <engine_task+0x154>
		}
		else{
			throttle = 0;
     9f8:	d026bb15 	stw	zero,-25876(gp)
		}

		OSSemPost(Engine_Sem);
     9fc:	d0a6d017 	ldw	r2,-25792(gp)
     a00:	1009883a 	mov	r4,r2
     a04:	0007ed40 	call	7ed4 <OSSemPost>
		OSSemPost(Accel_Pedal_Sem);
     a08:	d0a6d217 	ldw	r2,-25784(gp)
     a0c:	1009883a 	mov	r4,r2
     a10:	0007ed40 	call	7ed4 <OSSemPost>
		OSSemPost(Key_Fob_Sem);
     a14:	d0a6cd17 	ldw	r2,-25804(gp)
     a18:	1009883a 	mov	r4,r2
     a1c:	0007ed40 	call	7ed4 <OSSemPost>
		OSSemPost(Eng_Start_Stop_Sem);
     a20:	d0a6cf17 	ldw	r2,-25796(gp)
     a24:	1009883a 	mov	r4,r2
     a28:	0007ed40 	call	7ed4 <OSSemPost>
		OSSemPost(Throttle_Sem);
     a2c:	d0a6d317 	ldw	r2,-25780(gp)
     a30:	1009883a 	mov	r4,r2
     a34:	0007ed40 	call	7ed4 <OSSemPost>
		OSSemPost(Park_Sem);
     a38:	d0a6d117 	ldw	r2,-25788(gp)
     a3c:	1009883a 	mov	r4,r2
     a40:	0007ed40 	call	7ed4 <OSSemPost>
		OSSemPost(Brake_Pedal_Sem);
     a44:	d0a6ce17 	ldw	r2,-25800(gp)
     a48:	1009883a 	mov	r4,r2
     a4c:	0007ed40 	call	7ed4 <OSSemPost>


		//printf("Hello from task2\n");
		OSTimeDlyHMSM(0,0,0,125);
     a50:	01c01f44 	movi	r7,125
     a54:	000d883a 	mov	r6,zero
     a58:	000b883a 	mov	r5,zero
     a5c:	0009883a 	mov	r4,zero
     a60:	0009a5c0 	call	9a5c <OSTimeDlyHMSM>
		OSSemPend(Engine_Sem, 0, &err);
     a64:	003f9506 	br	8bc <engine_task+0x14>

00000a68 <vehicle_task>:
	}
}

void vehicle_task(void *pdata)
{
     a68:	defffc04 	addi	sp,sp,-16
     a6c:	dfc00315 	stw	ra,12(sp)
     a70:	df000215 	stw	fp,8(sp)
     a74:	df000204 	addi	fp,sp,8
     a78:	e13ffe15 	stw	r4,-8(fp)
	INT8U err;
	while(1)
	{
		OSSemPend(Engine_Sem, 0, &err);
     a7c:	d0a6d017 	ldw	r2,-25792(gp)
     a80:	e0ffffc4 	addi	r3,fp,-1
     a84:	180d883a 	mov	r6,r3
     a88:	000b883a 	mov	r5,zero
     a8c:	1009883a 	mov	r4,r2
     a90:	0007b4c0 	call	7b4c <OSSemPend>
		OSSemPend(Brake_Pedal_Sem, 0, &err);
     a94:	d0a6ce17 	ldw	r2,-25800(gp)
     a98:	e0ffffc4 	addi	r3,fp,-1
     a9c:	180d883a 	mov	r6,r3
     aa0:	000b883a 	mov	r5,zero
     aa4:	1009883a 	mov	r4,r2
     aa8:	0007b4c0 	call	7b4c <OSSemPend>
		OSSemPend(Speed_Sem,0, &err);
     aac:	d0a6d417 	ldw	r2,-25776(gp)
     ab0:	e0ffffc4 	addi	r3,fp,-1
     ab4:	180d883a 	mov	r6,r3
     ab8:	000b883a 	mov	r5,zero
     abc:	1009883a 	mov	r4,r2
     ac0:	0007b4c0 	call	7b4c <OSSemPend>
		OSSemPend(Accel_Pedal_Sem, 0, &err);
     ac4:	d0a6d217 	ldw	r2,-25784(gp)
     ac8:	e0ffffc4 	addi	r3,fp,-1
     acc:	180d883a 	mov	r6,r3
     ad0:	000b883a 	mov	r5,zero
     ad4:	1009883a 	mov	r4,r2
     ad8:	0007b4c0 	call	7b4c <OSSemPend>
		OSSemPend(Drive_Neutral_Sem, 0, &err);
     adc:	d0a6d517 	ldw	r2,-25772(gp)
     ae0:	e0ffffc4 	addi	r3,fp,-1
     ae4:	180d883a 	mov	r6,r3
     ae8:	000b883a 	mov	r5,zero
     aec:	1009883a 	mov	r4,r2
     af0:	0007b4c0 	call	7b4c <OSSemPend>

		if (engine == ON){
     af4:	d0a6bc17 	ldw	r2,-25872(gp)
     af8:	10800058 	cmpnei	r2,r2,1
     afc:	10004a1e 	bne	r2,zero,c28 <vehicle_task+0x1c0>

			//do vehicle task
			if((brake_pedal == ON)){
     b00:	d0a6c117 	ldw	r2,-25852(gp)
     b04:	10800058 	cmpnei	r2,r2,1
     b08:	10000e1e 	bne	r2,zero,b44 <vehicle_task+0xdc>
				acceleration = -6;
     b0c:	d026b815 	stw	zero,-25888(gp)
     b10:	00b00634 	movhi	r2,49176
     b14:	d0a6b915 	stw	r2,-25884(gp)
				if(speed <= 0){
     b18:	d0a6b417 	ldw	r2,-25904(gp)
     b1c:	d0e6b517 	ldw	r3,-25900(gp)
     b20:	000d883a 	mov	r6,zero
     b24:	000f883a 	mov	r7,zero
     b28:	1009883a 	mov	r4,r2
     b2c:	180b883a 	mov	r5,r3
     b30:	00017100 	call	1710 <__ledf2>
     b34:	00801716 	blt	zero,r2,b94 <vehicle_task+0x12c>
					acceleration = 0;
     b38:	d026b815 	stw	zero,-25888(gp)
     b3c:	d026b915 	stw	zero,-25884(gp)
     b40:	00001406 	br	b94 <vehicle_task+0x12c>
				}

			}
			else if((accel_pedal == ON) && (brake_pedal == OFF)){
     b44:	d0a6c217 	ldw	r2,-25848(gp)
     b48:	10800058 	cmpnei	r2,r2,1
     b4c:	10000f1e 	bne	r2,zero,b8c <vehicle_task+0x124>
     b50:	d0a6c117 	ldw	r2,-25852(gp)
     b54:	10000d1e 	bne	r2,zero,b8c <vehicle_task+0x124>
				acceleration = 0.5*throttle;
     b58:	d0a6bb17 	ldw	r2,-25876(gp)
     b5c:	1009883a 	mov	r4,r2
     b60:	0000c7c0 	call	c7c <__floatsisf>
     b64:	1007883a 	mov	r3,r2
     b68:	008fc034 	movhi	r2,16128
     b6c:	1885ff32 	custom	252,r2,r3,r2
     b70:	1009883a 	mov	r4,r2
     b74:	0001eec0 	call	1eec <__extendsfdf2>
     b78:	1009883a 	mov	r4,r2
     b7c:	180b883a 	mov	r5,r3
     b80:	d126b815 	stw	r4,-25888(gp)
     b84:	d166b915 	stw	r5,-25884(gp)
     b88:	00000206 	br	b94 <vehicle_task+0x12c>
			}
			else{
				acceleration = 0;
     b8c:	d026b815 	stw	zero,-25888(gp)
     b90:	d026b915 	stw	zero,-25884(gp)
			}
			// calculate speed
			if (drive_neutral == ON){// && (engine == ON)){
     b94:	d0a6bf17 	ldw	r2,-25860(gp)
     b98:	10800058 	cmpnei	r2,r2,1
     b9c:	1000181e 	bne	r2,zero,c00 <vehicle_task+0x198>

			   speed = speed + acceleration *0.125; // 0.0015 because it updates every 1.5 ms
     ba0:	d0a6b817 	ldw	r2,-25888(gp)
     ba4:	d0e6b917 	ldw	r3,-25884(gp)
     ba8:	000d883a 	mov	r6,zero
     bac:	01cff034 	movhi	r7,16320
     bb0:	1009883a 	mov	r4,r2
     bb4:	180b883a 	mov	r5,r3
     bb8:	00017f80 	call	17f8 <__muldf3>
     bbc:	1009883a 	mov	r4,r2
     bc0:	180b883a 	mov	r5,r3
     bc4:	2011883a 	mov	r8,r4
     bc8:	2813883a 	mov	r9,r5
     bcc:	d0a6b417 	ldw	r2,-25904(gp)
     bd0:	d0e6b517 	ldw	r3,-25900(gp)
     bd4:	100d883a 	mov	r6,r2
     bd8:	180f883a 	mov	r7,r3
     bdc:	4009883a 	mov	r4,r8
     be0:	480b883a 	mov	r5,r9
     be4:	0000da00 	call	da0 <__adddf3>
     be8:	1009883a 	mov	r4,r2
     bec:	180b883a 	mov	r5,r3
     bf0:	2005883a 	mov	r2,r4
     bf4:	2807883a 	mov	r3,r5
     bf8:	d0a6b415 	stw	r2,-25904(gp)
     bfc:	d0e6b515 	stw	r3,-25900(gp)
			   //printf("%f\n", speed);
			   //calculate = OFF;
			   //speed_timer = 0;
			}

			if (speed < 0){
     c00:	d0a6b417 	ldw	r2,-25904(gp)
     c04:	d0e6b517 	ldw	r3,-25900(gp)
     c08:	000d883a 	mov	r6,zero
     c0c:	000f883a 	mov	r7,zero
     c10:	1009883a 	mov	r4,r2
     c14:	180b883a 	mov	r5,r3
     c18:	00017100 	call	1710 <__ledf2>
     c1c:	1000020e 	bge	r2,zero,c28 <vehicle_task+0x1c0>
				speed = 0;
     c20:	d026b415 	stw	zero,-25904(gp)
     c24:	d026b515 	stw	zero,-25900(gp)
			}
		}

		OSSemPost(Engine_Sem);
     c28:	d0a6d017 	ldw	r2,-25792(gp)
     c2c:	1009883a 	mov	r4,r2
     c30:	0007ed40 	call	7ed4 <OSSemPost>
		OSSemPost(Brake_Pedal_Sem);
     c34:	d0a6ce17 	ldw	r2,-25800(gp)
     c38:	1009883a 	mov	r4,r2
     c3c:	0007ed40 	call	7ed4 <OSSemPost>
		OSSemPost(Speed_Sem);
     c40:	d0a6d417 	ldw	r2,-25776(gp)
     c44:	1009883a 	mov	r4,r2
     c48:	0007ed40 	call	7ed4 <OSSemPost>
		OSSemPost(Accel_Pedal_Sem);
     c4c:	d0a6d217 	ldw	r2,-25784(gp)
     c50:	1009883a 	mov	r4,r2
     c54:	0007ed40 	call	7ed4 <OSSemPost>
		OSSemPost(Drive_Neutral_Sem);
     c58:	d0a6d517 	ldw	r2,-25772(gp)
     c5c:	1009883a 	mov	r4,r2
     c60:	0007ed40 	call	7ed4 <OSSemPost>
	    //printf("Hello from task3\n");
		OSTimeDlyHMSM(0,0,0,125);
     c64:	01c01f44 	movi	r7,125
     c68:	000d883a 	mov	r6,zero
     c6c:	000b883a 	mov	r5,zero
     c70:	0009883a 	mov	r4,zero
     c74:	0009a5c0 	call	9a5c <OSTimeDlyHMSM>
		OSSemPend(Engine_Sem, 0, &err);
     c78:	003f8006 	br	a7c <vehicle_task+0x14>

00000c7c <__floatsisf>:
     c7c:	defffd04 	addi	sp,sp,-12
     c80:	dfc00215 	stw	ra,8(sp)
     c84:	dc400115 	stw	r17,4(sp)
     c88:	dc000015 	stw	r16,0(sp)
     c8c:	20001226 	beq	r4,zero,cd8 <__floatsisf+0x5c>
     c90:	2022d7fa 	srli	r17,r4,31
     c94:	2021883a 	mov	r16,r4
     c98:	20003816 	blt	r4,zero,d7c <__floatsisf+0x100>
     c9c:	8009883a 	mov	r4,r16
     ca0:	0001fe80 	call	1fe8 <__clzsi2>
     ca4:	1009883a 	mov	r4,r2
     ca8:	00802784 	movi	r2,158
     cac:	1105c83a 	sub	r2,r2,r4
     cb0:	10c025c8 	cmpgei	r3,r2,151
     cb4:	1800151e 	bne	r3,zero,d0c <__floatsisf+0x90>
     cb8:	20c00248 	cmpgei	r3,r4,9
     cbc:	18003126 	beq	r3,zero,d84 <__floatsisf+0x108>
     cc0:	213ffe04 	addi	r4,r4,-8
     cc4:	8120983a 	sll	r16,r16,r4
     cc8:	00c02034 	movhi	r3,128
     ccc:	18ffffc4 	addi	r3,r3,-1
     cd0:	80e0703a 	and	r16,r16,r3
     cd4:	00000306 	br	ce4 <__floatsisf+0x68>
     cd8:	0023883a 	mov	r17,zero
     cdc:	0005883a 	mov	r2,zero
     ce0:	0021883a 	mov	r16,zero
     ce4:	10803fcc 	andi	r2,r2,255
     ce8:	100495fa 	slli	r2,r2,23
     cec:	882297fa 	slli	r17,r17,31
     cf0:	1404b03a 	or	r2,r2,r16
     cf4:	1444b03a 	or	r2,r2,r17
     cf8:	dfc00217 	ldw	ra,8(sp)
     cfc:	dc400117 	ldw	r17,4(sp)
     d00:	dc000017 	ldw	r16,0(sp)
     d04:	dec00304 	addi	sp,sp,12
     d08:	f800283a 	ret
     d0c:	10c02690 	cmplti	r3,r2,154
     d10:	1800071e 	bne	r3,zero,d30 <__floatsisf+0xb4>
     d14:	20c006c4 	addi	r3,r4,27
     d18:	01400144 	movi	r5,5
     d1c:	80c6983a 	sll	r3,r16,r3
     d20:	290bc83a 	sub	r5,r5,r4
     d24:	814ad83a 	srl	r5,r16,r5
     d28:	1806c03a 	cmpne	r3,r3,zero
     d2c:	28e0b03a 	or	r16,r5,r3
     d30:	20c00188 	cmpgei	r3,r4,6
     d34:	1800171e 	bne	r3,zero,d94 <__floatsisf+0x118>
     d38:	00ff0034 	movhi	r3,64512
     d3c:	18ffffc4 	addi	r3,r3,-1
     d40:	818001cc 	andi	r6,r16,7
     d44:	80ca703a 	and	r5,r16,r3
     d48:	30000926 	beq	r6,zero,d70 <__floatsisf+0xf4>
     d4c:	818003cc 	andi	r6,r16,15
     d50:	31800120 	cmpeqi	r6,r6,4
     d54:	3000061e 	bne	r6,zero,d70 <__floatsisf+0xf4>
     d58:	29400104 	addi	r5,r5,4
     d5c:	2981002c 	andhi	r6,r5,1024
     d60:	30000326 	beq	r6,zero,d70 <__floatsisf+0xf4>
     d64:	28ca703a 	and	r5,r5,r3
     d68:	00c027c4 	movi	r3,159
     d6c:	1905c83a 	sub	r2,r3,r4
     d70:	282091ba 	slli	r16,r5,6
     d74:	8020d27a 	srli	r16,r16,9
     d78:	003fda06 	br	ce4 <__floatsisf+0x68>
     d7c:	0121c83a 	sub	r16,zero,r4
     d80:	003fc606 	br	c9c <__floatsisf+0x20>
     d84:	01002034 	movhi	r4,128
     d88:	213fffc4 	addi	r4,r4,-1
     d8c:	8120703a 	and	r16,r16,r4
     d90:	003fd406 	br	ce4 <__floatsisf+0x68>
     d94:	20fffec4 	addi	r3,r4,-5
     d98:	80e0983a 	sll	r16,r16,r3
     d9c:	003fe606 	br	d38 <__floatsisf+0xbc>

00000da0 <__adddf3>:
     da0:	02000434 	movhi	r8,16
     da4:	423fffc4 	addi	r8,r8,-1
     da8:	2806d53a 	srli	r3,r5,20
     dac:	3804d53a 	srli	r2,r7,20
     db0:	2a14703a 	and	r10,r5,r8
     db4:	3a12703a 	and	r9,r7,r8
     db8:	280ad7fa 	srli	r5,r5,31
     dbc:	501490fa 	slli	r10,r10,3
     dc0:	2018d77a 	srli	r12,r4,29
     dc4:	481290fa 	slli	r9,r9,3
     dc8:	3016d77a 	srli	r11,r6,29
     dcc:	380ed7fa 	srli	r7,r7,31
     dd0:	defffb04 	addi	sp,sp,-20
     dd4:	dc800215 	stw	r18,8(sp)
     dd8:	dc000015 	stw	r16,0(sp)
     ddc:	1c81ffcc 	andi	r18,r3,2047
     de0:	1081ffcc 	andi	r2,r2,2047
     de4:	dfc00415 	stw	ra,16(sp)
     de8:	dcc00315 	stw	r19,12(sp)
     dec:	dc400115 	stw	r17,4(sp)
     df0:	201c90fa 	slli	r14,r4,3
     df4:	301a90fa 	slli	r13,r6,3
     df8:	2821883a 	mov	r16,r5
     dfc:	6294b03a 	or	r10,r12,r10
     e00:	5a52b03a 	or	r9,r11,r9
     e04:	9087c83a 	sub	r3,r18,r2
     e08:	29c06126 	beq	r5,r7,f90 <__adddf3+0x1f0>
     e0c:	00c0550e 	bge	zero,r3,f64 <__adddf3+0x1c4>
     e10:	10007326 	beq	r2,zero,fe0 <__adddf3+0x240>
     e14:	9081ffd8 	cmpnei	r2,r18,2047
     e18:	1000bd26 	beq	r2,zero,1110 <__adddf3+0x370>
     e1c:	4a402034 	orhi	r9,r9,128
     e20:	18800e48 	cmpgei	r2,r3,57
     e24:	1000ef1e 	bne	r2,zero,11e4 <__adddf3+0x444>
     e28:	18800808 	cmpgei	r2,r3,32
     e2c:	1001321e 	bne	r2,zero,12f8 <__adddf3+0x558>
     e30:	00800804 	movi	r2,32
     e34:	10c5c83a 	sub	r2,r2,r3
     e38:	68c8d83a 	srl	r4,r13,r3
     e3c:	48a2983a 	sll	r17,r9,r2
     e40:	689a983a 	sll	r13,r13,r2
     e44:	48c6d83a 	srl	r3,r9,r3
     e48:	8922b03a 	or	r17,r17,r4
     e4c:	681ac03a 	cmpne	r13,r13,zero
     e50:	8b62b03a 	or	r17,r17,r13
     e54:	50d5c83a 	sub	r10,r10,r3
     e58:	7463c83a 	sub	r17,r14,r17
     e5c:	7451803a 	cmpltu	r8,r14,r17
     e60:	5211c83a 	sub	r8,r10,r8
     e64:	4080202c 	andhi	r2,r8,128
     e68:	10008d26 	beq	r2,zero,10a0 <__adddf3+0x300>
     e6c:	02402034 	movhi	r9,128
     e70:	4a7fffc4 	addi	r9,r9,-1
     e74:	4266703a 	and	r19,r8,r9
     e78:	9800b326 	beq	r19,zero,1148 <__adddf3+0x3a8>
     e7c:	9809883a 	mov	r4,r19
     e80:	0001fe80 	call	1fe8 <__clzsi2>
     e84:	10fffe04 	addi	r3,r2,-8
     e88:	02000804 	movi	r8,32
     e8c:	40d1c83a 	sub	r8,r8,r3
     e90:	8a10d83a 	srl	r8,r17,r8
     e94:	98d2983a 	sll	r9,r19,r3
     e98:	88e2983a 	sll	r17,r17,r3
     e9c:	4250b03a 	or	r8,r8,r9
     ea0:	1c80b216 	blt	r3,r18,116c <__adddf3+0x3cc>
     ea4:	1c87c83a 	sub	r3,r3,r18
     ea8:	19000044 	addi	r4,r3,1
     eac:	20800808 	cmpgei	r2,r4,32
     eb0:	10006f1e 	bne	r2,zero,1070 <__adddf3+0x2d0>
     eb4:	00800804 	movi	r2,32
     eb8:	1105c83a 	sub	r2,r2,r4
     ebc:	8906d83a 	srl	r3,r17,r4
     ec0:	88a2983a 	sll	r17,r17,r2
     ec4:	4084983a 	sll	r2,r8,r2
     ec8:	4110d83a 	srl	r8,r8,r4
     ecc:	8822c03a 	cmpne	r17,r17,zero
     ed0:	10c4b03a 	or	r2,r2,r3
     ed4:	1462b03a 	or	r17,r2,r17
     ed8:	0025883a 	mov	r18,zero
     edc:	888001cc 	andi	r2,r17,7
     ee0:	10000726 	beq	r2,zero,f00 <__adddf3+0x160>
     ee4:	888003cc 	andi	r2,r17,15
     ee8:	10800120 	cmpeqi	r2,r2,4
     eec:	1000041e 	bne	r2,zero,f00 <__adddf3+0x160>
     ef0:	88c00104 	addi	r3,r17,4
     ef4:	1c63803a 	cmpltu	r17,r3,r17
     ef8:	4451883a 	add	r8,r8,r17
     efc:	1823883a 	mov	r17,r3
     f00:	4080202c 	andhi	r2,r8,128
     f04:	10006826 	beq	r2,zero,10a8 <__adddf3+0x308>
     f08:	90c00044 	addi	r3,r18,1
     f0c:	1881ffe0 	cmpeqi	r2,r3,2047
     f10:	18c1ffcc 	andi	r3,r3,2047
     f14:	10007a1e 	bne	r2,zero,1100 <__adddf3+0x360>
     f18:	00bfe034 	movhi	r2,65408
     f1c:	10bfffc4 	addi	r2,r2,-1
     f20:	4090703a 	and	r8,r8,r2
     f24:	4004977a 	slli	r2,r8,29
     f28:	4010927a 	slli	r8,r8,9
     f2c:	8822d0fa 	srli	r17,r17,3
     f30:	4010d33a 	srli	r8,r8,12
     f34:	1444b03a 	or	r2,r2,r17
     f38:	1806953a 	slli	r3,r3,20
     f3c:	802097fa 	slli	r16,r16,31
     f40:	1a06b03a 	or	r3,r3,r8
     f44:	1c06b03a 	or	r3,r3,r16
     f48:	dfc00417 	ldw	ra,16(sp)
     f4c:	dcc00317 	ldw	r19,12(sp)
     f50:	dc800217 	ldw	r18,8(sp)
     f54:	dc400117 	ldw	r17,4(sp)
     f58:	dc000017 	ldw	r16,0(sp)
     f5c:	dec00504 	addi	sp,sp,20
     f60:	f800283a 	ret
     f64:	18002626 	beq	r3,zero,1000 <__adddf3+0x260>
     f68:	1487c83a 	sub	r3,r2,r18
     f6c:	9000ba1e 	bne	r18,zero,1258 <__adddf3+0x4b8>
     f70:	5388b03a 	or	r4,r10,r14
     f74:	20011826 	beq	r4,zero,13d8 <__adddf3+0x638>
     f78:	193fffc4 	addi	r4,r3,-1
     f7c:	20015726 	beq	r4,zero,14dc <__adddf3+0x73c>
     f80:	18c1ffd8 	cmpnei	r3,r3,2047
     f84:	18013026 	beq	r3,zero,1448 <__adddf3+0x6a8>
     f88:	2007883a 	mov	r3,r4
     f8c:	0000b506 	br	1264 <__adddf3+0x4c4>
     f90:	00c07b0e 	bge	zero,r3,1180 <__adddf3+0x3e0>
     f94:	10002e26 	beq	r2,zero,1050 <__adddf3+0x2b0>
     f98:	9081ffd8 	cmpnei	r2,r18,2047
     f9c:	10005c26 	beq	r2,zero,1110 <__adddf3+0x370>
     fa0:	4a402034 	orhi	r9,r9,128
     fa4:	18800e48 	cmpgei	r2,r3,57
     fa8:	10004b1e 	bne	r2,zero,10d8 <__adddf3+0x338>
     fac:	18800808 	cmpgei	r2,r3,32
     fb0:	1000ec26 	beq	r2,zero,1364 <__adddf3+0x5c4>
     fb4:	1c7ff804 	addi	r17,r3,-32
     fb8:	19000820 	cmpeqi	r4,r3,32
     fbc:	4c44d83a 	srl	r2,r9,r17
     fc0:	2000041e 	bne	r4,zero,fd4 <__adddf3+0x234>
     fc4:	01001004 	movi	r4,64
     fc8:	20c7c83a 	sub	r3,r4,r3
     fcc:	48d2983a 	sll	r9,r9,r3
     fd0:	6a5ab03a 	or	r13,r13,r9
     fd4:	6822c03a 	cmpne	r17,r13,zero
     fd8:	88a2b03a 	or	r17,r17,r2
     fdc:	00004006 	br	10e0 <__adddf3+0x340>
     fe0:	4b44b03a 	or	r2,r9,r13
     fe4:	10008226 	beq	r2,zero,11f0 <__adddf3+0x450>
     fe8:	18bfffc4 	addi	r2,r3,-1
     fec:	10011026 	beq	r2,zero,1430 <__adddf3+0x690>
     ff0:	18c1ffd8 	cmpnei	r3,r3,2047
     ff4:	18004626 	beq	r3,zero,1110 <__adddf3+0x370>
     ff8:	1007883a 	mov	r3,r2
     ffc:	003f8806 	br	e20 <__adddf3+0x80>
    1000:	90800044 	addi	r2,r18,1
    1004:	1081ff8c 	andi	r2,r2,2046
    1008:	1000a51e 	bne	r2,zero,12a0 <__adddf3+0x500>
    100c:	538ab03a 	or	r5,r10,r14
    1010:	4b44b03a 	or	r2,r9,r13
    1014:	9000f81e 	bne	r18,zero,13f8 <__adddf3+0x658>
    1018:	28013726 	beq	r5,zero,14f8 <__adddf3+0x758>
    101c:	10011226 	beq	r2,zero,1468 <__adddf3+0x6c8>
    1020:	7363c83a 	sub	r17,r14,r13
    1024:	7445803a 	cmpltu	r2,r14,r17
    1028:	5251c83a 	sub	r8,r10,r9
    102c:	4091c83a 	sub	r8,r8,r2
    1030:	4080202c 	andhi	r2,r8,128
    1034:	10018f26 	beq	r2,zero,1674 <__adddf3+0x8d4>
    1038:	6ba3c83a 	sub	r17,r13,r14
    103c:	4a95c83a 	sub	r10,r9,r10
    1040:	6c51803a 	cmpltu	r8,r13,r17
    1044:	5211c83a 	sub	r8,r10,r8
    1048:	3821883a 	mov	r16,r7
    104c:	003fa306 	br	edc <__adddf3+0x13c>
    1050:	4b44b03a 	or	r2,r9,r13
    1054:	10006626 	beq	r2,zero,11f0 <__adddf3+0x450>
    1058:	18bfffc4 	addi	r2,r3,-1
    105c:	1000ec26 	beq	r2,zero,1410 <__adddf3+0x670>
    1060:	18c1ffd8 	cmpnei	r3,r3,2047
    1064:	18012d26 	beq	r3,zero,151c <__adddf3+0x77c>
    1068:	1007883a 	mov	r3,r2
    106c:	003fcd06 	br	fa4 <__adddf3+0x204>
    1070:	18fff844 	addi	r3,r3,-31
    1074:	20800820 	cmpeqi	r2,r4,32
    1078:	40c6d83a 	srl	r3,r8,r3
    107c:	1000041e 	bne	r2,zero,1090 <__adddf3+0x2f0>
    1080:	00801004 	movi	r2,64
    1084:	1109c83a 	sub	r4,r2,r4
    1088:	4110983a 	sll	r8,r8,r4
    108c:	8a22b03a 	or	r17,r17,r8
    1090:	8822c03a 	cmpne	r17,r17,zero
    1094:	88e2b03a 	or	r17,r17,r3
    1098:	0011883a 	mov	r8,zero
    109c:	0025883a 	mov	r18,zero
    10a0:	888001cc 	andi	r2,r17,7
    10a4:	103f8f1e 	bne	r2,zero,ee4 <__adddf3+0x144>
    10a8:	8822d0fa 	srli	r17,r17,3
    10ac:	4004977a 	slli	r2,r8,29
    10b0:	4014d0fa 	srli	r10,r8,3
    10b4:	9007883a 	mov	r3,r18
    10b8:	8884b03a 	or	r2,r17,r2
    10bc:	1901ffe0 	cmpeqi	r4,r3,2047
    10c0:	2000191e 	bne	r4,zero,1128 <__adddf3+0x388>
    10c4:	02000434 	movhi	r8,16
    10c8:	423fffc4 	addi	r8,r8,-1
    10cc:	5210703a 	and	r8,r10,r8
    10d0:	18c1ffcc 	andi	r3,r3,2047
    10d4:	003f9806 	br	f38 <__adddf3+0x198>
    10d8:	4b62b03a 	or	r17,r9,r13
    10dc:	8822c03a 	cmpne	r17,r17,zero
    10e0:	8ba3883a 	add	r17,r17,r14
    10e4:	8b91803a 	cmpltu	r8,r17,r14
    10e8:	4291883a 	add	r8,r8,r10
    10ec:	4080202c 	andhi	r2,r8,128
    10f0:	103feb26 	beq	r2,zero,10a0 <__adddf3+0x300>
    10f4:	94800044 	addi	r18,r18,1
    10f8:	9081ffe0 	cmpeqi	r2,r18,2047
    10fc:	10007426 	beq	r2,zero,12d0 <__adddf3+0x530>
    1100:	00c1ffc4 	movi	r3,2047
    1104:	0011883a 	mov	r8,zero
    1108:	0005883a 	mov	r2,zero
    110c:	003f8a06 	br	f38 <__adddf3+0x198>
    1110:	500a977a 	slli	r5,r10,29
    1114:	00c80034 	movhi	r3,8192
    1118:	18ffffc4 	addi	r3,r3,-1
    111c:	5014d0fa 	srli	r10,r10,3
    1120:	20c4703a 	and	r2,r4,r3
    1124:	1144b03a 	or	r2,r2,r5
    1128:	1286b03a 	or	r3,r2,r10
    112c:	18015426 	beq	r3,zero,1680 <__adddf3+0x8e0>
    1130:	00c00434 	movhi	r3,16
    1134:	18ffffc4 	addi	r3,r3,-1
    1138:	52000234 	orhi	r8,r10,8
    113c:	40d0703a 	and	r8,r8,r3
    1140:	00c1ffc4 	movi	r3,2047
    1144:	003f7c06 	br	f38 <__adddf3+0x198>
    1148:	8809883a 	mov	r4,r17
    114c:	0001fe80 	call	1fe8 <__clzsi2>
    1150:	10c00604 	addi	r3,r2,24
    1154:	19000808 	cmpgei	r4,r3,32
    1158:	203f4b26 	beq	r4,zero,e88 <__adddf3+0xe8>
    115c:	123ffe04 	addi	r8,r2,-8
    1160:	8a10983a 	sll	r8,r17,r8
    1164:	0023883a 	mov	r17,zero
    1168:	1cbf4e0e 	bge	r3,r18,ea4 <__adddf3+0x104>
    116c:	00bfe034 	movhi	r2,65408
    1170:	10bfffc4 	addi	r2,r2,-1
    1174:	90e5c83a 	sub	r18,r18,r3
    1178:	4090703a 	and	r8,r8,r2
    117c:	003f5706 	br	edc <__adddf3+0x13c>
    1180:	18002226 	beq	r3,zero,120c <__adddf3+0x46c>
    1184:	1487c83a 	sub	r3,r2,r18
    1188:	90006e26 	beq	r18,zero,1344 <__adddf3+0x5a4>
    118c:	1101ffd8 	cmpnei	r4,r2,2047
    1190:	2000e926 	beq	r4,zero,1538 <__adddf3+0x798>
    1194:	52802034 	orhi	r10,r10,128
    1198:	19000e48 	cmpgei	r4,r3,57
    119c:	2000b91e 	bne	r4,zero,1484 <__adddf3+0x6e4>
    11a0:	19000808 	cmpgei	r4,r3,32
    11a4:	2001101e 	bne	r4,zero,15e8 <__adddf3+0x848>
    11a8:	01000804 	movi	r4,32
    11ac:	20c9c83a 	sub	r4,r4,r3
    11b0:	5122983a 	sll	r17,r10,r4
    11b4:	70cad83a 	srl	r5,r14,r3
    11b8:	7108983a 	sll	r4,r14,r4
    11bc:	50d4d83a 	srl	r10,r10,r3
    11c0:	8962b03a 	or	r17,r17,r5
    11c4:	2008c03a 	cmpne	r4,r4,zero
    11c8:	8922b03a 	or	r17,r17,r4
    11cc:	4a93883a 	add	r9,r9,r10
    11d0:	8b63883a 	add	r17,r17,r13
    11d4:	8b51803a 	cmpltu	r8,r17,r13
    11d8:	4251883a 	add	r8,r8,r9
    11dc:	1025883a 	mov	r18,r2
    11e0:	003fc206 	br	10ec <__adddf3+0x34c>
    11e4:	4b62b03a 	or	r17,r9,r13
    11e8:	8822c03a 	cmpne	r17,r17,zero
    11ec:	003f1a06 	br	e58 <__adddf3+0xb8>
    11f0:	500c977a 	slli	r6,r10,29
    11f4:	01480034 	movhi	r5,8192
    11f8:	297fffc4 	addi	r5,r5,-1
    11fc:	2144703a 	and	r2,r4,r5
    1200:	5014d0fa 	srli	r10,r10,3
    1204:	1184b03a 	or	r2,r2,r6
    1208:	003fac06 	br	10bc <__adddf3+0x31c>
    120c:	90800044 	addi	r2,r18,1
    1210:	1141ff8c 	andi	r5,r2,2046
    1214:	28005e1e 	bne	r5,zero,1390 <__adddf3+0x5f0>
    1218:	5384b03a 	or	r2,r10,r14
    121c:	9000a71e 	bne	r18,zero,14bc <__adddf3+0x71c>
    1220:	1000e526 	beq	r2,zero,15b8 <__adddf3+0x818>
    1224:	4b44b03a 	or	r2,r9,r13
    1228:	10008f26 	beq	r2,zero,1468 <__adddf3+0x6c8>
    122c:	7363883a 	add	r17,r14,r13
    1230:	5255883a 	add	r10,r10,r9
    1234:	8b91803a 	cmpltu	r8,r17,r14
    1238:	5211883a 	add	r8,r10,r8
    123c:	4080202c 	andhi	r2,r8,128
    1240:	103f9726 	beq	r2,zero,10a0 <__adddf3+0x300>
    1244:	00bfe034 	movhi	r2,65408
    1248:	10bfffc4 	addi	r2,r2,-1
    124c:	4090703a 	and	r8,r8,r2
    1250:	04800044 	movi	r18,1
    1254:	003f9206 	br	10a0 <__adddf3+0x300>
    1258:	1101ffd8 	cmpnei	r4,r2,2047
    125c:	20007a26 	beq	r4,zero,1448 <__adddf3+0x6a8>
    1260:	52802034 	orhi	r10,r10,128
    1264:	19000e48 	cmpgei	r4,r3,57
    1268:	20002e1e 	bne	r4,zero,1324 <__adddf3+0x584>
    126c:	19000808 	cmpgei	r4,r3,32
    1270:	2000871e 	bne	r4,zero,1490 <__adddf3+0x6f0>
    1274:	01000804 	movi	r4,32
    1278:	20c9c83a 	sub	r4,r4,r3
    127c:	5122983a 	sll	r17,r10,r4
    1280:	70cad83a 	srl	r5,r14,r3
    1284:	711c983a 	sll	r14,r14,r4
    1288:	50d4d83a 	srl	r10,r10,r3
    128c:	8962b03a 	or	r17,r17,r5
    1290:	701cc03a 	cmpne	r14,r14,zero
    1294:	8ba2b03a 	or	r17,r17,r14
    1298:	4a93c83a 	sub	r9,r9,r10
    129c:	00002306 	br	132c <__adddf3+0x58c>
    12a0:	7363c83a 	sub	r17,r14,r13
    12a4:	5267c83a 	sub	r19,r10,r9
    12a8:	7451803a 	cmpltu	r8,r14,r17
    12ac:	9a27c83a 	sub	r19,r19,r8
    12b0:	9880202c 	andhi	r2,r19,128
    12b4:	1000421e 	bne	r2,zero,13c0 <__adddf3+0x620>
    12b8:	8cc4b03a 	or	r2,r17,r19
    12bc:	103eee1e 	bne	r2,zero,e78 <__adddf3+0xd8>
    12c0:	0015883a 	mov	r10,zero
    12c4:	0021883a 	mov	r16,zero
    12c8:	003f7e06 	br	10c4 <__adddf3+0x324>
    12cc:	04800084 	movi	r18,2
    12d0:	00bfe034 	movhi	r2,65408
    12d4:	10bfffc4 	addi	r2,r2,-1
    12d8:	8806d07a 	srli	r3,r17,1
    12dc:	4090703a 	and	r8,r8,r2
    12e0:	400497fa 	slli	r2,r8,31
    12e4:	8c40004c 	andi	r17,r17,1
    12e8:	1c62b03a 	or	r17,r3,r17
    12ec:	4010d07a 	srli	r8,r8,1
    12f0:	1462b03a 	or	r17,r2,r17
    12f4:	003ef906 	br	edc <__adddf3+0x13c>
    12f8:	1c7ff804 	addi	r17,r3,-32
    12fc:	19000820 	cmpeqi	r4,r3,32
    1300:	4c44d83a 	srl	r2,r9,r17
    1304:	2000041e 	bne	r4,zero,1318 <__adddf3+0x578>
    1308:	01001004 	movi	r4,64
    130c:	20c7c83a 	sub	r3,r4,r3
    1310:	48d2983a 	sll	r9,r9,r3
    1314:	6a5ab03a 	or	r13,r13,r9
    1318:	6822c03a 	cmpne	r17,r13,zero
    131c:	88a2b03a 	or	r17,r17,r2
    1320:	003ecd06 	br	e58 <__adddf3+0xb8>
    1324:	5394b03a 	or	r10,r10,r14
    1328:	5022c03a 	cmpne	r17,r10,zero
    132c:	6c63c83a 	sub	r17,r13,r17
    1330:	6c51803a 	cmpltu	r8,r13,r17
    1334:	4a11c83a 	sub	r8,r9,r8
    1338:	3821883a 	mov	r16,r7
    133c:	1025883a 	mov	r18,r2
    1340:	003ec806 	br	e64 <__adddf3+0xc4>
    1344:	5388b03a 	or	r4,r10,r14
    1348:	20008226 	beq	r4,zero,1554 <__adddf3+0x7b4>
    134c:	193fffc4 	addi	r4,r3,-1
    1350:	2000b026 	beq	r4,zero,1614 <__adddf3+0x874>
    1354:	18c1ffd8 	cmpnei	r3,r3,2047
    1358:	18007726 	beq	r3,zero,1538 <__adddf3+0x798>
    135c:	2007883a 	mov	r3,r4
    1360:	003f8d06 	br	1198 <__adddf3+0x3f8>
    1364:	00800804 	movi	r2,32
    1368:	10c5c83a 	sub	r2,r2,r3
    136c:	68c8d83a 	srl	r4,r13,r3
    1370:	48a2983a 	sll	r17,r9,r2
    1374:	689a983a 	sll	r13,r13,r2
    1378:	48c6d83a 	srl	r3,r9,r3
    137c:	8922b03a 	or	r17,r17,r4
    1380:	681ac03a 	cmpne	r13,r13,zero
    1384:	8b62b03a 	or	r17,r17,r13
    1388:	50d5883a 	add	r10,r10,r3
    138c:	003f5406 	br	10e0 <__adddf3+0x340>
    1390:	10c1ffe0 	cmpeqi	r3,r2,2047
    1394:	183f5a1e 	bne	r3,zero,1100 <__adddf3+0x360>
    1398:	7351883a 	add	r8,r14,r13
    139c:	4387803a 	cmpltu	r3,r8,r14
    13a0:	5255883a 	add	r10,r10,r9
    13a4:	50c7883a 	add	r3,r10,r3
    13a8:	401ad07a 	srli	r13,r8,1
    13ac:	182297fa 	slli	r17,r3,31
    13b0:	1810d07a 	srli	r8,r3,1
    13b4:	1025883a 	mov	r18,r2
    13b8:	8b62b03a 	or	r17,r17,r13
    13bc:	003f3806 	br	10a0 <__adddf3+0x300>
    13c0:	6ba3c83a 	sub	r17,r13,r14
    13c4:	4a93c83a 	sub	r9,r9,r10
    13c8:	6c51803a 	cmpltu	r8,r13,r17
    13cc:	4a27c83a 	sub	r19,r9,r8
    13d0:	3821883a 	mov	r16,r7
    13d4:	003ea806 	br	e78 <__adddf3+0xd8>
    13d8:	480a977a 	slli	r5,r9,29
    13dc:	01080034 	movhi	r4,8192
    13e0:	213fffc4 	addi	r4,r4,-1
    13e4:	3104703a 	and	r2,r6,r4
    13e8:	4814d0fa 	srli	r10,r9,3
    13ec:	1144b03a 	or	r2,r2,r5
    13f0:	3821883a 	mov	r16,r7
    13f4:	003f3106 	br	10bc <__adddf3+0x31c>
    13f8:	28005d1e 	bne	r5,zero,1570 <__adddf3+0x7d0>
    13fc:	1000121e 	bne	r2,zero,1448 <__adddf3+0x6a8>
    1400:	0021883a 	mov	r16,zero
    1404:	4015883a 	mov	r10,r8
    1408:	00bfffc4 	movi	r2,-1
    140c:	003f4806 	br	1130 <__adddf3+0x390>
    1410:	7363883a 	add	r17,r14,r13
    1414:	5255883a 	add	r10,r10,r9
    1418:	8b91803a 	cmpltu	r8,r17,r14
    141c:	5211883a 	add	r8,r10,r8
    1420:	4080202c 	andhi	r2,r8,128
    1424:	103fa91e 	bne	r2,zero,12cc <__adddf3+0x52c>
    1428:	04800044 	movi	r18,1
    142c:	003f1c06 	br	10a0 <__adddf3+0x300>
    1430:	7363c83a 	sub	r17,r14,r13
    1434:	5255c83a 	sub	r10,r10,r9
    1438:	7451803a 	cmpltu	r8,r14,r17
    143c:	5211c83a 	sub	r8,r10,r8
    1440:	04800044 	movi	r18,1
    1444:	003e8706 	br	e64 <__adddf3+0xc4>
    1448:	4806977a 	slli	r3,r9,29
    144c:	00880034 	movhi	r2,8192
    1450:	10bfffc4 	addi	r2,r2,-1
    1454:	3084703a 	and	r2,r6,r2
    1458:	4814d0fa 	srli	r10,r9,3
    145c:	10c4b03a 	or	r2,r2,r3
    1460:	3821883a 	mov	r16,r7
    1464:	003f3006 	br	1128 <__adddf3+0x388>
    1468:	500a977a 	slli	r5,r10,29
    146c:	00880034 	movhi	r2,8192
    1470:	10bfffc4 	addi	r2,r2,-1
    1474:	2084703a 	and	r2,r4,r2
    1478:	5014d0fa 	srli	r10,r10,3
    147c:	1144b03a 	or	r2,r2,r5
    1480:	003f1006 	br	10c4 <__adddf3+0x324>
    1484:	5394b03a 	or	r10,r10,r14
    1488:	5022c03a 	cmpne	r17,r10,zero
    148c:	003f5006 	br	11d0 <__adddf3+0x430>
    1490:	1c7ff804 	addi	r17,r3,-32
    1494:	19400820 	cmpeqi	r5,r3,32
    1498:	5448d83a 	srl	r4,r10,r17
    149c:	2800041e 	bne	r5,zero,14b0 <__adddf3+0x710>
    14a0:	01401004 	movi	r5,64
    14a4:	28c7c83a 	sub	r3,r5,r3
    14a8:	50d4983a 	sll	r10,r10,r3
    14ac:	729cb03a 	or	r14,r14,r10
    14b0:	7022c03a 	cmpne	r17,r14,zero
    14b4:	8922b03a 	or	r17,r17,r4
    14b8:	003f9c06 	br	132c <__adddf3+0x58c>
    14bc:	10005a1e 	bne	r2,zero,1628 <__adddf3+0x888>
    14c0:	4804977a 	slli	r2,r9,29
    14c4:	00c80034 	movhi	r3,8192
    14c8:	18ffffc4 	addi	r3,r3,-1
    14cc:	30cc703a 	and	r6,r6,r3
    14d0:	4814d0fa 	srli	r10,r9,3
    14d4:	1184b03a 	or	r2,r2,r6
    14d8:	003f1306 	br	1128 <__adddf3+0x388>
    14dc:	6ba3c83a 	sub	r17,r13,r14
    14e0:	4a95c83a 	sub	r10,r9,r10
    14e4:	6c51803a 	cmpltu	r8,r13,r17
    14e8:	5211c83a 	sub	r8,r10,r8
    14ec:	3821883a 	mov	r16,r7
    14f0:	04800044 	movi	r18,1
    14f4:	003e5b06 	br	e64 <__adddf3+0xc4>
    14f8:	103f7126 	beq	r2,zero,12c0 <__adddf3+0x520>
    14fc:	4808977a 	slli	r4,r9,29
    1500:	00880034 	movhi	r2,8192
    1504:	10bfffc4 	addi	r2,r2,-1
    1508:	3084703a 	and	r2,r6,r2
    150c:	4814d0fa 	srli	r10,r9,3
    1510:	1104b03a 	or	r2,r2,r4
    1514:	3821883a 	mov	r16,r7
    1518:	003eea06 	br	10c4 <__adddf3+0x324>
    151c:	5006977a 	slli	r3,r10,29
    1520:	00880034 	movhi	r2,8192
    1524:	10bfffc4 	addi	r2,r2,-1
    1528:	2084703a 	and	r2,r4,r2
    152c:	5014d0fa 	srli	r10,r10,3
    1530:	10c4b03a 	or	r2,r2,r3
    1534:	003efc06 	br	1128 <__adddf3+0x388>
    1538:	4806977a 	slli	r3,r9,29
    153c:	00880034 	movhi	r2,8192
    1540:	10bfffc4 	addi	r2,r2,-1
    1544:	3084703a 	and	r2,r6,r2
    1548:	4814d0fa 	srli	r10,r9,3
    154c:	10c4b03a 	or	r2,r2,r3
    1550:	003ef506 	br	1128 <__adddf3+0x388>
    1554:	4808977a 	slli	r4,r9,29
    1558:	00880034 	movhi	r2,8192
    155c:	10bfffc4 	addi	r2,r2,-1
    1560:	3084703a 	and	r2,r6,r2
    1564:	4814d0fa 	srli	r10,r9,3
    1568:	1104b03a 	or	r2,r2,r4
    156c:	003ed306 	br	10bc <__adddf3+0x31c>
    1570:	500a977a 	slli	r5,r10,29
    1574:	5014d0fa 	srli	r10,r10,3
    1578:	10001626 	beq	r2,zero,15d4 <__adddf3+0x834>
    157c:	00c80034 	movhi	r3,8192
    1580:	18ffffc4 	addi	r3,r3,-1
    1584:	20c4703a 	and	r2,r4,r3
    1588:	5100022c 	andhi	r4,r10,8
    158c:	1144b03a 	or	r2,r2,r5
    1590:	203ee526 	beq	r4,zero,1128 <__adddf3+0x388>
    1594:	4808d0fa 	srli	r4,r9,3
    1598:	2140022c 	andhi	r5,r4,8
    159c:	283ee21e 	bne	r5,zero,1128 <__adddf3+0x388>
    15a0:	4812977a 	slli	r9,r9,29
    15a4:	30c4703a 	and	r2,r6,r3
    15a8:	3821883a 	mov	r16,r7
    15ac:	1244b03a 	or	r2,r2,r9
    15b0:	2015883a 	mov	r10,r4
    15b4:	003edc06 	br	1128 <__adddf3+0x388>
    15b8:	4804977a 	slli	r2,r9,29
    15bc:	01080034 	movhi	r4,8192
    15c0:	213fffc4 	addi	r4,r4,-1
    15c4:	310c703a 	and	r6,r6,r4
    15c8:	4814d0fa 	srli	r10,r9,3
    15cc:	1184b03a 	or	r2,r2,r6
    15d0:	003ebc06 	br	10c4 <__adddf3+0x324>
    15d4:	00880034 	movhi	r2,8192
    15d8:	10bfffc4 	addi	r2,r2,-1
    15dc:	2084703a 	and	r2,r4,r2
    15e0:	1144b03a 	or	r2,r2,r5
    15e4:	003ed006 	br	1128 <__adddf3+0x388>
    15e8:	193ff804 	addi	r4,r3,-32
    15ec:	19400820 	cmpeqi	r5,r3,32
    15f0:	5108d83a 	srl	r4,r10,r4
    15f4:	2800041e 	bne	r5,zero,1608 <__adddf3+0x868>
    15f8:	01401004 	movi	r5,64
    15fc:	28c7c83a 	sub	r3,r5,r3
    1600:	50d4983a 	sll	r10,r10,r3
    1604:	729cb03a 	or	r14,r14,r10
    1608:	7022c03a 	cmpne	r17,r14,zero
    160c:	8922b03a 	or	r17,r17,r4
    1610:	003eef06 	br	11d0 <__adddf3+0x430>
    1614:	7363883a 	add	r17,r14,r13
    1618:	5255883a 	add	r10,r10,r9
    161c:	8b51803a 	cmpltu	r8,r17,r13
    1620:	5211883a 	add	r8,r10,r8
    1624:	003f7e06 	br	1420 <__adddf3+0x680>
    1628:	4b50b03a 	or	r8,r9,r13
    162c:	500a977a 	slli	r5,r10,29
    1630:	5014d0fa 	srli	r10,r10,3
    1634:	403fe726 	beq	r8,zero,15d4 <__adddf3+0x834>
    1638:	00c80034 	movhi	r3,8192
    163c:	18ffffc4 	addi	r3,r3,-1
    1640:	20c4703a 	and	r2,r4,r3
    1644:	5100022c 	andhi	r4,r10,8
    1648:	1144b03a 	or	r2,r2,r5
    164c:	203eb626 	beq	r4,zero,1128 <__adddf3+0x388>
    1650:	4808d0fa 	srli	r4,r9,3
    1654:	2140022c 	andhi	r5,r4,8
    1658:	283eb31e 	bne	r5,zero,1128 <__adddf3+0x388>
    165c:	4804977a 	slli	r2,r9,29
    1660:	30cc703a 	and	r6,r6,r3
    1664:	3821883a 	mov	r16,r7
    1668:	3084b03a 	or	r2,r6,r2
    166c:	2015883a 	mov	r10,r4
    1670:	003ead06 	br	1128 <__adddf3+0x388>
    1674:	8a04b03a 	or	r2,r17,r8
    1678:	103f1126 	beq	r2,zero,12c0 <__adddf3+0x520>
    167c:	003e8806 	br	10a0 <__adddf3+0x300>
    1680:	0005883a 	mov	r2,zero
    1684:	00c1ffc4 	movi	r3,2047
    1688:	0011883a 	mov	r8,zero
    168c:	003e2a06 	br	f38 <__adddf3+0x198>

00001690 <__eqdf2>:
    1690:	2810d53a 	srli	r8,r5,20
    1694:	3806d53a 	srli	r3,r7,20
    1698:	00800434 	movhi	r2,16
    169c:	4201ffcc 	andi	r8,r8,2047
    16a0:	10bfffc4 	addi	r2,r2,-1
    16a4:	4241ffd8 	cmpnei	r9,r8,2047
    16a8:	2814d7fa 	srli	r10,r5,31
    16ac:	3816d7fa 	srli	r11,r7,31
    16b0:	288a703a 	and	r5,r5,r2
    16b4:	388e703a 	and	r7,r7,r2
    16b8:	1881ffcc 	andi	r2,r3,2047
    16bc:	48000626 	beq	r9,zero,16d8 <__eqdf2+0x48>
    16c0:	10c1ffe0 	cmpeqi	r3,r2,2047
    16c4:	1800021e 	bne	r3,zero,16d0 <__eqdf2+0x40>
    16c8:	4080011e 	bne	r8,r2,16d0 <__eqdf2+0x40>
    16cc:	29c00826 	beq	r5,r7,16f0 <__eqdf2+0x60>
    16d0:	00800044 	movi	r2,1
    16d4:	f800283a 	ret
    16d8:	2906b03a 	or	r3,r5,r4
    16dc:	183ffc1e 	bne	r3,zero,16d0 <__eqdf2+0x40>
    16e0:	1081ffd8 	cmpnei	r2,r2,2047
    16e4:	103ffa1e 	bne	r2,zero,16d0 <__eqdf2+0x40>
    16e8:	398eb03a 	or	r7,r7,r6
    16ec:	383ff81e 	bne	r7,zero,16d0 <__eqdf2+0x40>
    16f0:	21bff71e 	bne	r4,r6,16d0 <__eqdf2+0x40>
    16f4:	52c00426 	beq	r10,r11,1708 <__eqdf2+0x78>
    16f8:	403ff51e 	bne	r8,zero,16d0 <__eqdf2+0x40>
    16fc:	290ab03a 	or	r5,r5,r4
    1700:	2804c03a 	cmpne	r2,r5,zero
    1704:	f800283a 	ret
    1708:	0005883a 	mov	r2,zero
    170c:	f800283a 	ret

00001710 <__ledf2>:
    1710:	2810d53a 	srli	r8,r5,20
    1714:	3812d53a 	srli	r9,r7,20
    1718:	00c00434 	movhi	r3,16
    171c:	4201ffcc 	andi	r8,r8,2047
    1720:	18ffffc4 	addi	r3,r3,-1
    1724:	4281ffd8 	cmpnei	r10,r8,2047
    1728:	2816d7fa 	srli	r11,r5,31
    172c:	3804d7fa 	srli	r2,r7,31
    1730:	28ca703a 	and	r5,r5,r3
    1734:	38ce703a 	and	r7,r7,r3
    1738:	48c1ffcc 	andi	r3,r9,2047
    173c:	50000a26 	beq	r10,zero,1768 <__ledf2+0x58>
    1740:	1a41ffd8 	cmpnei	r9,r3,2047
    1744:	48000c26 	beq	r9,zero,1778 <__ledf2+0x68>
    1748:	4000191e 	bne	r8,zero,17b0 <__ledf2+0xa0>
    174c:	2912b03a 	or	r9,r5,r4
    1750:	18000d1e 	bne	r3,zero,1788 <__ledf2+0x78>
    1754:	3994b03a 	or	r10,r7,r6
    1758:	50000b1e 	bne	r10,zero,1788 <__ledf2+0x78>
    175c:	48000c1e 	bne	r9,zero,1790 <__ledf2+0x80>
    1760:	0005883a 	mov	r2,zero
    1764:	f800283a 	ret
    1768:	2912b03a 	or	r9,r5,r4
    176c:	48000c1e 	bne	r9,zero,17a0 <__ledf2+0x90>
    1770:	1a41ffe0 	cmpeqi	r9,r3,2047
    1774:	48000e26 	beq	r9,zero,17b0 <__ledf2+0xa0>
    1778:	3992b03a 	or	r9,r7,r6
    177c:	4800081e 	bne	r9,zero,17a0 <__ledf2+0x90>
    1780:	4000021e 	bne	r8,zero,178c <__ledf2+0x7c>
    1784:	2912b03a 	or	r9,r5,r4
    1788:	48000726 	beq	r9,zero,17a8 <__ledf2+0x98>
    178c:	58800c26 	beq	r11,r2,17c0 <__ledf2+0xb0>
    1790:	00800044 	movi	r2,1
    1794:	58000526 	beq	r11,zero,17ac <__ledf2+0x9c>
    1798:	00bfffc4 	movi	r2,-1
    179c:	f800283a 	ret
    17a0:	00800084 	movi	r2,2
    17a4:	f800283a 	ret
    17a8:	103ffb26 	beq	r2,zero,1798 <__ledf2+0x88>
    17ac:	f800283a 	ret
    17b0:	183ff61e 	bne	r3,zero,178c <__ledf2+0x7c>
    17b4:	3992b03a 	or	r9,r7,r6
    17b8:	483ff41e 	bne	r9,zero,178c <__ledf2+0x7c>
    17bc:	003ff406 	br	1790 <__ledf2+0x80>
    17c0:	1a00030e 	bge	r3,r8,17d0 <__ledf2+0xc0>
    17c4:	103ff41e 	bne	r2,zero,1798 <__ledf2+0x88>
    17c8:	00800044 	movi	r2,1
    17cc:	f800283a 	ret
    17d0:	40fff516 	blt	r8,r3,17a8 <__ledf2+0x98>
    17d4:	397fee36 	bltu	r7,r5,1790 <__ledf2+0x80>
    17d8:	29c00426 	beq	r5,r7,17ec <__ledf2+0xdc>
    17dc:	29ffe02e 	bgeu	r5,r7,1760 <__ledf2+0x50>
    17e0:	583fed26 	beq	r11,zero,1798 <__ledf2+0x88>
    17e4:	5805883a 	mov	r2,r11
    17e8:	f800283a 	ret
    17ec:	313fe836 	bltu	r6,r4,1790 <__ledf2+0x80>
    17f0:	21bfdb2e 	bgeu	r4,r6,1760 <__ledf2+0x50>
    17f4:	003ffa06 	br	17e0 <__ledf2+0xd0>

000017f8 <__muldf3>:
    17f8:	2804d53a 	srli	r2,r5,20
    17fc:	defff504 	addi	sp,sp,-44
    1800:	02000434 	movhi	r8,16
    1804:	df000915 	stw	fp,36(sp)
    1808:	dd000515 	stw	r20,20(sp)
    180c:	dcc00415 	stw	r19,16(sp)
    1810:	dc000115 	stw	r16,4(sp)
    1814:	423fffc4 	addi	r8,r8,-1
    1818:	dfc00a15 	stw	ra,40(sp)
    181c:	ddc00815 	stw	r23,32(sp)
    1820:	dd800715 	stw	r22,28(sp)
    1824:	dd400615 	stw	r21,24(sp)
    1828:	dc800315 	stw	r18,12(sp)
    182c:	dc400215 	stw	r17,8(sp)
    1830:	1081ffcc 	andi	r2,r2,2047
    1834:	2828d7fa 	srli	r20,r5,31
    1838:	2027883a 	mov	r19,r4
    183c:	3039883a 	mov	fp,r6
    1840:	2a20703a 	and	r16,r5,r8
    1844:	1000e726 	beq	r2,zero,1be4 <__muldf3+0x3ec>
    1848:	10c1ffe0 	cmpeqi	r3,r2,2047
    184c:	1800f91e 	bne	r3,zero,1c34 <__muldf3+0x43c>
    1850:	800a90fa 	slli	r5,r16,3
    1854:	2020d77a 	srli	r16,r4,29
    1858:	202490fa 	slli	r18,r4,3
    185c:	14ff0044 	addi	r19,r2,-1023
    1860:	8160b03a 	or	r16,r16,r5
    1864:	84002034 	orhi	r16,r16,128
    1868:	002b883a 	mov	r21,zero
    186c:	002d883a 	mov	r22,zero
    1870:	3804d53a 	srli	r2,r7,20
    1874:	00c00434 	movhi	r3,16
    1878:	18ffffc4 	addi	r3,r3,-1
    187c:	1081ffcc 	andi	r2,r2,2047
    1880:	382ed7fa 	srli	r23,r7,31
    1884:	38e2703a 	and	r17,r7,r3
    1888:	1000c526 	beq	r2,zero,1ba0 <__muldf3+0x3a8>
    188c:	10c1ffe0 	cmpeqi	r3,r2,2047
    1890:	1800ef1e 	bne	r3,zero,1c50 <__muldf3+0x458>
    1894:	880690fa 	slli	r3,r17,3
    1898:	e022d77a 	srli	r17,fp,29
    189c:	e00a90fa 	slli	r5,fp,3
    18a0:	10bf0044 	addi	r2,r2,-1023
    18a4:	88e2b03a 	or	r17,r17,r3
    18a8:	8c402034 	orhi	r17,r17,128
    18ac:	98a7883a 	add	r19,r19,r2
    18b0:	0007883a 	mov	r3,zero
    18b4:	a8800428 	cmpgeui	r2,r21,16
    18b8:	a5ccf03a 	xor	r6,r20,r23
    18bc:	9a000044 	addi	r8,r19,1
    18c0:	1000371e 	bne	r2,zero,19a0 <__muldf3+0x1a8>
    18c4:	a80490ba 	slli	r2,r21,2
    18c8:	01000034 	movhi	r4,0
    18cc:	1109883a 	add	r4,r2,r4
    18d0:	20863617 	ldw	r2,6360(r4)
    18d4:	1000683a 	jmp	r2
    18d8:	000019a0 	cmpeqi	zero,zero,102
    18dc:	0000191c 	xori	zero,zero,100
    18e0:	0000191c 	xori	zero,zero,100
    18e4:	00001918 	cmpnei	zero,zero,100
    18e8:	00001928 	cmpgeui	zero,zero,100
    18ec:	00001928 	cmpgeui	zero,zero,100
    18f0:	00001cc4 	movi	zero,115
    18f4:	00001918 	cmpnei	zero,zero,100
    18f8:	00001928 	cmpgeui	zero,zero,100
    18fc:	00001cc4 	movi	zero,115
    1900:	00001928 	cmpgeui	zero,zero,100
    1904:	00001918 	cmpnei	zero,zero,100
    1908:	00001c6c 	andhi	zero,zero,113
    190c:	00001c6c 	andhi	zero,zero,113
    1910:	00001c6c 	andhi	zero,zero,113
    1914:	00001d50 	cmplti	zero,zero,117
    1918:	b80d883a 	mov	r6,r23
    191c:	8821883a 	mov	r16,r17
    1920:	2825883a 	mov	r18,r5
    1924:	182d883a 	mov	r22,r3
    1928:	b08000a0 	cmpeqi	r2,r22,2
    192c:	1000181e 	bne	r2,zero,1990 <__muldf3+0x198>
    1930:	b08000e0 	cmpeqi	r2,r22,3
    1934:	1001481e 	bne	r2,zero,1e58 <__muldf3+0x660>
    1938:	b0800060 	cmpeqi	r2,r22,1
    193c:	10007e26 	beq	r2,zero,1b38 <__muldf3+0x340>
    1940:	0007883a 	mov	r3,zero
    1944:	0021883a 	mov	r16,zero
    1948:	0025883a 	mov	r18,zero
    194c:	1806953a 	slli	r3,r3,20
    1950:	300c97fa 	slli	r6,r6,31
    1954:	9005883a 	mov	r2,r18
    1958:	1c06b03a 	or	r3,r3,r16
    195c:	1986b03a 	or	r3,r3,r6
    1960:	dfc00a17 	ldw	ra,40(sp)
    1964:	df000917 	ldw	fp,36(sp)
    1968:	ddc00817 	ldw	r23,32(sp)
    196c:	dd800717 	ldw	r22,28(sp)
    1970:	dd400617 	ldw	r21,24(sp)
    1974:	dd000517 	ldw	r20,20(sp)
    1978:	dcc00417 	ldw	r19,16(sp)
    197c:	dc800317 	ldw	r18,12(sp)
    1980:	dc400217 	ldw	r17,8(sp)
    1984:	dc000117 	ldw	r16,4(sp)
    1988:	dec00b04 	addi	sp,sp,44
    198c:	f800283a 	ret
    1990:	00c1ffc4 	movi	r3,2047
    1994:	0021883a 	mov	r16,zero
    1998:	0025883a 	mov	r18,zero
    199c:	003feb06 	br	194c <__muldf3+0x154>
    19a0:	9004d43a 	srli	r2,r18,16
    19a4:	281ed43a 	srli	r15,r5,16
    19a8:	94bfffcc 	andi	r18,r18,65535
    19ac:	297fffcc 	andi	r5,r5,65535
    19b0:	2c89383a 	mul	r4,r5,r18
    19b4:	114f383a 	mul	r7,r2,r5
    19b8:	7c87383a 	mul	r3,r15,r18
    19bc:	2012d43a 	srli	r9,r4,16
    19c0:	13dd383a 	mul	r14,r2,r15
    19c4:	19c7883a 	add	r3,r3,r7
    19c8:	48d3883a 	add	r9,r9,r3
    19cc:	49c0022e 	bgeu	r9,r7,19d8 <__muldf3+0x1e0>
    19d0:	00c00074 	movhi	r3,1
    19d4:	70dd883a 	add	r14,r14,r3
    19d8:	881ad43a 	srli	r13,r17,16
    19dc:	8c7fffcc 	andi	r17,r17,65535
    19e0:	8c87383a 	mul	r3,r17,r18
    19e4:	144f383a 	mul	r7,r2,r17
    19e8:	6ca5383a 	mul	r18,r13,r18
    19ec:	1816d43a 	srli	r11,r3,16
    19f0:	4814943a 	slli	r10,r9,16
    19f4:	91e5883a 	add	r18,r18,r7
    19f8:	213fffcc 	andi	r4,r4,65535
    19fc:	5c97883a 	add	r11,r11,r18
    1a00:	4818d43a 	srli	r12,r9,16
    1a04:	1345383a 	mul	r2,r2,r13
    1a08:	5115883a 	add	r10,r10,r4
    1a0c:	59c0022e 	bgeu	r11,r7,1a18 <__muldf3+0x220>
    1a10:	01000074 	movhi	r4,1
    1a14:	1105883a 	add	r2,r2,r4
    1a18:	8028d43a 	srli	r20,r16,16
    1a1c:	827fffcc 	andi	r9,r16,65535
    1a20:	2a6b383a 	mul	r21,r5,r9
    1a24:	7a49383a 	mul	r4,r15,r9
    1a28:	a14b383a 	mul	r5,r20,r5
    1a2c:	580e943a 	slli	r7,r11,16
    1a30:	a82cd43a 	srli	r22,r21,16
    1a34:	5824d43a 	srli	r18,r11,16
    1a38:	18ffffcc 	andi	r3,r3,65535
    1a3c:	2149883a 	add	r4,r4,r5
    1a40:	38cf883a 	add	r7,r7,r3
    1a44:	b109883a 	add	r4,r22,r4
    1a48:	7d1f383a 	mul	r15,r15,r20
    1a4c:	9097883a 	add	r11,r18,r2
    1a50:	61c7883a 	add	r3,r12,r7
    1a54:	2140022e 	bgeu	r4,r5,1a60 <__muldf3+0x268>
    1a58:	00800074 	movhi	r2,1
    1a5c:	789f883a 	add	r15,r15,r2
    1a60:	8a65383a 	mul	r18,r17,r9
    1a64:	6a53383a 	mul	r9,r13,r9
    1a68:	a463383a 	mul	r17,r20,r17
    1a6c:	9020d43a 	srli	r16,r18,16
    1a70:	200ad43a 	srli	r5,r4,16
    1a74:	2008943a 	slli	r4,r4,16
    1a78:	4c53883a 	add	r9,r9,r17
    1a7c:	ab3fffcc 	andi	r12,r21,65535
    1a80:	8253883a 	add	r9,r16,r9
    1a84:	6d1b383a 	mul	r13,r13,r20
    1a88:	2bdf883a 	add	r15,r5,r15
    1a8c:	2309883a 	add	r4,r4,r12
    1a90:	4c40022e 	bgeu	r9,r17,1a9c <__muldf3+0x2a4>
    1a94:	00800074 	movhi	r2,1
    1a98:	689b883a 	add	r13,r13,r2
    1a9c:	4804943a 	slli	r2,r9,16
    1aa0:	917fffcc 	andi	r5,r18,65535
    1aa4:	1b87883a 	add	r3,r3,r14
    1aa8:	1145883a 	add	r2,r2,r5
    1aac:	19cf803a 	cmpltu	r7,r3,r7
    1ab0:	12c5883a 	add	r2,r2,r11
    1ab4:	1907883a 	add	r3,r3,r4
    1ab8:	11dd883a 	add	r14,r2,r7
    1abc:	1909803a 	cmpltu	r4,r3,r4
    1ac0:	73cb883a 	add	r5,r14,r15
    1ac4:	4812d43a 	srli	r9,r9,16
    1ac8:	2919883a 	add	r12,r5,r4
    1acc:	12c5803a 	cmpltu	r2,r2,r11
    1ad0:	71e1803a 	cmpltu	r16,r14,r7
    1ad4:	1420b03a 	or	r16,r2,r16
    1ad8:	2bcb803a 	cmpltu	r5,r5,r15
    1adc:	6109803a 	cmpltu	r4,r12,r4
    1ae0:	2908b03a 	or	r4,r5,r4
    1ae4:	8261883a 	add	r16,r16,r9
    1ae8:	1824927a 	slli	r18,r3,9
    1aec:	8121883a 	add	r16,r16,r4
    1af0:	8361883a 	add	r16,r16,r13
    1af4:	8020927a 	slli	r16,r16,9
    1af8:	1806d5fa 	srli	r3,r3,23
    1afc:	600ad5fa 	srli	r5,r12,23
    1b00:	6004927a 	slli	r2,r12,9
    1b04:	92a4b03a 	or	r18,r18,r10
    1b08:	9024c03a 	cmpne	r18,r18,zero
    1b0c:	90e4b03a 	or	r18,r18,r3
    1b10:	80c0402c 	andhi	r3,r16,256
    1b14:	90a4b03a 	or	r18,r18,r2
    1b18:	8160b03a 	or	r16,r16,r5
    1b1c:	1800b326 	beq	r3,zero,1dec <__muldf3+0x5f4>
    1b20:	9006d07a 	srli	r3,r18,1
    1b24:	800497fa 	slli	r2,r16,31
    1b28:	9480004c 	andi	r18,r18,1
    1b2c:	8020d07a 	srli	r16,r16,1
    1b30:	1c86b03a 	or	r3,r3,r18
    1b34:	18a4b03a 	or	r18,r3,r2
    1b38:	4100ffc4 	addi	r4,r8,1023
    1b3c:	0100670e 	bge	zero,r4,1cdc <__muldf3+0x4e4>
    1b40:	908001cc 	andi	r2,r18,7
    1b44:	10000726 	beq	r2,zero,1b64 <__muldf3+0x36c>
    1b48:	908003cc 	andi	r2,r18,15
    1b4c:	10800120 	cmpeqi	r2,r2,4
    1b50:	1000041e 	bne	r2,zero,1b64 <__muldf3+0x36c>
    1b54:	90800104 	addi	r2,r18,4
    1b58:	14a5803a 	cmpltu	r18,r2,r18
    1b5c:	84a1883a 	add	r16,r16,r18
    1b60:	1025883a 	mov	r18,r2
    1b64:	8080402c 	andhi	r2,r16,256
    1b68:	10000426 	beq	r2,zero,1b7c <__muldf3+0x384>
    1b6c:	00bfc034 	movhi	r2,65280
    1b70:	10bfffc4 	addi	r2,r2,-1
    1b74:	80a0703a 	and	r16,r16,r2
    1b78:	41010004 	addi	r4,r8,1024
    1b7c:	2081ffc8 	cmpgei	r2,r4,2047
    1b80:	103f831e 	bne	r2,zero,1990 <__muldf3+0x198>
    1b84:	8004977a 	slli	r2,r16,29
    1b88:	9024d0fa 	srli	r18,r18,3
    1b8c:	8020927a 	slli	r16,r16,9
    1b90:	20c1ffcc 	andi	r3,r4,2047
    1b94:	14a4b03a 	or	r18,r2,r18
    1b98:	8020d33a 	srli	r16,r16,12
    1b9c:	003f6b06 	br	194c <__muldf3+0x154>
    1ba0:	8f0ab03a 	or	r5,r17,fp
    1ba4:	28004326 	beq	r5,zero,1cb4 <__muldf3+0x4bc>
    1ba8:	88008526 	beq	r17,zero,1dc0 <__muldf3+0x5c8>
    1bac:	8809883a 	mov	r4,r17
    1bb0:	0001fe80 	call	1fe8 <__clzsi2>
    1bb4:	11bffd44 	addi	r6,r2,-11
    1bb8:	01000744 	movi	r4,29
    1bbc:	117ffe04 	addi	r5,r2,-8
    1bc0:	2189c83a 	sub	r4,r4,r6
    1bc4:	8962983a 	sll	r17,r17,r5
    1bc8:	e108d83a 	srl	r4,fp,r4
    1bcc:	e14a983a 	sll	r5,fp,r5
    1bd0:	2462b03a 	or	r17,r4,r17
    1bd4:	9885c83a 	sub	r2,r19,r2
    1bd8:	14ff0344 	addi	r19,r2,-1011
    1bdc:	0007883a 	mov	r3,zero
    1be0:	003f3406 	br	18b4 <__muldf3+0xbc>
    1be4:	8124b03a 	or	r18,r16,r4
    1be8:	90002d26 	beq	r18,zero,1ca0 <__muldf3+0x4a8>
    1bec:	d9c00015 	stw	r7,0(sp)
    1bf0:	80006826 	beq	r16,zero,1d94 <__muldf3+0x59c>
    1bf4:	8009883a 	mov	r4,r16
    1bf8:	0001fe80 	call	1fe8 <__clzsi2>
    1bfc:	d9c00017 	ldw	r7,0(sp)
    1c00:	113ffd44 	addi	r4,r2,-11
    1c04:	00c00744 	movi	r3,29
    1c08:	14bffe04 	addi	r18,r2,-8
    1c0c:	1907c83a 	sub	r3,r3,r4
    1c10:	84a0983a 	sll	r16,r16,r18
    1c14:	98c6d83a 	srl	r3,r19,r3
    1c18:	9ca4983a 	sll	r18,r19,r18
    1c1c:	1c20b03a 	or	r16,r3,r16
    1c20:	04ff0344 	movi	r19,-1011
    1c24:	98a7c83a 	sub	r19,r19,r2
    1c28:	002b883a 	mov	r21,zero
    1c2c:	002d883a 	mov	r22,zero
    1c30:	003f0f06 	br	1870 <__muldf3+0x78>
    1c34:	8124b03a 	or	r18,r16,r4
    1c38:	9000141e 	bne	r18,zero,1c8c <__muldf3+0x494>
    1c3c:	0021883a 	mov	r16,zero
    1c40:	05400204 	movi	r21,8
    1c44:	04c1ffc4 	movi	r19,2047
    1c48:	05800084 	movi	r22,2
    1c4c:	003f0806 	br	1870 <__muldf3+0x78>
    1c50:	8f0ab03a 	or	r5,r17,fp
    1c54:	9cc1ffc4 	addi	r19,r19,2047
    1c58:	2800081e 	bne	r5,zero,1c7c <__muldf3+0x484>
    1c5c:	ad400094 	ori	r21,r21,2
    1c60:	0023883a 	mov	r17,zero
    1c64:	00c00084 	movi	r3,2
    1c68:	003f1206 	br	18b4 <__muldf3+0xbc>
    1c6c:	b08000a0 	cmpeqi	r2,r22,2
    1c70:	a00d883a 	mov	r6,r20
    1c74:	103f2e26 	beq	r2,zero,1930 <__muldf3+0x138>
    1c78:	003f4506 	br	1990 <__muldf3+0x198>
    1c7c:	ad4000d4 	ori	r21,r21,3
    1c80:	e00b883a 	mov	r5,fp
    1c84:	00c000c4 	movi	r3,3
    1c88:	003f0a06 	br	18b4 <__muldf3+0xbc>
    1c8c:	2025883a 	mov	r18,r4
    1c90:	05400304 	movi	r21,12
    1c94:	04c1ffc4 	movi	r19,2047
    1c98:	058000c4 	movi	r22,3
    1c9c:	003ef406 	br	1870 <__muldf3+0x78>
    1ca0:	0021883a 	mov	r16,zero
    1ca4:	05400104 	movi	r21,4
    1ca8:	0027883a 	mov	r19,zero
    1cac:	05800044 	movi	r22,1
    1cb0:	003eef06 	br	1870 <__muldf3+0x78>
    1cb4:	ad400054 	ori	r21,r21,1
    1cb8:	0023883a 	mov	r17,zero
    1cbc:	00c00044 	movi	r3,1
    1cc0:	003efc06 	br	18b4 <__muldf3+0xbc>
    1cc4:	04000434 	movhi	r16,16
    1cc8:	000d883a 	mov	r6,zero
    1ccc:	843fffc4 	addi	r16,r16,-1
    1cd0:	04bfffc4 	movi	r18,-1
    1cd4:	00c1ffc4 	movi	r3,2047
    1cd8:	003f1c06 	br	194c <__muldf3+0x154>
    1cdc:	00800044 	movi	r2,1
    1ce0:	1105c83a 	sub	r2,r2,r4
    1ce4:	10c00e48 	cmpgei	r3,r2,57
    1ce8:	183f151e 	bne	r3,zero,1940 <__muldf3+0x148>
    1cec:	10c00808 	cmpgei	r3,r2,32
    1cf0:	1800401e 	bne	r3,zero,1df4 <__muldf3+0x5fc>
    1cf4:	42010784 	addi	r8,r8,1054
    1cf8:	8206983a 	sll	r3,r16,r8
    1cfc:	9088d83a 	srl	r4,r18,r2
    1d00:	9210983a 	sll	r8,r18,r8
    1d04:	80a0d83a 	srl	r16,r16,r2
    1d08:	1904b03a 	or	r2,r3,r4
    1d0c:	4024c03a 	cmpne	r18,r8,zero
    1d10:	1484b03a 	or	r2,r2,r18
    1d14:	10c001cc 	andi	r3,r2,7
    1d18:	18000726 	beq	r3,zero,1d38 <__muldf3+0x540>
    1d1c:	10c003cc 	andi	r3,r2,15
    1d20:	18c00120 	cmpeqi	r3,r3,4
    1d24:	1800041e 	bne	r3,zero,1d38 <__muldf3+0x540>
    1d28:	10c00104 	addi	r3,r2,4
    1d2c:	1885803a 	cmpltu	r2,r3,r2
    1d30:	80a1883a 	add	r16,r16,r2
    1d34:	1805883a 	mov	r2,r3
    1d38:	80c0202c 	andhi	r3,r16,128
    1d3c:	18004226 	beq	r3,zero,1e48 <__muldf3+0x650>
    1d40:	00c00044 	movi	r3,1
    1d44:	0021883a 	mov	r16,zero
    1d48:	0025883a 	mov	r18,zero
    1d4c:	003eff06 	br	194c <__muldf3+0x154>
    1d50:	8080022c 	andhi	r2,r16,8
    1d54:	10000926 	beq	r2,zero,1d7c <__muldf3+0x584>
    1d58:	8880022c 	andhi	r2,r17,8
    1d5c:	1000071e 	bne	r2,zero,1d7c <__muldf3+0x584>
    1d60:	00800434 	movhi	r2,16
    1d64:	8c000234 	orhi	r16,r17,8
    1d68:	10bfffc4 	addi	r2,r2,-1
    1d6c:	80a0703a 	and	r16,r16,r2
    1d70:	b80d883a 	mov	r6,r23
    1d74:	2825883a 	mov	r18,r5
    1d78:	003fd606 	br	1cd4 <__muldf3+0x4dc>
    1d7c:	00800434 	movhi	r2,16
    1d80:	84000234 	orhi	r16,r16,8
    1d84:	10bfffc4 	addi	r2,r2,-1
    1d88:	80a0703a 	and	r16,r16,r2
    1d8c:	a00d883a 	mov	r6,r20
    1d90:	003fd006 	br	1cd4 <__muldf3+0x4dc>
    1d94:	0001fe80 	call	1fe8 <__clzsi2>
    1d98:	11000544 	addi	r4,r2,21
    1d9c:	21400748 	cmpgei	r5,r4,29
    1da0:	1007883a 	mov	r3,r2
    1da4:	d9c00017 	ldw	r7,0(sp)
    1da8:	10800804 	addi	r2,r2,32
    1dac:	283f9526 	beq	r5,zero,1c04 <__muldf3+0x40c>
    1db0:	18fffe04 	addi	r3,r3,-8
    1db4:	98e0983a 	sll	r16,r19,r3
    1db8:	0025883a 	mov	r18,zero
    1dbc:	003f9806 	br	1c20 <__muldf3+0x428>
    1dc0:	e009883a 	mov	r4,fp
    1dc4:	0001fe80 	call	1fe8 <__clzsi2>
    1dc8:	11800544 	addi	r6,r2,21
    1dcc:	31000748 	cmpgei	r4,r6,29
    1dd0:	1007883a 	mov	r3,r2
    1dd4:	10800804 	addi	r2,r2,32
    1dd8:	203f7726 	beq	r4,zero,1bb8 <__muldf3+0x3c0>
    1ddc:	1c7ffe04 	addi	r17,r3,-8
    1de0:	e462983a 	sll	r17,fp,r17
    1de4:	000b883a 	mov	r5,zero
    1de8:	003f7a06 	br	1bd4 <__muldf3+0x3dc>
    1dec:	9811883a 	mov	r8,r19
    1df0:	003f5106 	br	1b38 <__muldf3+0x340>
    1df4:	00fff844 	movi	r3,-31
    1df8:	1907c83a 	sub	r3,r3,r4
    1dfc:	10800820 	cmpeqi	r2,r2,32
    1e00:	80c6d83a 	srl	r3,r16,r3
    1e04:	1000031e 	bne	r2,zero,1e14 <__muldf3+0x61c>
    1e08:	42010f84 	addi	r8,r8,1086
    1e0c:	8220983a 	sll	r16,r16,r8
    1e10:	9424b03a 	or	r18,r18,r16
    1e14:	9024c03a 	cmpne	r18,r18,zero
    1e18:	90c4b03a 	or	r2,r18,r3
    1e1c:	148001cc 	andi	r18,r2,7
    1e20:	9000051e 	bne	r18,zero,1e38 <__muldf3+0x640>
    1e24:	0021883a 	mov	r16,zero
    1e28:	1004d0fa 	srli	r2,r2,3
    1e2c:	0007883a 	mov	r3,zero
    1e30:	14a4b03a 	or	r18,r2,r18
    1e34:	003ec506 	br	194c <__muldf3+0x154>
    1e38:	10c003cc 	andi	r3,r2,15
    1e3c:	18c00118 	cmpnei	r3,r3,4
    1e40:	0021883a 	mov	r16,zero
    1e44:	183fb81e 	bne	r3,zero,1d28 <__muldf3+0x530>
    1e48:	8006927a 	slli	r3,r16,9
    1e4c:	8024977a 	slli	r18,r16,29
    1e50:	1820d33a 	srli	r16,r3,12
    1e54:	003ff406 	br	1e28 <__muldf3+0x630>
    1e58:	00800434 	movhi	r2,16
    1e5c:	84000234 	orhi	r16,r16,8
    1e60:	10bfffc4 	addi	r2,r2,-1
    1e64:	80a0703a 	and	r16,r16,r2
    1e68:	003f9a06 	br	1cd4 <__muldf3+0x4dc>

00001e6c <__fixdfsi>:
    1e6c:	2806d53a 	srli	r3,r5,20
    1e70:	01800434 	movhi	r6,16
    1e74:	31bfffc4 	addi	r6,r6,-1
    1e78:	18c1ffcc 	andi	r3,r3,2047
    1e7c:	19c0ffd0 	cmplti	r7,r3,1023
    1e80:	2810d7fa 	srli	r8,r5,31
    1e84:	298a703a 	and	r5,r5,r6
    1e88:	3800061e 	bne	r7,zero,1ea4 <__fixdfsi+0x38>
    1e8c:	18810790 	cmplti	r2,r3,1054
    1e90:	1000061e 	bne	r2,zero,1eac <__fixdfsi+0x40>
    1e94:	00a00034 	movhi	r2,32768
    1e98:	10bfffc4 	addi	r2,r2,-1
    1e9c:	4085883a 	add	r2,r8,r2
    1ea0:	f800283a 	ret
    1ea4:	0005883a 	mov	r2,zero
    1ea8:	f800283a 	ret
    1eac:	01810cc4 	movi	r6,1075
    1eb0:	30cdc83a 	sub	r6,r6,r3
    1eb4:	30800808 	cmpgei	r2,r6,32
    1eb8:	29400434 	orhi	r5,r5,16
    1ebc:	1000071e 	bne	r2,zero,1edc <__fixdfsi+0x70>
    1ec0:	18befb44 	addi	r2,r3,-1043
    1ec4:	2884983a 	sll	r2,r5,r2
    1ec8:	2188d83a 	srl	r4,r4,r6
    1ecc:	1104b03a 	or	r2,r2,r4
    1ed0:	403ff526 	beq	r8,zero,1ea8 <__fixdfsi+0x3c>
    1ed4:	0085c83a 	sub	r2,zero,r2
    1ed8:	f800283a 	ret
    1edc:	008104c4 	movi	r2,1043
    1ee0:	10c5c83a 	sub	r2,r2,r3
    1ee4:	2884d83a 	srl	r2,r5,r2
    1ee8:	003ff906 	br	1ed0 <__fixdfsi+0x64>

00001eec <__extendsfdf2>:
    1eec:	200ad5fa 	srli	r5,r4,23
    1ef0:	defffd04 	addi	sp,sp,-12
    1ef4:	dc000015 	stw	r16,0(sp)
    1ef8:	29403fcc 	andi	r5,r5,255
    1efc:	04002034 	movhi	r16,128
    1f00:	28800044 	addi	r2,r5,1
    1f04:	dc400115 	stw	r17,4(sp)
    1f08:	843fffc4 	addi	r16,r16,-1
    1f0c:	dfc00215 	stw	ra,8(sp)
    1f10:	10803f8c 	andi	r2,r2,254
    1f14:	2022d7fa 	srli	r17,r4,31
    1f18:	8120703a 	and	r16,r16,r4
    1f1c:	10000d26 	beq	r2,zero,1f54 <__extendsfdf2+0x68>
    1f20:	8008d0fa 	srli	r4,r16,3
    1f24:	8020977a 	slli	r16,r16,29
    1f28:	28c0e004 	addi	r3,r5,896
    1f2c:	180a953a 	slli	r5,r3,20
    1f30:	880697fa 	slli	r3,r17,31
    1f34:	8005883a 	mov	r2,r16
    1f38:	290ab03a 	or	r5,r5,r4
    1f3c:	28c6b03a 	or	r3,r5,r3
    1f40:	dfc00217 	ldw	ra,8(sp)
    1f44:	dc400117 	ldw	r17,4(sp)
    1f48:	dc000017 	ldw	r16,0(sp)
    1f4c:	dec00304 	addi	sp,sp,12
    1f50:	f800283a 	ret
    1f54:	2800111e 	bne	r5,zero,1f9c <__extendsfdf2+0xb0>
    1f58:	80001926 	beq	r16,zero,1fc0 <__extendsfdf2+0xd4>
    1f5c:	8009883a 	mov	r4,r16
    1f60:	0001fe80 	call	1fe8 <__clzsi2>
    1f64:	10c002c8 	cmpgei	r3,r2,11
    1f68:	18001b1e 	bne	r3,zero,1fd8 <__extendsfdf2+0xec>
    1f6c:	010002c4 	movi	r4,11
    1f70:	2089c83a 	sub	r4,r4,r2
    1f74:	10c00544 	addi	r3,r2,21
    1f78:	810ad83a 	srl	r5,r16,r4
    1f7c:	80e0983a 	sll	r16,r16,r3
    1f80:	01000434 	movhi	r4,16
    1f84:	00c0e244 	movi	r3,905
    1f88:	213fffc4 	addi	r4,r4,-1
    1f8c:	1887c83a 	sub	r3,r3,r2
    1f90:	2908703a 	and	r4,r5,r4
    1f94:	18c1ffcc 	andi	r3,r3,2047
    1f98:	003fe406 	br	1f2c <__extendsfdf2+0x40>
    1f9c:	80000b26 	beq	r16,zero,1fcc <__extendsfdf2+0xe0>
    1fa0:	800ad0fa 	srli	r5,r16,3
    1fa4:	00800434 	movhi	r2,16
    1fa8:	10bfffc4 	addi	r2,r2,-1
    1fac:	29000234 	orhi	r4,r5,8
    1fb0:	8020977a 	slli	r16,r16,29
    1fb4:	2088703a 	and	r4,r4,r2
    1fb8:	00c1ffc4 	movi	r3,2047
    1fbc:	003fdb06 	br	1f2c <__extendsfdf2+0x40>
    1fc0:	0007883a 	mov	r3,zero
    1fc4:	0009883a 	mov	r4,zero
    1fc8:	003fd806 	br	1f2c <__extendsfdf2+0x40>
    1fcc:	00c1ffc4 	movi	r3,2047
    1fd0:	0009883a 	mov	r4,zero
    1fd4:	003fd506 	br	1f2c <__extendsfdf2+0x40>
    1fd8:	113ffd44 	addi	r4,r2,-11
    1fdc:	810a983a 	sll	r5,r16,r4
    1fe0:	0021883a 	mov	r16,zero
    1fe4:	003fe606 	br	1f80 <__extendsfdf2+0x94>

00001fe8 <__clzsi2>:
    1fe8:	00bfffd4 	movui	r2,65535
    1fec:	11000436 	bltu	r2,r4,2000 <__clzsi2+0x18>
    1ff0:	20804030 	cmpltui	r2,r4,256
    1ff4:	10000e26 	beq	r2,zero,2030 <__clzsi2+0x48>
    1ff8:	01400804 	movi	r5,32
    1ffc:	00000406 	br	2010 <__clzsi2+0x28>
    2000:	00804034 	movhi	r2,256
    2004:	20800736 	bltu	r4,r2,2024 <__clzsi2+0x3c>
    2008:	2008d63a 	srli	r4,r4,24
    200c:	01400204 	movi	r5,8
    2010:	00c00074 	movhi	r3,1
    2014:	20c7883a 	add	r3,r4,r3
    2018:	18b7d403 	ldbu	r2,-8368(r3)
    201c:	2885c83a 	sub	r2,r5,r2
    2020:	f800283a 	ret
    2024:	2008d43a 	srli	r4,r4,16
    2028:	01400404 	movi	r5,16
    202c:	003ff806 	br	2010 <__clzsi2+0x28>
    2030:	2008d23a 	srli	r4,r4,8
    2034:	01400604 	movi	r5,24
    2038:	003ff506 	br	2010 <__clzsi2+0x28>

0000203c <alt_load_section>:
 */

static void ALT_INLINE alt_load_section (alt_u32* from, 
                                         alt_u32* to, 
                                         alt_u32* end)
{
    203c:	defffc04 	addi	sp,sp,-16
    2040:	df000315 	stw	fp,12(sp)
    2044:	df000304 	addi	fp,sp,12
    2048:	e13fff15 	stw	r4,-4(fp)
    204c:	e17ffe15 	stw	r5,-8(fp)
    2050:	e1bffd15 	stw	r6,-12(fp)
  if (to != from)
    2054:	e0fffe17 	ldw	r3,-8(fp)
    2058:	e0bfff17 	ldw	r2,-4(fp)
    205c:	18800c26 	beq	r3,r2,2090 <alt_load_section+0x54>
  {
    while( to != end )
    2060:	00000806 	br	2084 <alt_load_section+0x48>
    {
      *to++ = *from++;
    2064:	e0ffff17 	ldw	r3,-4(fp)
    2068:	18800104 	addi	r2,r3,4
    206c:	e0bfff15 	stw	r2,-4(fp)
    2070:	e0bffe17 	ldw	r2,-8(fp)
    2074:	11000104 	addi	r4,r2,4
    2078:	e13ffe15 	stw	r4,-8(fp)
    207c:	18c00017 	ldw	r3,0(r3)
    2080:	10c00015 	stw	r3,0(r2)
    while( to != end )
    2084:	e0fffe17 	ldw	r3,-8(fp)
    2088:	e0bffd17 	ldw	r2,-12(fp)
    208c:	18bff51e 	bne	r3,r2,2064 <alt_load_section+0x28>
    }
  }
}
    2090:	0001883a 	nop
    2094:	e037883a 	mov	sp,fp
    2098:	df000017 	ldw	fp,0(sp)
    209c:	dec00104 	addi	sp,sp,4
    20a0:	f800283a 	ret

000020a4 <alt_load>:
 * there is no bootloader, so this application is responsible for loading to
 * RAM any sections that are required.
 */  

void alt_load (void)
{
    20a4:	defffe04 	addi	sp,sp,-8
    20a8:	dfc00115 	stw	ra,4(sp)
    20ac:	df000015 	stw	fp,0(sp)
    20b0:	d839883a 	mov	fp,sp
  /* 
   * Copy the .rwdata section. 
   */

  alt_load_section (&__flash_rwdata_start, 
    20b4:	01800074 	movhi	r6,1
    20b8:	31bf3c04 	addi	r6,r6,-784
    20bc:	01400074 	movhi	r5,1
    20c0:	2978ba04 	addi	r5,r5,-7448
    20c4:	01000074 	movhi	r4,1
    20c8:	213f3c04 	addi	r4,r4,-784
    20cc:	000203c0 	call	203c <alt_load_section>

  /*
   * Copy the exception handler.
   */

  alt_load_section (&__flash_exceptions_start, 
    20d0:	01800034 	movhi	r6,0
    20d4:	31808f04 	addi	r6,r6,572
    20d8:	01400034 	movhi	r5,0
    20dc:	29400804 	addi	r5,r5,32
    20e0:	01000034 	movhi	r4,0
    20e4:	21000804 	addi	r4,r4,32
    20e8:	000203c0 	call	203c <alt_load_section>

  /*
   * Copy the .rodata section.
   */

  alt_load_section (&__flash_rodata_start, 
    20ec:	01800074 	movhi	r6,1
    20f0:	31b8ba04 	addi	r6,r6,-7448
    20f4:	01400074 	movhi	r5,1
    20f8:	2977d404 	addi	r5,r5,-8368
    20fc:	01000074 	movhi	r4,1
    2100:	2137d404 	addi	r4,r4,-8368
    2104:	000203c0 	call	203c <alt_load_section>
  
  /*
   * Now ensure that the caches are in synch.
   */
  
  alt_dcache_flush_all();
    2108:	000c9f80 	call	c9f8 <alt_dcache_flush_all>
  alt_icache_flush_all();
    210c:	000cc800 	call	cc80 <alt_icache_flush_all>
}
    2110:	0001883a 	nop
    2114:	e037883a 	mov	sp,fp
    2118:	dfc00117 	ldw	ra,4(sp)
    211c:	df000017 	ldw	fp,0(sp)
    2120:	dec00204 	addi	sp,sp,8
    2124:	f800283a 	ret

00002128 <alt_main>:
 * devices/filesystems/components in the system; and call the entry point for
 * the users application, i.e. main().
 */

void alt_main (void)
{
    2128:	defffb04 	addi	sp,sp,-20
    212c:	dfc00415 	stw	ra,16(sp)
    2130:	df000315 	stw	fp,12(sp)
    2134:	df000304 	addi	fp,sp,12
#endif

  /* ALT LOG - please see HAL/sys/alt_log_printf.h for details */
  ALT_LOG_PRINT_BOOT("[alt_main.c] Entering alt_main, calling alt_irq_init.\r\n");
  /* Initialize the interrupt controller. */
  alt_irq_init (NULL);
    2138:	0009883a 	mov	r4,zero
    213c:	0009e880 	call	9e88 <alt_irq_init>

  /* Initialize the operating system */
  ALT_LOG_PRINT_BOOT("[alt_main.c] Done alt_irq_init, calling alt_os_init.\r\n");
  ALT_OS_INIT();
    2140:	0002da80 	call	2da8 <OSInit>
    2144:	01000044 	movi	r4,1
    2148:	00078200 	call	7820 <OSSemCreate>
    214c:	d0a6d915 	stw	r2,-25756(gp)
    2150:	01000044 	movi	r4,1
    2154:	00078200 	call	7820 <OSSemCreate>
    2158:	d0a6db15 	stw	r2,-25748(gp)
    215c:	d0a6ef04 	addi	r2,gp,-25668
    2160:	e0bffe15 	stw	r2,-8(fp)
    2164:	00800044 	movi	r2,1
    2168:	e0bffd8d 	sth	r2,-10(fp)
 */

static ALT_INLINE int ALT_ALWAYS_INLINE alt_sem_create (OS_EVENT** sem, 
              INT16U value)
{
  *sem = OSSemCreate (value);
    216c:	e0bffd8b 	ldhu	r2,-10(fp)
    2170:	1009883a 	mov	r4,r2
    2174:	00078200 	call	7820 <OSSemCreate>
    2178:	1007883a 	mov	r3,r2
    217c:	e0bffe17 	ldw	r2,-8(fp)
    2180:	10c00015 	stw	r3,0(r2)
  return *sem ? 0 : -1;
    2184:	0001883a 	nop
  ALT_LOG_PRINT_BOOT("[alt_main.c] Done OS Init, calling alt_sem_create.\r\n");
  ALT_SEM_CREATE (&alt_fd_list_lock, 1);

  /* Initialize the device drivers/software components. */
  ALT_LOG_PRINT_BOOT("[alt_main.c] Calling alt_sys_init.\r\n");
  alt_sys_init();
    2188:	0009ec40 	call	9ec4 <alt_sys_init>
   * devices be present (not equal to /dev/null) and if direct drivers
   * aren't being used.
   */

    ALT_LOG_PRINT_BOOT("[alt_main.c] Redirecting IO.\r\n");
    alt_io_redirect(ALT_STDOUT, ALT_STDIN, ALT_STDERR);
    218c:	01800074 	movhi	r6,1
    2190:	31b81404 	addi	r6,r6,-8112
    2194:	01400074 	movhi	r5,1
    2198:	29781404 	addi	r5,r5,-8112
    219c:	01000074 	movhi	r4,1
    21a0:	21381404 	addi	r4,r4,-8112
    21a4:	000cd640 	call	cd64 <alt_io_redirect>
  /* 
   * Call the C++ constructors 
   */

  ALT_LOG_PRINT_BOOT("[alt_main.c] Calling C++ constructors.\r\n");
  _do_ctors ();
    21a8:	000cb280 	call	cb28 <_do_ctors>
   * redefined as _exit()). This is in the interest of reducing code footprint,
   * in that the atexit() overhead is removed when it's not needed.
   */

  ALT_LOG_PRINT_BOOT("[alt_main.c] Calling atexit.\r\n");
  atexit (_do_dtors);
    21ac:	01000074 	movhi	r4,1
    21b0:	2132e304 	addi	r4,r4,-13428
    21b4:	000da200 	call	da20 <atexit>
  ALT_LOG_PRINT_BOOT("[alt_main.c] Calling main.\r\n");

#ifdef ALT_NO_EXIT
  main (alt_argc, alt_argv, alt_envp);
#else
  result = main (alt_argc, alt_argv, alt_envp);
    21b8:	d0a6d617 	ldw	r2,-25768(gp)
    21bc:	d0e6d717 	ldw	r3,-25764(gp)
    21c0:	d126d817 	ldw	r4,-25760(gp)
    21c4:	200d883a 	mov	r6,r4
    21c8:	180b883a 	mov	r5,r3
    21cc:	1009883a 	mov	r4,r2
    21d0:	00002780 	call	278 <main>
    21d4:	e0bfff15 	stw	r2,-4(fp)
  close(STDOUT_FILENO);
    21d8:	01000044 	movi	r4,1
    21dc:	000c9280 	call	c928 <close>
  exit (result);
    21e0:	e13fff17 	ldw	r4,-4(fp)
    21e4:	000da340 	call	da34 <exit>

000021e8 <__env_lock>:
/*
 *
 */

void __env_lock ( struct _reent *_r )
{
    21e8:	deffdf04 	addi	sp,sp,-132
    21ec:	dfc02015 	stw	ra,128(sp)
    21f0:	df001f15 	stw	fp,124(sp)
    21f4:	df001f04 	addi	fp,sp,124
    21f8:	e13fe115 	stw	r4,-124(fp)
  INT8U err;
  int id;

  /* use our priority as a task id */

  err = OSTaskQuery( OS_PRIO_SELF, &tcb );
    21fc:	e0bfe404 	addi	r2,fp,-112
    2200:	100b883a 	mov	r5,r2
    2204:	01003fc4 	movi	r4,255
    2208:	00097bc0 	call	97bc <OSTaskQuery>
    220c:	e0bfe245 	stb	r2,-119(fp)
  if (err != OS_NO_ERR)
    2210:	e0bfe243 	ldbu	r2,-119(fp)
    2214:	10803fcc 	andi	r2,r2,255
    2218:	10001d1e 	bne	r2,zero,2290 <__env_lock+0xa8>
    return;

  id = tcb.OSTCBPrio;
    221c:	e0bff083 	ldbu	r2,-62(fp)
    2220:	10803fcc 	andi	r2,r2,255
    2224:	e0bfff15 	stw	r2,-4(fp)
   
  /* see if we own the environment already */

  OSSemQuery( alt_envsem, &semdata );
    2228:	d0a6d917 	ldw	r2,-25756(gp)
    222c:	e0ffe284 	addi	r3,fp,-118
    2230:	180b883a 	mov	r5,r3
    2234:	1009883a 	mov	r4,r2
    2238:	0007ff00 	call	7ff0 <OSSemQuery>
  if( semdata.OSEventGrp && id == lockid ) 
    223c:	e0bfe3c3 	ldbu	r2,-113(fp)
    2240:	10803fcc 	andi	r2,r2,255
    2244:	10000726 	beq	r2,zero,2264 <__env_lock+0x7c>
    2248:	d0a00717 	ldw	r2,-32740(gp)
    224c:	e0ffff17 	ldw	r3,-4(fp)
    2250:	1880041e 	bne	r3,r2,2264 <__env_lock+0x7c>
  {
    /* we do; just count the recursion */

    locks++;
    2254:	d0a6da17 	ldw	r2,-25752(gp)
    2258:	10800044 	addi	r2,r2,1
    225c:	d0a6da15 	stw	r2,-25752(gp)
    locks  = 1;
    lockid = id;
  }

#endif /* OS_THREAD_SAFE_NEWLIB */
  return;
    2260:	00000c06 	br	2294 <__env_lock+0xac>
    OSSemPend( alt_envsem, 0, &err );
    2264:	d0a6d917 	ldw	r2,-25756(gp)
    2268:	e0ffe244 	addi	r3,fp,-119
    226c:	180d883a 	mov	r6,r3
    2270:	000b883a 	mov	r5,zero
    2274:	1009883a 	mov	r4,r2
    2278:	0007b4c0 	call	7b4c <OSSemPend>
    locks  = 1;
    227c:	00800044 	movi	r2,1
    2280:	d0a6da15 	stw	r2,-25752(gp)
    lockid = id;
    2284:	e0bfff17 	ldw	r2,-4(fp)
    2288:	d0a00715 	stw	r2,-32740(gp)
  return;
    228c:	00000106 	br	2294 <__env_lock+0xac>
    return;
    2290:	0001883a 	nop
}
    2294:	e037883a 	mov	sp,fp
    2298:	dfc00117 	ldw	ra,4(sp)
    229c:	df000017 	ldw	fp,0(sp)
    22a0:	dec00204 	addi	sp,sp,8
    22a4:	f800283a 	ret

000022a8 <__env_unlock>:
/*
 *
 */

void __env_unlock ( struct _reent *_r )
{
    22a8:	defffd04 	addi	sp,sp,-12
    22ac:	dfc00215 	stw	ra,8(sp)
    22b0:	df000115 	stw	fp,4(sp)
    22b4:	df000104 	addi	fp,sp,4
    22b8:	e13fff15 	stw	r4,-4(fp)
#if OS_THREAD_SAFE_NEWLIB
  if (locks == 0)
    22bc:	d0a6da17 	ldw	r2,-25752(gp)
    22c0:	10000b26 	beq	r2,zero,22f0 <__env_unlock+0x48>
   /* 
    * release the environment once the number of locks == the number 
    * of unlocks 
    */

  if( (--locks) == 0 ) 
    22c4:	d0a6da17 	ldw	r2,-25752(gp)
    22c8:	10bfffc4 	addi	r2,r2,-1
    22cc:	d0a6da15 	stw	r2,-25752(gp)
    22d0:	d0a6da17 	ldw	r2,-25752(gp)
    22d4:	1000071e 	bne	r2,zero,22f4 <__env_unlock+0x4c>
  {
    lockid = -1;
    22d8:	00bfffc4 	movi	r2,-1
    22dc:	d0a00715 	stw	r2,-32740(gp)
    OSSemPost( alt_envsem );
    22e0:	d0a6d917 	ldw	r2,-25756(gp)
    22e4:	1009883a 	mov	r4,r2
    22e8:	0007ed40 	call	7ed4 <OSSemPost>
    22ec:	00000106 	br	22f4 <__env_unlock+0x4c>
    return;
    22f0:	0001883a 	nop
  }
#endif /* OS_THREAD_SAFE_NEWLIB */
}
    22f4:	e037883a 	mov	sp,fp
    22f8:	dfc00117 	ldw	ra,4(sp)
    22fc:	df000017 	ldw	fp,0(sp)
    2300:	dec00204 	addi	sp,sp,8
    2304:	f800283a 	ret

00002308 <__malloc_lock>:
/*
 *
 */

void __malloc_lock ( struct _reent *_r )
{
    2308:	deffdb04 	addi	sp,sp,-148
    230c:	dfc02415 	stw	ra,144(sp)
    2310:	df002315 	stw	fp,140(sp)
    2314:	df002304 	addi	fp,sp,140
    2318:	e13fdd15 	stw	r4,-140(fp)
  OS_TCB tcb;
  OS_SEM_DATA semdata;
  INT8U err;
  int id;
#if OS_CRITICAL_METHOD == 3                      /* Allocate storage for CPU status register           */
    OS_CPU_SR  cpu_sr = 0;
    231c:	e03fff15 	stw	zero,-4(fp)
#endif  
  
  if (OSRunning != OS_TRUE)
    2320:	d0a6e543 	ldbu	r2,-25707(gp)
    2324:	10803fcc 	andi	r2,r2,255
    2328:	10800060 	cmpeqi	r2,r2,1
    232c:	10003826 	beq	r2,zero,2410 <__malloc_lock+0x108>
      return;

  /* use our priority as a task id */

  err = OSTaskQuery( OS_PRIO_SELF, &tcb );
    2330:	e0bfe004 	addi	r2,fp,-128
    2334:	100b883a 	mov	r5,r2
    2338:	01003fc4 	movi	r4,255
    233c:	00097bc0 	call	97bc <OSTaskQuery>
    2340:	e0bfde45 	stb	r2,-135(fp)
  if (err != OS_NO_ERR)
    2344:	e0bfde43 	ldbu	r2,-135(fp)
    2348:	10803fcc 	andi	r2,r2,255
    234c:	1000321e 	bne	r2,zero,2418 <__malloc_lock+0x110>
    return;

  id = tcb.OSTCBPrio;
    2350:	e0bfec83 	ldbu	r2,-78(fp)
    2354:	10803fcc 	andi	r2,r2,255
    2358:	e0bffe15 	stw	r2,-8(fp)
   
  /* see if we own the heap already */

  OSSemQuery( alt_heapsem, &semdata );
    235c:	d0a6db17 	ldw	r2,-25748(gp)
    2360:	e0ffde84 	addi	r3,fp,-134
    2364:	180b883a 	mov	r5,r3
    2368:	1009883a 	mov	r4,r2
    236c:	0007ff00 	call	7ff0 <OSSemQuery>
  NIOS2_READ_STATUS (context);
    2370:	0005303a 	rdctl	r2,status
    2374:	e0bffd15 	stw	r2,-12(fp)
  NIOS2_WRITE_STATUS (context & ~NIOS2_STATUS_PIE_MSK);
    2378:	e0fffd17 	ldw	r3,-12(fp)
    237c:	00bfff84 	movi	r2,-2
    2380:	1884703a 	and	r2,r3,r2
    2384:	1001703a 	wrctl	status,r2
  return context;
    2388:	e0bffd17 	ldw	r2,-12(fp)
  
  OS_ENTER_CRITICAL();
    238c:	e0bfff15 	stw	r2,-4(fp)

  if( !semdata.OSCnt && id == lockid ) 
    2390:	e0bfde8b 	ldhu	r2,-134(fp)
    2394:	10bfffcc 	andi	r2,r2,65535
    2398:	10000d1e 	bne	r2,zero,23d0 <__malloc_lock+0xc8>
    239c:	d0a00817 	ldw	r2,-32736(gp)
    23a0:	e0fffe17 	ldw	r3,-8(fp)
    23a4:	18800a1e 	bne	r3,r2,23d0 <__malloc_lock+0xc8>
  {
    /* we do; just count the recursion */
    locks++;
    23a8:	d0a6dc17 	ldw	r2,-25744(gp)
    23ac:	10800044 	addi	r2,r2,1
    23b0:	d0a6dc15 	stw	r2,-25744(gp)
    23b4:	e0bfff17 	ldw	r2,-4(fp)
    23b8:	e0bffc15 	stw	r2,-16(fp)
  NIOS2_WRITE_STATUS (context);
    23bc:	e0bffc17 	ldw	r2,-16(fp)
    23c0:	1001703a 	wrctl	status,r2
}
    23c4:	0001883a 	nop
    OS_EXIT_CRITICAL();
    23c8:	0001883a 	nop
    locks  = 1;
    lockid = id;
  }

#endif /* OS_THREAD_SAFE_NEWLIB */
  return;
    23cc:	00001306 	br	241c <__malloc_lock+0x114>
    23d0:	e0bfff17 	ldw	r2,-4(fp)
    23d4:	e0bffb15 	stw	r2,-20(fp)
  NIOS2_WRITE_STATUS (context);
    23d8:	e0bffb17 	ldw	r2,-20(fp)
    23dc:	1001703a 	wrctl	status,r2
}
    23e0:	0001883a 	nop
    OSSemPend( alt_heapsem, 0, &err );
    23e4:	d0a6db17 	ldw	r2,-25748(gp)
    23e8:	e0ffde44 	addi	r3,fp,-135
    23ec:	180d883a 	mov	r6,r3
    23f0:	000b883a 	mov	r5,zero
    23f4:	1009883a 	mov	r4,r2
    23f8:	0007b4c0 	call	7b4c <OSSemPend>
    locks  = 1;
    23fc:	00800044 	movi	r2,1
    2400:	d0a6dc15 	stw	r2,-25744(gp)
    lockid = id;
    2404:	e0bffe17 	ldw	r2,-8(fp)
    2408:	d0a00815 	stw	r2,-32736(gp)
  return;
    240c:	00000306 	br	241c <__malloc_lock+0x114>
      return;
    2410:	0001883a 	nop
    2414:	00000106 	br	241c <__malloc_lock+0x114>
    return;
    2418:	0001883a 	nop
}
    241c:	e037883a 	mov	sp,fp
    2420:	dfc00117 	ldw	ra,4(sp)
    2424:	df000017 	ldw	fp,0(sp)
    2428:	dec00204 	addi	sp,sp,8
    242c:	f800283a 	ret

00002430 <__malloc_unlock>:
/*
 *
 */

void __malloc_unlock ( struct _reent *_r )
{
    2430:	defff804 	addi	sp,sp,-32
    2434:	dfc00715 	stw	ra,28(sp)
    2438:	df000615 	stw	fp,24(sp)
    243c:	df000604 	addi	fp,sp,24
    2440:	e13ffa15 	stw	r4,-24(fp)
#if OS_THREAD_SAFE_NEWLIB

#if OS_CRITICAL_METHOD == 3                      /* Allocate storage for CPU status register           */
    OS_CPU_SR  cpu_sr = 0;
    2444:	e03fff15 	stw	zero,-4(fp)
#endif 

  if (OSRunning != OS_TRUE)
    2448:	d0a6e543 	ldbu	r2,-25707(gp)
    244c:	10803fcc 	andi	r2,r2,255
    2450:	10800060 	cmpeqi	r2,r2,1
    2454:	10002526 	beq	r2,zero,24ec <__malloc_unlock+0xbc>
  NIOS2_READ_STATUS (context);
    2458:	0005303a 	rdctl	r2,status
    245c:	e0bffe15 	stw	r2,-8(fp)
  NIOS2_WRITE_STATUS (context & ~NIOS2_STATUS_PIE_MSK);
    2460:	e0fffe17 	ldw	r3,-8(fp)
    2464:	00bfff84 	movi	r2,-2
    2468:	1884703a 	and	r2,r3,r2
    246c:	1001703a 	wrctl	status,r2
  return context;
    2470:	e0bffe17 	ldw	r2,-8(fp)
      return;

  OS_ENTER_CRITICAL();
    2474:	e0bfff15 	stw	r2,-4(fp)
  if (locks == 0)
    2478:	d0a6dc17 	ldw	r2,-25744(gp)
    247c:	1000061e 	bne	r2,zero,2498 <__malloc_unlock+0x68>
    2480:	e0bfff17 	ldw	r2,-4(fp)
    2484:	e0bffd15 	stw	r2,-12(fp)
  NIOS2_WRITE_STATUS (context);
    2488:	e0bffd17 	ldw	r2,-12(fp)
    248c:	1001703a 	wrctl	status,r2
}
    2490:	0001883a 	nop
  {
      OS_EXIT_CRITICAL();
      return;
    2494:	00001606 	br	24f0 <__malloc_unlock+0xc0>
  }

  /* release the heap once the number of locks == the number of unlocks */
  if( (--locks) == 0 ) 
    2498:	d0a6dc17 	ldw	r2,-25744(gp)
    249c:	10bfffc4 	addi	r2,r2,-1
    24a0:	d0a6dc15 	stw	r2,-25744(gp)
    24a4:	d0a6dc17 	ldw	r2,-25744(gp)
    24a8:	10000b1e 	bne	r2,zero,24d8 <__malloc_unlock+0xa8>
  {
    lockid = -1;
    24ac:	00bfffc4 	movi	r2,-1
    24b0:	d0a00815 	stw	r2,-32736(gp)
    24b4:	e0bfff17 	ldw	r2,-4(fp)
    24b8:	e0bffc15 	stw	r2,-16(fp)
  NIOS2_WRITE_STATUS (context);
    24bc:	e0bffc17 	ldw	r2,-16(fp)
    24c0:	1001703a 	wrctl	status,r2
}
    24c4:	0001883a 	nop
    OS_EXIT_CRITICAL();
    OSSemPost( alt_heapsem );
    24c8:	d0a6db17 	ldw	r2,-25748(gp)
    24cc:	1009883a 	mov	r4,r2
    24d0:	0007ed40 	call	7ed4 <OSSemPost>
    24d4:	00000606 	br	24f0 <__malloc_unlock+0xc0>
    24d8:	e0bfff17 	ldw	r2,-4(fp)
    24dc:	e0bffb15 	stw	r2,-20(fp)
  NIOS2_WRITE_STATUS (context);
    24e0:	e0bffb17 	ldw	r2,-20(fp)
    24e4:	1001703a 	wrctl	status,r2
}
    24e8:	00000106 	br	24f0 <__malloc_unlock+0xc0>
      return;
    24ec:	0001883a 	nop
  {
      OS_EXIT_CRITICAL();
  }
  
#endif /* OS_THREAD_SAFE_NEWLIB */
}
    24f0:	e037883a 	mov	sp,fp
    24f4:	dfc00117 	ldw	ra,4(sp)
    24f8:	df000017 	ldw	fp,0(sp)
    24fc:	dec00204 	addi	sp,sp,8
    2500:	f800283a 	ret

00002504 <OSEventNameGet>:
*********************************************************************************************************
*/

#if (OS_EVENT_EN) && (OS_EVENT_NAME_SIZE > 1)
INT8U  OSEventNameGet (OS_EVENT *pevent, INT8U *pname, INT8U *perr)
{
    2504:	defff704 	addi	sp,sp,-36
    2508:	dfc00815 	stw	ra,32(sp)
    250c:	df000715 	stw	fp,28(sp)
    2510:	df000704 	addi	fp,sp,28
    2514:	e13ffb15 	stw	r4,-20(fp)
    2518:	e17ffa15 	stw	r5,-24(fp)
    251c:	e1bff915 	stw	r6,-28(fp)
    INT8U      len;
#if OS_CRITICAL_METHOD == 3                      /* Allocate storage for CPU status register           */
    OS_CPU_SR  cpu_sr = 0;
    2520:	e03fff15 	stw	zero,-4(fp)
#endif



#if OS_ARG_CHK_EN > 0
    if (perr == (INT8U *)0) {                    /* Validate 'perr'                                    */
    2524:	e0bff917 	ldw	r2,-28(fp)
    2528:	1000021e 	bne	r2,zero,2534 <OSEventNameGet+0x30>
        return (0);
    252c:	0005883a 	mov	r2,zero
    2530:	00003806 	br	2614 <OSEventNameGet+0x110>
    }
    if (pevent == (OS_EVENT *)0) {               /* Is 'pevent' a NULL pointer?                        */
    2534:	e0bffb17 	ldw	r2,-20(fp)
    2538:	1000051e 	bne	r2,zero,2550 <OSEventNameGet+0x4c>
        *perr = OS_ERR_PEVENT_NULL;
    253c:	e0bff917 	ldw	r2,-28(fp)
    2540:	00c00104 	movi	r3,4
    2544:	10c00005 	stb	r3,0(r2)
        return (0);
    2548:	0005883a 	mov	r2,zero
    254c:	00003106 	br	2614 <OSEventNameGet+0x110>
    }
    if (pname == (INT8U *)0) {                   /* Is 'pname' a NULL pointer?                         */
    2550:	e0bffa17 	ldw	r2,-24(fp)
    2554:	1000051e 	bne	r2,zero,256c <OSEventNameGet+0x68>
        *perr = OS_ERR_PNAME_NULL;
    2558:	e0bff917 	ldw	r2,-28(fp)
    255c:	00c00304 	movi	r3,12
    2560:	10c00005 	stb	r3,0(r2)
        return (0);
    2564:	0005883a 	mov	r2,zero
    2568:	00002a06 	br	2614 <OSEventNameGet+0x110>
    }
#endif
    if (OSIntNesting > 0) {                      /* See if trying to call from an ISR                  */
    256c:	d0a6e343 	ldbu	r2,-25715(gp)
    2570:	10803fcc 	andi	r2,r2,255
    2574:	10000526 	beq	r2,zero,258c <OSEventNameGet+0x88>
        *perr  = OS_ERR_NAME_GET_ISR;
    2578:	e0bff917 	ldw	r2,-28(fp)
    257c:	00c00444 	movi	r3,17
    2580:	10c00005 	stb	r3,0(r2)
        return (0);
    2584:	0005883a 	mov	r2,zero
    2588:	00002206 	br	2614 <OSEventNameGet+0x110>
    }
    switch (pevent->OSEventType) {
    258c:	e0bffb17 	ldw	r2,-20(fp)
    2590:	10800003 	ldbu	r2,0(r2)
    2594:	10803fcc 	andi	r2,r2,255
    2598:	10bfffc4 	addi	r2,r2,-1
    259c:	10800128 	cmpgeui	r2,r2,4
    25a0:	10000526 	beq	r2,zero,25b8 <OSEventNameGet+0xb4>
        case OS_EVENT_TYPE_MBOX:
        case OS_EVENT_TYPE_Q:
             break;

        default:
             *perr = OS_ERR_EVENT_TYPE;
    25a4:	e0bff917 	ldw	r2,-28(fp)
    25a8:	00c00044 	movi	r3,1
    25ac:	10c00005 	stb	r3,0(r2)
             return (0);
    25b0:	0005883a 	mov	r2,zero
    25b4:	00001706 	br	2614 <OSEventNameGet+0x110>
             break;
    25b8:	0001883a 	nop
  NIOS2_READ_STATUS (context);
    25bc:	0005303a 	rdctl	r2,status
    25c0:	e0bffc15 	stw	r2,-16(fp)
  NIOS2_WRITE_STATUS (context & ~NIOS2_STATUS_PIE_MSK);
    25c4:	e0fffc17 	ldw	r3,-16(fp)
    25c8:	00bfff84 	movi	r2,-2
    25cc:	1884703a 	and	r2,r3,r2
    25d0:	1001703a 	wrctl	status,r2
  return context;
    25d4:	e0bffc17 	ldw	r2,-16(fp)
    }
    OS_ENTER_CRITICAL();
    25d8:	e0bfff15 	stw	r2,-4(fp)
    len   = OS_StrCopy(pname, pevent->OSEventName);   /* Copy name from OS_EVENT                       */
    25dc:	e0bffb17 	ldw	r2,-20(fp)
    25e0:	10800384 	addi	r2,r2,14
    25e4:	100b883a 	mov	r5,r2
    25e8:	e13ffa17 	ldw	r4,-24(fp)
    25ec:	0003fb40 	call	3fb4 <OS_StrCopy>
    25f0:	e0bffec5 	stb	r2,-5(fp)
    25f4:	e0bfff17 	ldw	r2,-4(fp)
    25f8:	e0bffd15 	stw	r2,-12(fp)
  NIOS2_WRITE_STATUS (context);
    25fc:	e0bffd17 	ldw	r2,-12(fp)
    2600:	1001703a 	wrctl	status,r2
}
    2604:	0001883a 	nop
    OS_EXIT_CRITICAL();
    *perr = OS_ERR_NONE;
    2608:	e0bff917 	ldw	r2,-28(fp)
    260c:	10000005 	stb	zero,0(r2)
    return (len);
    2610:	e0bffec3 	ldbu	r2,-5(fp)
}
    2614:	e037883a 	mov	sp,fp
    2618:	dfc00117 	ldw	ra,4(sp)
    261c:	df000017 	ldw	fp,0(sp)
    2620:	dec00204 	addi	sp,sp,8
    2624:	f800283a 	ret

00002628 <OSEventNameSet>:
*********************************************************************************************************
*/

#if (OS_EVENT_EN) && (OS_EVENT_NAME_SIZE > 1)
void  OSEventNameSet (OS_EVENT *pevent, INT8U *pname, INT8U *perr)
{
    2628:	defff604 	addi	sp,sp,-40
    262c:	dfc00915 	stw	ra,36(sp)
    2630:	df000815 	stw	fp,32(sp)
    2634:	df000804 	addi	fp,sp,32
    2638:	e13ffa15 	stw	r4,-24(fp)
    263c:	e17ff915 	stw	r5,-28(fp)
    2640:	e1bff815 	stw	r6,-32(fp)
    INT8U      len;
#if OS_CRITICAL_METHOD == 3                      /* Allocate storage for CPU status register           */
    OS_CPU_SR  cpu_sr = 0;
    2644:	e03fff15 	stw	zero,-4(fp)
#endif



#if OS_ARG_CHK_EN > 0
    if (perr == (INT8U *)0) {                    /* Validate 'perr'                                    */
    2648:	e0bff817 	ldw	r2,-32(fp)
    264c:	10004226 	beq	r2,zero,2758 <OSEventNameSet+0x130>
        return;
    }
    if (pevent == (OS_EVENT *)0) {               /* Is 'pevent' a NULL pointer?                        */
    2650:	e0bffa17 	ldw	r2,-24(fp)
    2654:	1000041e 	bne	r2,zero,2668 <OSEventNameSet+0x40>
        *perr = OS_ERR_PEVENT_NULL;
    2658:	e0bff817 	ldw	r2,-32(fp)
    265c:	00c00104 	movi	r3,4
    2660:	10c00005 	stb	r3,0(r2)
        return;
    2664:	00003d06 	br	275c <OSEventNameSet+0x134>
    }
    if (pname == (INT8U *)0) {                   /* Is 'pname' a NULL pointer?                         */
    2668:	e0bff917 	ldw	r2,-28(fp)
    266c:	1000041e 	bne	r2,zero,2680 <OSEventNameSet+0x58>
        *perr = OS_ERR_PNAME_NULL;
    2670:	e0bff817 	ldw	r2,-32(fp)
    2674:	00c00304 	movi	r3,12
    2678:	10c00005 	stb	r3,0(r2)
        return;
    267c:	00003706 	br	275c <OSEventNameSet+0x134>
    }
#endif
    if (OSIntNesting > 0) {                      /* See if trying to call from an ISR                  */
    2680:	d0a6e343 	ldbu	r2,-25715(gp)
    2684:	10803fcc 	andi	r2,r2,255
    2688:	10000426 	beq	r2,zero,269c <OSEventNameSet+0x74>
        *perr = OS_ERR_NAME_SET_ISR;
    268c:	e0bff817 	ldw	r2,-32(fp)
    2690:	00c00484 	movi	r3,18
    2694:	10c00005 	stb	r3,0(r2)
        return;
    2698:	00003006 	br	275c <OSEventNameSet+0x134>
    }
    switch (pevent->OSEventType) {
    269c:	e0bffa17 	ldw	r2,-24(fp)
    26a0:	10800003 	ldbu	r2,0(r2)
    26a4:	10803fcc 	andi	r2,r2,255
    26a8:	10bfffc4 	addi	r2,r2,-1
    26ac:	10800128 	cmpgeui	r2,r2,4
    26b0:	10000426 	beq	r2,zero,26c4 <OSEventNameSet+0x9c>
        case OS_EVENT_TYPE_MBOX:
        case OS_EVENT_TYPE_Q:
             break;

        default:
             *perr = OS_ERR_EVENT_TYPE;
    26b4:	e0bff817 	ldw	r2,-32(fp)
    26b8:	00c00044 	movi	r3,1
    26bc:	10c00005 	stb	r3,0(r2)
             return;
    26c0:	00002606 	br	275c <OSEventNameSet+0x134>
             break;
    26c4:	0001883a 	nop
  NIOS2_READ_STATUS (context);
    26c8:	0005303a 	rdctl	r2,status
    26cc:	e0bffd15 	stw	r2,-12(fp)
  NIOS2_WRITE_STATUS (context & ~NIOS2_STATUS_PIE_MSK);
    26d0:	e0fffd17 	ldw	r3,-12(fp)
    26d4:	00bfff84 	movi	r2,-2
    26d8:	1884703a 	and	r2,r3,r2
    26dc:	1001703a 	wrctl	status,r2
  return context;
    26e0:	e0bffd17 	ldw	r2,-12(fp)
    }
    OS_ENTER_CRITICAL();
    26e4:	e0bfff15 	stw	r2,-4(fp)
    len = OS_StrLen(pname);                           /* Can we fit the string in the storage area?    */
    26e8:	e13ff917 	ldw	r4,-28(fp)
    26ec:	00040280 	call	4028 <OS_StrLen>
    26f0:	e0bffec5 	stb	r2,-5(fp)
    if (len > (OS_EVENT_NAME_SIZE - 1)) {             /* No                                            */
    26f4:	e0bffec3 	ldbu	r2,-5(fp)
    26f8:	10800830 	cmpltui	r2,r2,32
    26fc:	1000091e 	bne	r2,zero,2724 <OSEventNameSet+0xfc>
    2700:	e0bfff17 	ldw	r2,-4(fp)
    2704:	e0bffc15 	stw	r2,-16(fp)
  NIOS2_WRITE_STATUS (context);
    2708:	e0bffc17 	ldw	r2,-16(fp)
    270c:	1001703a 	wrctl	status,r2
}
    2710:	0001883a 	nop
        OS_EXIT_CRITICAL();
        *perr = OS_ERR_EVENT_NAME_TOO_LONG;
    2714:	e0bff817 	ldw	r2,-32(fp)
    2718:	00c002c4 	movi	r3,11
    271c:	10c00005 	stb	r3,0(r2)
        return;
    2720:	00000e06 	br	275c <OSEventNameSet+0x134>
    }
    (void)OS_StrCopy(pevent->OSEventName, pname);     /* Yes, copy name to the event control block     */
    2724:	e0bffa17 	ldw	r2,-24(fp)
    2728:	10800384 	addi	r2,r2,14
    272c:	e17ff917 	ldw	r5,-28(fp)
    2730:	1009883a 	mov	r4,r2
    2734:	0003fb40 	call	3fb4 <OS_StrCopy>
    2738:	e0bfff17 	ldw	r2,-4(fp)
    273c:	e0bffb15 	stw	r2,-20(fp)
  NIOS2_WRITE_STATUS (context);
    2740:	e0bffb17 	ldw	r2,-20(fp)
    2744:	1001703a 	wrctl	status,r2
}
    2748:	0001883a 	nop
    OS_EXIT_CRITICAL();
    *perr = OS_ERR_NONE;
    274c:	e0bff817 	ldw	r2,-32(fp)
    2750:	10000005 	stb	zero,0(r2)
    2754:	00000106 	br	275c <OSEventNameSet+0x134>
        return;
    2758:	0001883a 	nop
}
    275c:	e037883a 	mov	sp,fp
    2760:	dfc00117 	ldw	ra,4(sp)
    2764:	df000017 	ldw	fp,0(sp)
    2768:	dec00204 	addi	sp,sp,8
    276c:	f800283a 	ret

00002770 <OSEventPendMulti>:
*********************************************************************************************************
*/
/*$PAGE*/
#if ((OS_EVENT_EN) && (OS_EVENT_MULTI_EN > 0))
INT16U  OSEventPendMulti (OS_EVENT **pevents_pend, OS_EVENT **pevents_rdy, void **pmsgs_rdy, INT16U timeout, INT8U *perr)
{
    2770:	deffed04 	addi	sp,sp,-76
    2774:	dfc01215 	stw	ra,72(sp)
    2778:	df001115 	stw	fp,68(sp)
    277c:	df001104 	addi	fp,sp,68
    2780:	e13ff215 	stw	r4,-56(fp)
    2784:	e17ff115 	stw	r5,-60(fp)
    2788:	e1bff015 	stw	r6,-64(fp)
    278c:	3805883a 	mov	r2,r7
    2790:	e0bfef0d 	sth	r2,-68(fp)
#endif
    BOOLEAN     events_rdy;
    INT16U      events_rdy_nbr;
    INT8U       events_stat;
#if (OS_CRITICAL_METHOD == 3)                           /* Allocate storage for CPU status register    */
    OS_CPU_SR   cpu_sr = 0;
    2794:	e03ffb15 	stw	zero,-20(fp)
#endif



#if (OS_ARG_CHK_EN > 0)
    if (perr == (INT8U *)0) {                           /* Validate 'perr'                             */
    2798:	e0800217 	ldw	r2,8(fp)
    279c:	1000021e 	bne	r2,zero,27a8 <OSEventPendMulti+0x38>
        return (0);
    27a0:	0005883a 	mov	r2,zero
    27a4:	00017b06 	br	2d94 <OSEventPendMulti+0x624>
    }
    if (pevents_pend == (OS_EVENT **)0) {               /* Validate 'pevents_pend'                     */
    27a8:	e0bff217 	ldw	r2,-56(fp)
    27ac:	1000051e 	bne	r2,zero,27c4 <OSEventPendMulti+0x54>
       *perr =  OS_ERR_PEVENT_NULL;
    27b0:	e0800217 	ldw	r2,8(fp)
    27b4:	00c00104 	movi	r3,4
    27b8:	10c00005 	stb	r3,0(r2)
        return (0);
    27bc:	0005883a 	mov	r2,zero
    27c0:	00017406 	br	2d94 <OSEventPendMulti+0x624>
    }
    if (pevents_rdy  == (OS_EVENT **)0) {               /* Validate 'pevents_rdy'                      */
    27c4:	e0bff117 	ldw	r2,-60(fp)
    27c8:	1000051e 	bne	r2,zero,27e0 <OSEventPendMulti+0x70>
       *perr =  OS_ERR_PEVENT_NULL;
    27cc:	e0800217 	ldw	r2,8(fp)
    27d0:	00c00104 	movi	r3,4
    27d4:	10c00005 	stb	r3,0(r2)
        return (0);
    27d8:	0005883a 	mov	r2,zero
    27dc:	00016d06 	br	2d94 <OSEventPendMulti+0x624>
    }
    if (pmsgs_rdy == (void **)0) {                      /* Validate 'pmsgs_rdy'                        */
    27e0:	e0bff017 	ldw	r2,-64(fp)
    27e4:	1000051e 	bne	r2,zero,27fc <OSEventPendMulti+0x8c>
       *perr =  OS_ERR_PEVENT_NULL;
    27e8:	e0800217 	ldw	r2,8(fp)
    27ec:	00c00104 	movi	r3,4
    27f0:	10c00005 	stb	r3,0(r2)
        return (0);
    27f4:	0005883a 	mov	r2,zero
    27f8:	00016606 	br	2d94 <OSEventPendMulti+0x624>
    }
#endif

   *pevents_rdy = (OS_EVENT *)0;                        /* Init array to NULL in case of errors        */
    27fc:	e0bff117 	ldw	r2,-60(fp)
    2800:	10000015 	stw	zero,0(r2)

    pevents     =  pevents_pend;
    2804:	e0bff217 	ldw	r2,-56(fp)
    2808:	e0bfff15 	stw	r2,-4(fp)
    pevent      = *pevents;
    280c:	e0bfff17 	ldw	r2,-4(fp)
    2810:	10800017 	ldw	r2,0(r2)
    2814:	e0bffe15 	stw	r2,-8(fp)
    while  (pevent != (OS_EVENT *)0) {
    2818:	00001b06 	br	2888 <OSEventPendMulti+0x118>
        switch (pevent->OSEventType) {                  /* Validate event block types                  */
    281c:	e0bffe17 	ldw	r2,-8(fp)
    2820:	10800003 	ldbu	r2,0(r2)
    2824:	10803fcc 	andi	r2,r2,255
    2828:	10c000e0 	cmpeqi	r3,r2,3
    282c:	18000b1e 	bne	r3,zero,285c <OSEventPendMulti+0xec>
    2830:	10c00108 	cmpgei	r3,r2,4
    2834:	1800041e 	bne	r3,zero,2848 <OSEventPendMulti+0xd8>
    2838:	10c00060 	cmpeqi	r3,r2,1
    283c:	1800091e 	bne	r3,zero,2864 <OSEventPendMulti+0xf4>
    2840:	108000a0 	cmpeqi	r2,r2,2
    2844:	1000091e 	bne	r2,zero,286c <OSEventPendMulti+0xfc>
#endif

            case OS_EVENT_TYPE_MUTEX:                                            
            case OS_EVENT_TYPE_FLAG:
            default:           
                *perr = OS_ERR_EVENT_TYPE;
    2848:	e0800217 	ldw	r2,8(fp)
    284c:	00c00044 	movi	r3,1
    2850:	10c00005 	stb	r3,0(r2)
                 return (0);
    2854:	0005883a 	mov	r2,zero
    2858:	00014e06 	br	2d94 <OSEventPendMulti+0x624>
                 break;
    285c:	0001883a 	nop
    2860:	00000306 	br	2870 <OSEventPendMulti+0x100>
                 break;
    2864:	0001883a 	nop
    2868:	00000106 	br	2870 <OSEventPendMulti+0x100>
                 break;
    286c:	0001883a 	nop
        }
        pevents++;
    2870:	e0bfff17 	ldw	r2,-4(fp)
    2874:	10800104 	addi	r2,r2,4
    2878:	e0bfff15 	stw	r2,-4(fp)
        pevent = *pevents;
    287c:	e0bfff17 	ldw	r2,-4(fp)
    2880:	10800017 	ldw	r2,0(r2)
    2884:	e0bffe15 	stw	r2,-8(fp)
    while  (pevent != (OS_EVENT *)0) {
    2888:	e0bffe17 	ldw	r2,-8(fp)
    288c:	103fe31e 	bne	r2,zero,281c <OSEventPendMulti+0xac>
    }

    if (OSIntNesting  > 0) {                            /* See if called from ISR ...                  */
    2890:	d0a6e343 	ldbu	r2,-25715(gp)
    2894:	10803fcc 	andi	r2,r2,255
    2898:	10000526 	beq	r2,zero,28b0 <OSEventPendMulti+0x140>
       *perr =  OS_ERR_PEND_ISR;                        /* ... can't PEND from an ISR                  */
    289c:	e0800217 	ldw	r2,8(fp)
    28a0:	00c00084 	movi	r3,2
    28a4:	10c00005 	stb	r3,0(r2)
        return (0);
    28a8:	0005883a 	mov	r2,zero
    28ac:	00013906 	br	2d94 <OSEventPendMulti+0x624>
    }
    if (OSLockNesting > 0) {                            /* See if called with scheduler locked ...     */
    28b0:	d0a6e383 	ldbu	r2,-25714(gp)
    28b4:	10803fcc 	andi	r2,r2,255
    28b8:	10000526 	beq	r2,zero,28d0 <OSEventPendMulti+0x160>
       *perr =  OS_ERR_PEND_LOCKED;                     /* ... can't PEND when locked                  */
    28bc:	e0800217 	ldw	r2,8(fp)
    28c0:	00c00344 	movi	r3,13
    28c4:	10c00005 	stb	r3,0(r2)
        return (0);
    28c8:	0005883a 	mov	r2,zero
    28cc:	00013106 	br	2d94 <OSEventPendMulti+0x624>
  NIOS2_READ_STATUS (context);
    28d0:	0005303a 	rdctl	r2,status
    28d4:	e0bff915 	stw	r2,-28(fp)
  NIOS2_WRITE_STATUS (context & ~NIOS2_STATUS_PIE_MSK);
    28d8:	e0fff917 	ldw	r3,-28(fp)
    28dc:	00bfff84 	movi	r2,-2
    28e0:	1884703a 	and	r2,r3,r2
    28e4:	1001703a 	wrctl	status,r2
  return context;
    28e8:	e0bff917 	ldw	r2,-28(fp)
    }

/*$PAGE*/
    OS_ENTER_CRITICAL();
    28ec:	e0bffb15 	stw	r2,-20(fp)
    events_rdy     =  OS_FALSE;
    28f0:	e03ffdc5 	stb	zero,-9(fp)
    events_rdy_nbr =  0;
    28f4:	e03ffd0d 	sth	zero,-12(fp)
    events_stat    =  OS_STAT_RDY;
    28f8:	e03ffcc5 	stb	zero,-13(fp)
    pevents        =  pevents_pend;
    28fc:	e0bff217 	ldw	r2,-56(fp)
    2900:	e0bfff15 	stw	r2,-4(fp)
    pevent         = *pevents;
    2904:	e0bfff17 	ldw	r2,-4(fp)
    2908:	10800017 	ldw	r2,0(r2)
    290c:	e0bffe15 	stw	r2,-8(fp)
    while (pevent != (OS_EVENT *)0) {                   /* See if any events already available         */
    2910:	00008406 	br	2b24 <OSEventPendMulti+0x3b4>
        switch (pevent->OSEventType) {
    2914:	e0bffe17 	ldw	r2,-8(fp)
    2918:	10800003 	ldbu	r2,0(r2)
    291c:	10803fcc 	andi	r2,r2,255
    2920:	10c000e0 	cmpeqi	r3,r2,3
    2924:	1800071e 	bne	r3,zero,2944 <OSEventPendMulti+0x1d4>
    2928:	10c00108 	cmpgei	r3,r2,4
    292c:	18006b1e 	bne	r3,zero,2adc <OSEventPendMulti+0x36c>
    2930:	10c00060 	cmpeqi	r3,r2,1
    2934:	1800201e 	bne	r3,zero,29b8 <OSEventPendMulti+0x248>
    2938:	108000a0 	cmpeqi	r2,r2,2
    293c:	1000381e 	bne	r2,zero,2a20 <OSEventPendMulti+0x2b0>
    2940:	00006606 	br	2adc <OSEventPendMulti+0x36c>
#if (OS_SEM_EN > 0)
            case OS_EVENT_TYPE_SEM:
                 if (pevent->OSEventCnt > 0) {          /* If semaphore count > 0, resource available; */
    2944:	e0bffe17 	ldw	r2,-8(fp)
    2948:	1080020b 	ldhu	r2,8(r2)
    294c:	10bfffcc 	andi	r2,r2,65535
    2950:	10001526 	beq	r2,zero,29a8 <OSEventPendMulti+0x238>
                     pevent->OSEventCnt--;              /* ... decrement semaphore,                ... */
    2954:	e0bffe17 	ldw	r2,-8(fp)
    2958:	1080020b 	ldhu	r2,8(r2)
    295c:	10bfffc4 	addi	r2,r2,-1
    2960:	1007883a 	mov	r3,r2
    2964:	e0bffe17 	ldw	r2,-8(fp)
    2968:	10c0020d 	sth	r3,8(r2)
                    *pevents_rdy++ =  pevent;           /* ... and return available semaphore event    */
    296c:	e0bff117 	ldw	r2,-60(fp)
    2970:	10c00104 	addi	r3,r2,4
    2974:	e0fff115 	stw	r3,-60(fp)
    2978:	e0fffe17 	ldw	r3,-8(fp)
    297c:	10c00015 	stw	r3,0(r2)
                      events_rdy   =  OS_TRUE;
    2980:	00800044 	movi	r2,1
    2984:	e0bffdc5 	stb	r2,-9(fp)
                    *pmsgs_rdy++   = (void *)0;         /* NO message returned  for semaphores         */
    2988:	e0bff017 	ldw	r2,-64(fp)
    298c:	10c00104 	addi	r3,r2,4
    2990:	e0fff015 	stw	r3,-64(fp)
    2994:	10000015 	stw	zero,0(r2)
                      events_rdy_nbr++;
    2998:	e0bffd0b 	ldhu	r2,-12(fp)
    299c:	10800044 	addi	r2,r2,1
    29a0:	e0bffd0d 	sth	r2,-12(fp)

                 } else {
                      events_stat |=  OS_STAT_SEM;      /* Configure multi-pend for semaphore events   */
                 }
                 break;
    29a4:	00005906 	br	2b0c <OSEventPendMulti+0x39c>
                      events_stat |=  OS_STAT_SEM;      /* Configure multi-pend for semaphore events   */
    29a8:	e0bffcc3 	ldbu	r2,-13(fp)
    29ac:	10800054 	ori	r2,r2,1
    29b0:	e0bffcc5 	stb	r2,-13(fp)
                 break;
    29b4:	00005506 	br	2b0c <OSEventPendMulti+0x39c>
#endif

#if (OS_MBOX_EN > 0)
            case OS_EVENT_TYPE_MBOX:
                 if (pevent->OSEventPtr != (void *)0) { /* If mailbox NOT empty;                   ... */
    29b8:	e0bffe17 	ldw	r2,-8(fp)
    29bc:	10800117 	ldw	r2,4(r2)
    29c0:	10001326 	beq	r2,zero,2a10 <OSEventPendMulti+0x2a0>
                                                        /* ... return available message,           ... */
                    *pmsgs_rdy++         = (void *)pevent->OSEventPtr;
    29c4:	e0bff017 	ldw	r2,-64(fp)
    29c8:	10c00104 	addi	r3,r2,4
    29cc:	e0fff015 	stw	r3,-64(fp)
    29d0:	e0fffe17 	ldw	r3,-8(fp)
    29d4:	18c00117 	ldw	r3,4(r3)
    29d8:	10c00015 	stw	r3,0(r2)
                     pevent->OSEventPtr  = (void *)0;
    29dc:	e0bffe17 	ldw	r2,-8(fp)
    29e0:	10000115 	stw	zero,4(r2)
                    *pevents_rdy++       =  pevent;     /* ... and return available mailbox event      */
    29e4:	e0bff117 	ldw	r2,-60(fp)
    29e8:	10c00104 	addi	r3,r2,4
    29ec:	e0fff115 	stw	r3,-60(fp)
    29f0:	e0fffe17 	ldw	r3,-8(fp)
    29f4:	10c00015 	stw	r3,0(r2)
                      events_rdy         =  OS_TRUE;
    29f8:	00800044 	movi	r2,1
    29fc:	e0bffdc5 	stb	r2,-9(fp)
                      events_rdy_nbr++;
    2a00:	e0bffd0b 	ldhu	r2,-12(fp)
    2a04:	10800044 	addi	r2,r2,1
    2a08:	e0bffd0d 	sth	r2,-12(fp)

                 } else {
                      events_stat |= OS_STAT_MBOX;      /* Configure multi-pend for mailbox events     */
                 }
                 break;
    2a0c:	00003f06 	br	2b0c <OSEventPendMulti+0x39c>
                      events_stat |= OS_STAT_MBOX;      /* Configure multi-pend for mailbox events     */
    2a10:	e0bffcc3 	ldbu	r2,-13(fp)
    2a14:	10800094 	ori	r2,r2,2
    2a18:	e0bffcc5 	stb	r2,-13(fp)
                 break;
    2a1c:	00003b06 	br	2b0c <OSEventPendMulti+0x39c>
#endif

#if ((OS_Q_EN > 0) && (OS_MAX_QS > 0))
            case OS_EVENT_TYPE_Q:
                 pq = (OS_Q *)pevent->OSEventPtr;
    2a20:	e0bffe17 	ldw	r2,-8(fp)
    2a24:	10800117 	ldw	r2,4(r2)
    2a28:	e0bffa15 	stw	r2,-24(fp)
                 if (pq->OSQEntries > 0) {              /* If queue NOT empty;                     ... */
    2a2c:	e0bffa17 	ldw	r2,-24(fp)
    2a30:	1080058b 	ldhu	r2,22(r2)
    2a34:	10bfffcc 	andi	r2,r2,65535
    2a38:	10002426 	beq	r2,zero,2acc <OSEventPendMulti+0x35c>
                                                        /* ... return available message,           ... */
                    *pmsgs_rdy++ = (void *)*pq->OSQOut++;
    2a3c:	e0bffa17 	ldw	r2,-24(fp)
    2a40:	10c00417 	ldw	r3,16(r2)
    2a44:	19000104 	addi	r4,r3,4
    2a48:	e0bffa17 	ldw	r2,-24(fp)
    2a4c:	11000415 	stw	r4,16(r2)
    2a50:	e0bff017 	ldw	r2,-64(fp)
    2a54:	11000104 	addi	r4,r2,4
    2a58:	e13ff015 	stw	r4,-64(fp)
    2a5c:	18c00017 	ldw	r3,0(r3)
    2a60:	10c00015 	stw	r3,0(r2)
                     if (pq->OSQOut == pq->OSQEnd) {    /* If OUT ptr at queue end, ...                */
    2a64:	e0bffa17 	ldw	r2,-24(fp)
    2a68:	10c00417 	ldw	r3,16(r2)
    2a6c:	e0bffa17 	ldw	r2,-24(fp)
    2a70:	10800217 	ldw	r2,8(r2)
    2a74:	1880041e 	bne	r3,r2,2a88 <OSEventPendMulti+0x318>
                         pq->OSQOut  = pq->OSQStart;    /* ... wrap   to queue start                   */
    2a78:	e0bffa17 	ldw	r2,-24(fp)
    2a7c:	10c00117 	ldw	r3,4(r2)
    2a80:	e0bffa17 	ldw	r2,-24(fp)
    2a84:	10c00415 	stw	r3,16(r2)
                     }
                     pq->OSQEntries--;                  /* Update number of queue entries              */
    2a88:	e0bffa17 	ldw	r2,-24(fp)
    2a8c:	1080058b 	ldhu	r2,22(r2)
    2a90:	10bfffc4 	addi	r2,r2,-1
    2a94:	1007883a 	mov	r3,r2
    2a98:	e0bffa17 	ldw	r2,-24(fp)
    2a9c:	10c0058d 	sth	r3,22(r2)
                    *pevents_rdy++ = pevent;            /* ... and return available queue event        */
    2aa0:	e0bff117 	ldw	r2,-60(fp)
    2aa4:	10c00104 	addi	r3,r2,4
    2aa8:	e0fff115 	stw	r3,-60(fp)
    2aac:	e0fffe17 	ldw	r3,-8(fp)
    2ab0:	10c00015 	stw	r3,0(r2)
                      events_rdy   = OS_TRUE;
    2ab4:	00800044 	movi	r2,1
    2ab8:	e0bffdc5 	stb	r2,-9(fp)
                      events_rdy_nbr++;
    2abc:	e0bffd0b 	ldhu	r2,-12(fp)
    2ac0:	10800044 	addi	r2,r2,1
    2ac4:	e0bffd0d 	sth	r2,-12(fp)

                 } else {
                      events_stat |= OS_STAT_Q;         /* Configure multi-pend for queue events       */
                 }
                 break;
    2ac8:	00001006 	br	2b0c <OSEventPendMulti+0x39c>
                      events_stat |= OS_STAT_Q;         /* Configure multi-pend for queue events       */
    2acc:	e0bffcc3 	ldbu	r2,-13(fp)
    2ad0:	10800114 	ori	r2,r2,4
    2ad4:	e0bffcc5 	stb	r2,-13(fp)
                 break;
    2ad8:	00000c06 	br	2b0c <OSEventPendMulti+0x39c>
    2adc:	e0bffb17 	ldw	r2,-20(fp)
    2ae0:	e0bff815 	stw	r2,-32(fp)
  NIOS2_WRITE_STATUS (context);
    2ae4:	e0bff817 	ldw	r2,-32(fp)
    2ae8:	1001703a 	wrctl	status,r2
}
    2aec:	0001883a 	nop

            case OS_EVENT_TYPE_MUTEX:                                            
            case OS_EVENT_TYPE_FLAG:
            default:           
                 OS_EXIT_CRITICAL();
                *pevents_rdy = (OS_EVENT *)0;           /* NULL terminate return event array           */
    2af0:	e0bff117 	ldw	r2,-60(fp)
    2af4:	10000015 	stw	zero,0(r2)
                *perr        =  OS_ERR_EVENT_TYPE;
    2af8:	e0800217 	ldw	r2,8(fp)
    2afc:	00c00044 	movi	r3,1
    2b00:	10c00005 	stb	r3,0(r2)
                 return (events_rdy_nbr);
    2b04:	e0bffd0b 	ldhu	r2,-12(fp)
    2b08:	0000a206 	br	2d94 <OSEventPendMulti+0x624>
        }
        pevents++;
    2b0c:	e0bfff17 	ldw	r2,-4(fp)
    2b10:	10800104 	addi	r2,r2,4
    2b14:	e0bfff15 	stw	r2,-4(fp)
        pevent = *pevents;
    2b18:	e0bfff17 	ldw	r2,-4(fp)
    2b1c:	10800017 	ldw	r2,0(r2)
    2b20:	e0bffe15 	stw	r2,-8(fp)
    while (pevent != (OS_EVENT *)0) {                   /* See if any events already available         */
    2b24:	e0bffe17 	ldw	r2,-8(fp)
    2b28:	103f7a1e 	bne	r2,zero,2914 <OSEventPendMulti+0x1a4>
    }

    if ( events_rdy == OS_TRUE) {                       /* Return any events already available         */
    2b2c:	e0bffdc3 	ldbu	r2,-9(fp)
    2b30:	10800058 	cmpnei	r2,r2,1
    2b34:	10000b1e 	bne	r2,zero,2b64 <OSEventPendMulti+0x3f4>
       *pevents_rdy = (OS_EVENT *)0;                    /* NULL terminate return event array           */
    2b38:	e0bff117 	ldw	r2,-60(fp)
    2b3c:	10000015 	stw	zero,0(r2)
    2b40:	e0bffb17 	ldw	r2,-20(fp)
    2b44:	e0bff715 	stw	r2,-36(fp)
  NIOS2_WRITE_STATUS (context);
    2b48:	e0bff717 	ldw	r2,-36(fp)
    2b4c:	1001703a 	wrctl	status,r2
}
    2b50:	0001883a 	nop
        OS_EXIT_CRITICAL();
       *perr        =  OS_ERR_NONE;
    2b54:	e0800217 	ldw	r2,8(fp)
    2b58:	10000005 	stb	zero,0(r2)
        return (events_rdy_nbr);
    2b5c:	e0bffd0b 	ldhu	r2,-12(fp)
    2b60:	00008c06 	br	2d94 <OSEventPendMulti+0x624>
    }
/*$PAGE*/
                                                        /* Otherwise, must wait until any event occurs */
    OSTCBCur->OSTCBStat     |= events_stat  |           /* Resource not available, ...                 */
    2b64:	d0a6e717 	ldw	r2,-25700(gp)
    2b68:	10800c03 	ldbu	r2,48(r2)
    2b6c:	e0fffcc3 	ldbu	r3,-13(fp)
    2b70:	1884b03a 	or	r2,r3,r2
    2b74:	1009883a 	mov	r4,r2
    2b78:	d0a6e717 	ldw	r2,-25700(gp)
    2b7c:	00ffe004 	movi	r3,-128
    2b80:	20c6b03a 	or	r3,r4,r3
    2b84:	10c00c05 	stb	r3,48(r2)
                               OS_STAT_MULTI;           /* ... pend on multiple events                 */
    OSTCBCur->OSTCBStatPend  = OS_STAT_PEND_OK;
    2b88:	d0a6e717 	ldw	r2,-25700(gp)
    2b8c:	10000c45 	stb	zero,49(r2)
    OSTCBCur->OSTCBDly       = timeout;                 /* Store pend timeout in TCB                   */
    2b90:	d0a6e717 	ldw	r2,-25700(gp)
    2b94:	e0ffef0b 	ldhu	r3,-68(fp)
    2b98:	10c00b8d 	sth	r3,46(r2)
    OS_EventTaskWaitMulti(pevents_pend);                /* Suspend task until events or timeout occurs */
    2b9c:	e13ff217 	ldw	r4,-56(fp)
    2ba0:	00036d80 	call	36d8 <OS_EventTaskWaitMulti>
    2ba4:	e0bffb17 	ldw	r2,-20(fp)
    2ba8:	e0bff515 	stw	r2,-44(fp)
  NIOS2_WRITE_STATUS (context);
    2bac:	e0bff517 	ldw	r2,-44(fp)
    2bb0:	1001703a 	wrctl	status,r2
}
    2bb4:	0001883a 	nop

    OS_EXIT_CRITICAL();
    OS_Sched();                                         /* Find next highest priority task ready       */
    2bb8:	0003e7c0 	call	3e7c <OS_Sched>
  NIOS2_READ_STATUS (context);
    2bbc:	0005303a 	rdctl	r2,status
    2bc0:	e0bff615 	stw	r2,-40(fp)
  NIOS2_WRITE_STATUS (context & ~NIOS2_STATUS_PIE_MSK);
    2bc4:	e0fff617 	ldw	r3,-40(fp)
    2bc8:	00bfff84 	movi	r2,-2
    2bcc:	1884703a 	and	r2,r3,r2
    2bd0:	1001703a 	wrctl	status,r2
  return context;
    2bd4:	e0bff617 	ldw	r2,-40(fp)
    OS_ENTER_CRITICAL();
    2bd8:	e0bffb15 	stw	r2,-20(fp)

    switch (OSTCBCur->OSTCBStatPend) {                  /* Handle event posted, aborted, or timed-out  */
    2bdc:	d0a6e717 	ldw	r2,-25700(gp)
    2be0:	10800c43 	ldbu	r2,49(r2)
    2be4:	10803fcc 	andi	r2,r2,255
    2be8:	10000226 	beq	r2,zero,2bf4 <OSEventPendMulti+0x484>
    2bec:	10800098 	cmpnei	r2,r2,2
    2bf0:	1000181e 	bne	r2,zero,2c54 <OSEventPendMulti+0x4e4>
        case OS_STAT_PEND_OK:
        case OS_STAT_PEND_ABORT:
             pevent = OSTCBCur->OSTCBEventPtr;
    2bf4:	d0a6e717 	ldw	r2,-25700(gp)
    2bf8:	10800717 	ldw	r2,28(r2)
    2bfc:	e0bffe15 	stw	r2,-8(fp)
             if (pevent != (OS_EVENT *)0) {             /* If task event ptr != NULL, ...              */
    2c00:	e0bffe17 	ldw	r2,-8(fp)
    2c04:	10000b26 	beq	r2,zero,2c34 <OSEventPendMulti+0x4c4>
                *pevents_rdy++ =  pevent;               /* ... return available event ...              */
    2c08:	e0bff117 	ldw	r2,-60(fp)
    2c0c:	10c00104 	addi	r3,r2,4
    2c10:	e0fff115 	stw	r3,-60(fp)
    2c14:	e0fffe17 	ldw	r3,-8(fp)
    2c18:	10c00015 	stw	r3,0(r2)
                *pevents_rdy   = (OS_EVENT *)0;         /* ... & NULL terminate return event array     */
    2c1c:	e0bff117 	ldw	r2,-60(fp)
    2c20:	10000015 	stw	zero,0(r2)
                  events_rdy_nbr++;
    2c24:	e0bffd0b 	ldhu	r2,-12(fp)
    2c28:	10800044 	addi	r2,r2,1
    2c2c:	e0bffd0d 	sth	r2,-12(fp)

             } else {                                   /* Else NO event available, handle as timeout  */
                 OSTCBCur->OSTCBStatPend = OS_STAT_PEND_TO;
                 OS_EventTaskRemoveMulti(OSTCBCur, pevents_pend);
             }
			 break;
    2c30:	00000d06 	br	2c68 <OSEventPendMulti+0x4f8>
                 OSTCBCur->OSTCBStatPend = OS_STAT_PEND_TO;
    2c34:	d0a6e717 	ldw	r2,-25700(gp)
    2c38:	00c00044 	movi	r3,1
    2c3c:	10c00c45 	stb	r3,49(r2)
                 OS_EventTaskRemoveMulti(OSTCBCur, pevents_pend);
    2c40:	d0a6e717 	ldw	r2,-25700(gp)
    2c44:	e17ff217 	ldw	r5,-56(fp)
    2c48:	1009883a 	mov	r4,r2
    2c4c:	00038d00 	call	38d0 <OS_EventTaskRemoveMulti>
			 break;
    2c50:	00000506 	br	2c68 <OSEventPendMulti+0x4f8>

        case OS_STAT_PEND_TO:
        default:                                        /* ... remove task from events' wait lists     */
             OS_EventTaskRemoveMulti(OSTCBCur, pevents_pend);
    2c54:	d0a6e717 	ldw	r2,-25700(gp)
    2c58:	e17ff217 	ldw	r5,-56(fp)
    2c5c:	1009883a 	mov	r4,r2
    2c60:	00038d00 	call	38d0 <OS_EventTaskRemoveMulti>
             break;
    2c64:	0001883a 	nop
    }

    switch (OSTCBCur->OSTCBStatPend) {
    2c68:	d0a6e717 	ldw	r2,-25700(gp)
    2c6c:	10800c43 	ldbu	r2,49(r2)
    2c70:	10803fcc 	andi	r2,r2,255
    2c74:	10000326 	beq	r2,zero,2c84 <OSEventPendMulti+0x514>
    2c78:	108000a0 	cmpeqi	r2,r2,2
    2c7c:	1000251e 	bne	r2,zero,2d14 <OSEventPendMulti+0x5a4>
    2c80:	00002c06 	br	2d34 <OSEventPendMulti+0x5c4>
        case OS_STAT_PEND_OK:
             switch (pevent->OSEventType) {             /* Return event's message                      */
    2c84:	e0bffe17 	ldw	r2,-8(fp)
    2c88:	10800003 	ldbu	r2,0(r2)
    2c8c:	10803fcc 	andi	r2,r2,255
    2c90:	10c000c8 	cmpgei	r3,r2,3
    2c94:	1800021e 	bne	r3,zero,2ca0 <OSEventPendMulti+0x530>
    2c98:	00800816 	blt	zero,r2,2cbc <OSEventPendMulti+0x54c>
    2c9c:	00000e06 	br	2cd8 <OSEventPendMulti+0x568>
    2ca0:	108000d8 	cmpnei	r2,r2,3
    2ca4:	10000c1e 	bne	r2,zero,2cd8 <OSEventPendMulti+0x568>
#if (OS_SEM_EN > 0)
                 case OS_EVENT_TYPE_SEM:
                     *pmsgs_rdy++ = (void *)0;          /* NO message returned for semaphores          */
    2ca8:	e0bff017 	ldw	r2,-64(fp)
    2cac:	10c00104 	addi	r3,r2,4
    2cb0:	e0fff015 	stw	r3,-64(fp)
    2cb4:	10000015 	stw	zero,0(r2)
                      break;
    2cb8:	00001306 	br	2d08 <OSEventPendMulti+0x598>

#if ((OS_MBOX_EN > 0) ||                 \
    ((OS_Q_EN    > 0) && (OS_MAX_QS > 0)))
                 case OS_EVENT_TYPE_MBOX:
                 case OS_EVENT_TYPE_Q:
                     *pmsgs_rdy++ = (void *)OSTCBCur->OSTCBMsg;     /* Return received message         */
    2cbc:	d0e6e717 	ldw	r3,-25700(gp)
    2cc0:	e0bff017 	ldw	r2,-64(fp)
    2cc4:	11000104 	addi	r4,r2,4
    2cc8:	e13ff015 	stw	r4,-64(fp)
    2ccc:	18c00917 	ldw	r3,36(r3)
    2cd0:	10c00015 	stw	r3,0(r2)
                      break;
    2cd4:	00000c06 	br	2d08 <OSEventPendMulti+0x598>
    2cd8:	e0bffb17 	ldw	r2,-20(fp)
    2cdc:	e0bff415 	stw	r2,-48(fp)
  NIOS2_WRITE_STATUS (context);
    2ce0:	e0bff417 	ldw	r2,-48(fp)
    2ce4:	1001703a 	wrctl	status,r2
}
    2ce8:	0001883a 	nop

                 case OS_EVENT_TYPE_MUTEX:                                       
                 case OS_EVENT_TYPE_FLAG:
                 default:           
                      OS_EXIT_CRITICAL();
                     *pevents_rdy = (OS_EVENT *)0;      /* NULL terminate return event array           */
    2cec:	e0bff117 	ldw	r2,-60(fp)
    2cf0:	10000015 	stw	zero,0(r2)
                     *perr        =  OS_ERR_EVENT_TYPE;
    2cf4:	e0800217 	ldw	r2,8(fp)
    2cf8:	00c00044 	movi	r3,1
    2cfc:	10c00005 	stb	r3,0(r2)
                      return (events_rdy_nbr);
    2d00:	e0bffd0b 	ldhu	r2,-12(fp)
    2d04:	00002306 	br	2d94 <OSEventPendMulti+0x624>
             }
            *perr = OS_ERR_NONE;
    2d08:	e0800217 	ldw	r2,8(fp)
    2d0c:	10000005 	stb	zero,0(r2)
             break;
    2d10:	00001006 	br	2d54 <OSEventPendMulti+0x5e4>

        case OS_STAT_PEND_ABORT:
            *pmsgs_rdy++ = (void *)0;                   /* NO message returned for abort               */
    2d14:	e0bff017 	ldw	r2,-64(fp)
    2d18:	10c00104 	addi	r3,r2,4
    2d1c:	e0fff015 	stw	r3,-64(fp)
    2d20:	10000015 	stw	zero,0(r2)
            *perr        =  OS_ERR_PEND_ABORT;          /* Indicate that event  aborted                */
    2d24:	e0800217 	ldw	r2,8(fp)
    2d28:	00c00384 	movi	r3,14
    2d2c:	10c00005 	stb	r3,0(r2)
             break;
    2d30:	00000806 	br	2d54 <OSEventPendMulti+0x5e4>
                                                        
        case OS_STAT_PEND_TO:                                                
        default:        
            *pmsgs_rdy++ = (void *)0;                   /* NO message returned for timeout             */
    2d34:	e0bff017 	ldw	r2,-64(fp)
    2d38:	10c00104 	addi	r3,r2,4
    2d3c:	e0fff015 	stw	r3,-64(fp)
    2d40:	10000015 	stw	zero,0(r2)
            *perr        =  OS_ERR_TIMEOUT;             /* Indicate that events timed out              */
    2d44:	e0800217 	ldw	r2,8(fp)
    2d48:	00c00284 	movi	r3,10
    2d4c:	10c00005 	stb	r3,0(r2)
             break;
    2d50:	0001883a 	nop
    }

    OSTCBCur->OSTCBStat          =  OS_STAT_RDY;        /* Set   task  status to ready                 */
    2d54:	d0a6e717 	ldw	r2,-25700(gp)
    2d58:	10000c05 	stb	zero,48(r2)
    OSTCBCur->OSTCBStatPend      =  OS_STAT_PEND_OK;    /* Clear pend  status                          */
    2d5c:	d0a6e717 	ldw	r2,-25700(gp)
    2d60:	10000c45 	stb	zero,49(r2)
    OSTCBCur->OSTCBEventPtr      = (OS_EVENT  *)0;      /* Clear event pointers                        */
    2d64:	d0a6e717 	ldw	r2,-25700(gp)
    2d68:	10000715 	stw	zero,28(r2)
    OSTCBCur->OSTCBEventMultiPtr = (OS_EVENT **)0;
    2d6c:	d0a6e717 	ldw	r2,-25700(gp)
    2d70:	10000815 	stw	zero,32(r2)
    OSTCBCur->OSTCBMsg           = (void      *)0;      /* Clear task  message                         */
    2d74:	d0a6e717 	ldw	r2,-25700(gp)
    2d78:	10000915 	stw	zero,36(r2)
    2d7c:	e0bffb17 	ldw	r2,-20(fp)
    2d80:	e0bff315 	stw	r2,-52(fp)
  NIOS2_WRITE_STATUS (context);
    2d84:	e0bff317 	ldw	r2,-52(fp)
    2d88:	1001703a 	wrctl	status,r2
}
    2d8c:	0001883a 	nop
    OS_EXIT_CRITICAL();

    return (events_rdy_nbr);
    2d90:	e0bffd0b 	ldhu	r2,-12(fp)
}
    2d94:	e037883a 	mov	sp,fp
    2d98:	dfc00117 	ldw	ra,4(sp)
    2d9c:	df000017 	ldw	fp,0(sp)
    2da0:	dec00204 	addi	sp,sp,8
    2da4:	f800283a 	ret

00002da8 <OSInit>:
* Returns    : none
*********************************************************************************************************
*/

void  OSInit (void)
{
    2da8:	defffe04 	addi	sp,sp,-8
    2dac:	dfc00115 	stw	ra,4(sp)
    2db0:	df000015 	stw	fp,0(sp)
    2db4:	d839883a 	mov	fp,sp
    OSInitHookBegin();                                           /* Call port specific initialization code   */
    2db8:	000d6940 	call	d694 <OSInitHookBegin>

    OS_InitMisc();                                               /* Initialize miscellaneous variables       */
    2dbc:	0003b180 	call	3b18 <OS_InitMisc>

    OS_InitRdyList();                                            /* Initialize the Ready List                */
    2dc0:	0003b600 	call	3b60 <OS_InitRdyList>

    OS_InitTCBList();                                            /* Initialize the free list of OS_TCBs      */
    2dc4:	0003cd40 	call	3cd4 <OS_InitTCBList>

    OS_InitEventList();                                          /* Initialize the free list of OS_EVENTs    */
    2dc8:	0003a380 	call	3a38 <OS_InitEventList>

#if (OS_FLAG_EN > 0) && (OS_MAX_FLAGS > 0)
    OS_FlagInit();                                               /* Initialize the event flag structures     */
    2dcc:	0005c200 	call	5c20 <OS_FlagInit>
#endif

#if (OS_MEM_EN > 0) && (OS_MAX_MEM_PART > 0)
    OS_MemInit();                                                /* Initialize the memory manager            */
    2dd0:	00065440 	call	6544 <OS_MemInit>
#endif

#if (OS_Q_EN > 0) && (OS_MAX_QS > 0)
    OS_QInit();                                                  /* Initialize the message queue structures  */
    2dd4:	00076c40 	call	76c4 <OS_QInit>
#endif

    OS_InitTaskIdle();                                           /* Create the Idle Task                     */
    2dd8:	0003bcc0 	call	3bcc <OS_InitTaskIdle>
#if OS_TASK_STAT_EN > 0
    OS_InitTaskStat();                                           /* Create the Statistic Task                */
    2ddc:	0003c500 	call	3c50 <OS_InitTaskStat>

#if OS_TMR_EN > 0
    OSTmr_Init();                                                /* Initialize the Timer Manager             */
#endif

    OSInitHookEnd();                                             /* Call port specific init. code            */
    2de0:	000d6b40 	call	d6b4 <OSInitHookEnd>

#if OS_DEBUG_EN > 0
    OSDebugInit();
    2de4:	00045440 	call	4544 <OSDebugInit>
#endif
}
    2de8:	0001883a 	nop
    2dec:	e037883a 	mov	sp,fp
    2df0:	dfc00117 	ldw	ra,4(sp)
    2df4:	df000017 	ldw	fp,0(sp)
    2df8:	dec00204 	addi	sp,sp,8
    2dfc:	f800283a 	ret

00002e00 <OSIntEnter>:
*              5) You are allowed to nest interrupts up to 255 levels deep.
*********************************************************************************************************
*/

void  OSIntEnter (void)
{
    2e00:	deffff04 	addi	sp,sp,-4
    2e04:	df000015 	stw	fp,0(sp)
    2e08:	d839883a 	mov	fp,sp
    if (OSRunning == OS_TRUE) {
    2e0c:	d0a6e543 	ldbu	r2,-25707(gp)
    2e10:	10803fcc 	andi	r2,r2,255
    2e14:	10800058 	cmpnei	r2,r2,1
    2e18:	1000071e 	bne	r2,zero,2e38 <OSIntEnter+0x38>
        if (OSIntNesting < 255u) {
    2e1c:	d0a6e343 	ldbu	r2,-25715(gp)
    2e20:	10803fcc 	andi	r2,r2,255
    2e24:	10803fe0 	cmpeqi	r2,r2,255
    2e28:	1000031e 	bne	r2,zero,2e38 <OSIntEnter+0x38>
            OSIntNesting++;                      /* Increment ISR nesting level                        */
    2e2c:	d0a6e343 	ldbu	r2,-25715(gp)
    2e30:	10800044 	addi	r2,r2,1
    2e34:	d0a6e345 	stb	r2,-25715(gp)
        }
    }
}
    2e38:	0001883a 	nop
    2e3c:	e037883a 	mov	sp,fp
    2e40:	df000017 	ldw	fp,0(sp)
    2e44:	dec00104 	addi	sp,sp,4
    2e48:	f800283a 	ret

00002e4c <OSIntExit>:
*              2) Rescheduling is prevented when the scheduler is locked (see OS_SchedLock())
*********************************************************************************************************
*/

void  OSIntExit (void)
{
    2e4c:	defffb04 	addi	sp,sp,-20
    2e50:	dfc00415 	stw	ra,16(sp)
    2e54:	df000315 	stw	fp,12(sp)
    2e58:	df000304 	addi	fp,sp,12
#if OS_CRITICAL_METHOD == 3                                /* Allocate storage for CPU status register */
    OS_CPU_SR  cpu_sr = 0;
    2e5c:	e03fff15 	stw	zero,-4(fp)
#endif



    if (OSRunning == OS_TRUE) {
    2e60:	d0a6e543 	ldbu	r2,-25707(gp)
    2e64:	10803fcc 	andi	r2,r2,255
    2e68:	10800058 	cmpnei	r2,r2,1
    2e6c:	10002e1e 	bne	r2,zero,2f28 <OSIntExit+0xdc>
  NIOS2_READ_STATUS (context);
    2e70:	0005303a 	rdctl	r2,status
    2e74:	e0bffe15 	stw	r2,-8(fp)
  NIOS2_WRITE_STATUS (context & ~NIOS2_STATUS_PIE_MSK);
    2e78:	e0fffe17 	ldw	r3,-8(fp)
    2e7c:	00bfff84 	movi	r2,-2
    2e80:	1884703a 	and	r2,r3,r2
    2e84:	1001703a 	wrctl	status,r2
  return context;
    2e88:	e0bffe17 	ldw	r2,-8(fp)
        OS_ENTER_CRITICAL();
    2e8c:	e0bfff15 	stw	r2,-4(fp)
        if (OSIntNesting > 0) {                            /* Prevent OSIntNesting from wrapping       */
    2e90:	d0a6e343 	ldbu	r2,-25715(gp)
    2e94:	10803fcc 	andi	r2,r2,255
    2e98:	10000326 	beq	r2,zero,2ea8 <OSIntExit+0x5c>
            OSIntNesting--;
    2e9c:	d0a6e343 	ldbu	r2,-25715(gp)
    2ea0:	10bfffc4 	addi	r2,r2,-1
    2ea4:	d0a6e345 	stb	r2,-25715(gp)
        }
        if (OSIntNesting == 0) {                           /* Reschedule only if all ISRs complete ... */
    2ea8:	d0a6e343 	ldbu	r2,-25715(gp)
    2eac:	10803fcc 	andi	r2,r2,255
    2eb0:	1000181e 	bne	r2,zero,2f14 <OSIntExit+0xc8>
            if (OSLockNesting == 0) {                      /* ... and not locked.                      */
    2eb4:	d0a6e383 	ldbu	r2,-25714(gp)
    2eb8:	10803fcc 	andi	r2,r2,255
    2ebc:	1000151e 	bne	r2,zero,2f14 <OSIntExit+0xc8>
                OS_SchedNew();
    2ec0:	0003f480 	call	3f48 <OS_SchedNew>
                if (OSPrioHighRdy != OSPrioCur) {          /* No Ctx Sw if current task is highest rdy */
    2ec4:	d0e6e403 	ldbu	r3,-25712(gp)
    2ec8:	d0a6e3c3 	ldbu	r2,-25713(gp)
    2ecc:	18c03fcc 	andi	r3,r3,255
    2ed0:	10803fcc 	andi	r2,r2,255
    2ed4:	18800f26 	beq	r3,r2,2f14 <OSIntExit+0xc8>
                    OSTCBHighRdy  = OSTCBPrioTbl[OSPrioHighRdy];
    2ed8:	d0a6e403 	ldbu	r2,-25712(gp)
    2edc:	10803fcc 	andi	r2,r2,255
    2ee0:	100690ba 	slli	r3,r2,2
    2ee4:	008000b4 	movhi	r2,2
    2ee8:	1885883a 	add	r2,r3,r2
    2eec:	10a5ac17 	ldw	r2,-26960(r2)
    2ef0:	d0a6e915 	stw	r2,-25692(gp)
#if OS_TASK_PROFILE_EN > 0
                    OSTCBHighRdy->OSTCBCtxSwCtr++;         /* Inc. # of context switches to this task  */
    2ef4:	d0a6e917 	ldw	r2,-25692(gp)
    2ef8:	10c00e17 	ldw	r3,56(r2)
    2efc:	18c00044 	addi	r3,r3,1
    2f00:	10c00e15 	stw	r3,56(r2)
#endif
                    OSCtxSwCtr++;                          /* Keep track of the number of ctx switches */
    2f04:	d0a6dd17 	ldw	r2,-25740(gp)
    2f08:	10800044 	addi	r2,r2,1
    2f0c:	d0a6dd15 	stw	r2,-25740(gp)
                    OSIntCtxSw();                          /* Perform interrupt level ctx switch       */
    2f10:	000d3d00 	call	d3d0 <OSCtxSw>
    2f14:	e0bfff17 	ldw	r2,-4(fp)
    2f18:	e0bffd15 	stw	r2,-12(fp)
  NIOS2_WRITE_STATUS (context);
    2f1c:	e0bffd17 	ldw	r2,-12(fp)
    2f20:	1001703a 	wrctl	status,r2
}
    2f24:	0001883a 	nop
                }
            }
        }
        OS_EXIT_CRITICAL();
    }
}
    2f28:	0001883a 	nop
    2f2c:	e037883a 	mov	sp,fp
    2f30:	dfc00117 	ldw	ra,4(sp)
    2f34:	df000017 	ldw	fp,0(sp)
    2f38:	dec00204 	addi	sp,sp,8
    2f3c:	f800283a 	ret

00002f40 <OSSchedLock>:
*********************************************************************************************************
*/

#if OS_SCHED_LOCK_EN > 0
void  OSSchedLock (void)
{
    2f40:	defffc04 	addi	sp,sp,-16
    2f44:	df000315 	stw	fp,12(sp)
    2f48:	df000304 	addi	fp,sp,12
#if OS_CRITICAL_METHOD == 3                      /* Allocate storage for CPU status register           */
    OS_CPU_SR  cpu_sr = 0;
    2f4c:	e03fff15 	stw	zero,-4(fp)
#endif



    if (OSRunning == OS_TRUE) {                  /* Make sure multitasking is running                  */
    2f50:	d0a6e543 	ldbu	r2,-25707(gp)
    2f54:	10803fcc 	andi	r2,r2,255
    2f58:	10800058 	cmpnei	r2,r2,1
    2f5c:	1000171e 	bne	r2,zero,2fbc <OSSchedLock+0x7c>
  NIOS2_READ_STATUS (context);
    2f60:	0005303a 	rdctl	r2,status
    2f64:	e0bffe15 	stw	r2,-8(fp)
  NIOS2_WRITE_STATUS (context & ~NIOS2_STATUS_PIE_MSK);
    2f68:	e0fffe17 	ldw	r3,-8(fp)
    2f6c:	00bfff84 	movi	r2,-2
    2f70:	1884703a 	and	r2,r3,r2
    2f74:	1001703a 	wrctl	status,r2
  return context;
    2f78:	e0bffe17 	ldw	r2,-8(fp)
        OS_ENTER_CRITICAL();
    2f7c:	e0bfff15 	stw	r2,-4(fp)
        if (OSIntNesting == 0) {                 /* Can't call from an ISR                             */
    2f80:	d0a6e343 	ldbu	r2,-25715(gp)
    2f84:	10803fcc 	andi	r2,r2,255
    2f88:	1000071e 	bne	r2,zero,2fa8 <OSSchedLock+0x68>
            if (OSLockNesting < 255u) {          /* Prevent OSLockNesting from wrapping back to 0      */
    2f8c:	d0a6e383 	ldbu	r2,-25714(gp)
    2f90:	10803fcc 	andi	r2,r2,255
    2f94:	10803fe0 	cmpeqi	r2,r2,255
    2f98:	1000031e 	bne	r2,zero,2fa8 <OSSchedLock+0x68>
                OSLockNesting++;                 /* Increment lock nesting level                       */
    2f9c:	d0a6e383 	ldbu	r2,-25714(gp)
    2fa0:	10800044 	addi	r2,r2,1
    2fa4:	d0a6e385 	stb	r2,-25714(gp)
    2fa8:	e0bfff17 	ldw	r2,-4(fp)
    2fac:	e0bffd15 	stw	r2,-12(fp)
  NIOS2_WRITE_STATUS (context);
    2fb0:	e0bffd17 	ldw	r2,-12(fp)
    2fb4:	1001703a 	wrctl	status,r2
}
    2fb8:	0001883a 	nop
            }
        }
        OS_EXIT_CRITICAL();
    }
}
    2fbc:	0001883a 	nop
    2fc0:	e037883a 	mov	sp,fp
    2fc4:	df000017 	ldw	fp,0(sp)
    2fc8:	dec00104 	addi	sp,sp,4
    2fcc:	f800283a 	ret

00002fd0 <OSSchedUnlock>:
*********************************************************************************************************
*/

#if OS_SCHED_LOCK_EN > 0
void  OSSchedUnlock (void)
{
    2fd0:	defff804 	addi	sp,sp,-32
    2fd4:	dfc00715 	stw	ra,28(sp)
    2fd8:	df000615 	stw	fp,24(sp)
    2fdc:	df000604 	addi	fp,sp,24
#if OS_CRITICAL_METHOD == 3                                /* Allocate storage for CPU status register */
    OS_CPU_SR  cpu_sr = 0;
    2fe0:	e03fff15 	stw	zero,-4(fp)
#endif



    if (OSRunning == OS_TRUE) {                            /* Make sure multitasking is running        */
    2fe4:	d0a6e543 	ldbu	r2,-25707(gp)
    2fe8:	10803fcc 	andi	r2,r2,255
    2fec:	10800058 	cmpnei	r2,r2,1
    2ff0:	10002a1e 	bne	r2,zero,309c <OSSchedUnlock+0xcc>
  NIOS2_READ_STATUS (context);
    2ff4:	0005303a 	rdctl	r2,status
    2ff8:	e0bffe15 	stw	r2,-8(fp)
  NIOS2_WRITE_STATUS (context & ~NIOS2_STATUS_PIE_MSK);
    2ffc:	e0fffe17 	ldw	r3,-8(fp)
    3000:	00bfff84 	movi	r2,-2
    3004:	1884703a 	and	r2,r3,r2
    3008:	1001703a 	wrctl	status,r2
  return context;
    300c:	e0bffe17 	ldw	r2,-8(fp)
        OS_ENTER_CRITICAL();
    3010:	e0bfff15 	stw	r2,-4(fp)
        if (OSLockNesting > 0) {                           /* Do not decrement if already 0            */
    3014:	d0a6e383 	ldbu	r2,-25714(gp)
    3018:	10803fcc 	andi	r2,r2,255
    301c:	10001a26 	beq	r2,zero,3088 <OSSchedUnlock+0xb8>
            OSLockNesting--;                               /* Decrement lock nesting level             */
    3020:	d0a6e383 	ldbu	r2,-25714(gp)
    3024:	10bfffc4 	addi	r2,r2,-1
    3028:	d0a6e385 	stb	r2,-25714(gp)
            if (OSLockNesting == 0) {                      /* See if scheduler is enabled and ...      */
    302c:	d0a6e383 	ldbu	r2,-25714(gp)
    3030:	10803fcc 	andi	r2,r2,255
    3034:	10000f1e 	bne	r2,zero,3074 <OSSchedUnlock+0xa4>
                if (OSIntNesting == 0) {                   /* ... not in an ISR                        */
    3038:	d0a6e343 	ldbu	r2,-25715(gp)
    303c:	10803fcc 	andi	r2,r2,255
    3040:	1000071e 	bne	r2,zero,3060 <OSSchedUnlock+0x90>
    3044:	e0bfff17 	ldw	r2,-4(fp)
    3048:	e0bffd15 	stw	r2,-12(fp)
  NIOS2_WRITE_STATUS (context);
    304c:	e0bffd17 	ldw	r2,-12(fp)
    3050:	1001703a 	wrctl	status,r2
}
    3054:	0001883a 	nop
                    OS_EXIT_CRITICAL();
                    OS_Sched();                            /* See if a HPT is ready                    */
    3058:	0003e7c0 	call	3e7c <OS_Sched>
            }
        } else {
            OS_EXIT_CRITICAL();
        }
    }
}
    305c:	00000f06 	br	309c <OSSchedUnlock+0xcc>
    3060:	e0bfff17 	ldw	r2,-4(fp)
    3064:	e0bffc15 	stw	r2,-16(fp)
  NIOS2_WRITE_STATUS (context);
    3068:	e0bffc17 	ldw	r2,-16(fp)
    306c:	1001703a 	wrctl	status,r2
}
    3070:	00000a06 	br	309c <OSSchedUnlock+0xcc>
    3074:	e0bfff17 	ldw	r2,-4(fp)
    3078:	e0bffb15 	stw	r2,-20(fp)
  NIOS2_WRITE_STATUS (context);
    307c:	e0bffb17 	ldw	r2,-20(fp)
    3080:	1001703a 	wrctl	status,r2
}
    3084:	00000506 	br	309c <OSSchedUnlock+0xcc>
    3088:	e0bfff17 	ldw	r2,-4(fp)
    308c:	e0bffa15 	stw	r2,-24(fp)
  NIOS2_WRITE_STATUS (context);
    3090:	e0bffa17 	ldw	r2,-24(fp)
    3094:	1001703a 	wrctl	status,r2
}
    3098:	0001883a 	nop
    309c:	0001883a 	nop
    30a0:	e037883a 	mov	sp,fp
    30a4:	dfc00117 	ldw	ra,4(sp)
    30a8:	df000017 	ldw	fp,0(sp)
    30ac:	dec00204 	addi	sp,sp,8
    30b0:	f800283a 	ret

000030b4 <OSStart>:
*                 d_ Execute the task.
*********************************************************************************************************
*/

void  OSStart (void)
{
    30b4:	defffe04 	addi	sp,sp,-8
    30b8:	dfc00115 	stw	ra,4(sp)
    30bc:	df000015 	stw	fp,0(sp)
    30c0:	d839883a 	mov	fp,sp
    if (OSRunning == OS_FALSE) {
    30c4:	d0a6e543 	ldbu	r2,-25707(gp)
    30c8:	10803fcc 	andi	r2,r2,255
    30cc:	10000d1e 	bne	r2,zero,3104 <OSStart+0x50>
        OS_SchedNew();                               /* Find highest priority's task priority number   */
    30d0:	0003f480 	call	3f48 <OS_SchedNew>
        OSPrioCur     = OSPrioHighRdy;
    30d4:	d0a6e403 	ldbu	r2,-25712(gp)
    30d8:	d0a6e3c5 	stb	r2,-25713(gp)
        OSTCBHighRdy  = OSTCBPrioTbl[OSPrioHighRdy]; /* Point to highest priority task ready to run    */
    30dc:	d0a6e403 	ldbu	r2,-25712(gp)
    30e0:	10803fcc 	andi	r2,r2,255
    30e4:	100690ba 	slli	r3,r2,2
    30e8:	008000b4 	movhi	r2,2
    30ec:	1885883a 	add	r2,r3,r2
    30f0:	10a5ac17 	ldw	r2,-26960(r2)
    30f4:	d0a6e915 	stw	r2,-25692(gp)
        OSTCBCur      = OSTCBHighRdy;
    30f8:	d0a6e917 	ldw	r2,-25692(gp)
    30fc:	d0a6e715 	stw	r2,-25700(gp)
        OSStartHighRdy();                            /* Execute target specific code to start task     */
    3100:	000d45c0 	call	d45c <OSStartHighRdy>
    }
}
    3104:	0001883a 	nop
    3108:	e037883a 	mov	sp,fp
    310c:	dfc00117 	ldw	ra,4(sp)
    3110:	df000017 	ldw	fp,0(sp)
    3114:	dec00204 	addi	sp,sp,8
    3118:	f800283a 	ret

0000311c <OSStatInit>:
*********************************************************************************************************
*/

#if OS_TASK_STAT_EN > 0
void  OSStatInit (void)
{
    311c:	defff904 	addi	sp,sp,-28
    3120:	dfc00615 	stw	ra,24(sp)
    3124:	df000515 	stw	fp,20(sp)
    3128:	df000504 	addi	fp,sp,20
#if OS_CRITICAL_METHOD == 3                      /* Allocate storage for CPU status register           */
    OS_CPU_SR  cpu_sr = 0;
    312c:	e03fff15 	stw	zero,-4(fp)
#endif



    OSTimeDly(2);                                /* Synchronize with clock tick                        */
    3130:	01000084 	movi	r4,2
    3134:	00099540 	call	9954 <OSTimeDly>
  NIOS2_READ_STATUS (context);
    3138:	0005303a 	rdctl	r2,status
    313c:	e0bffb15 	stw	r2,-20(fp)
  NIOS2_WRITE_STATUS (context & ~NIOS2_STATUS_PIE_MSK);
    3140:	e0fffb17 	ldw	r3,-20(fp)
    3144:	00bfff84 	movi	r2,-2
    3148:	1884703a 	and	r2,r3,r2
    314c:	1001703a 	wrctl	status,r2
  return context;
    3150:	e0bffb17 	ldw	r2,-20(fp)
    OS_ENTER_CRITICAL();
    3154:	e0bfff15 	stw	r2,-4(fp)
    OSIdleCtr    = 0L;                           /* Clear idle counter                                 */
    3158:	d026e615 	stw	zero,-25704(gp)
    315c:	e0bfff17 	ldw	r2,-4(fp)
    3160:	e0bffc15 	stw	r2,-16(fp)
  NIOS2_WRITE_STATUS (context);
    3164:	e0bffc17 	ldw	r2,-16(fp)
    3168:	1001703a 	wrctl	status,r2
}
    316c:	0001883a 	nop
    OS_EXIT_CRITICAL();
    OSTimeDly(OS_TICKS_PER_SEC / 10);            /* Determine MAX. idle counter value for 1/10 second  */
    3170:	0009883a 	mov	r4,zero
    3174:	00099540 	call	9954 <OSTimeDly>
  NIOS2_READ_STATUS (context);
    3178:	0005303a 	rdctl	r2,status
    317c:	e0bffd15 	stw	r2,-12(fp)
  NIOS2_WRITE_STATUS (context & ~NIOS2_STATUS_PIE_MSK);
    3180:	e0fffd17 	ldw	r3,-12(fp)
    3184:	00bfff84 	movi	r2,-2
    3188:	1884703a 	and	r2,r3,r2
    318c:	1001703a 	wrctl	status,r2
  return context;
    3190:	e0bffd17 	ldw	r2,-12(fp)
    OS_ENTER_CRITICAL();
    3194:	e0bfff15 	stw	r2,-4(fp)
    OSIdleCtrMax = OSIdleCtr;                    /* Store maximum idle counter count in 1/10 second    */
    3198:	d0a6e617 	ldw	r2,-25704(gp)
    319c:	d0a6e115 	stw	r2,-25724(gp)
    OSStatRdy    = OS_TRUE;
    31a0:	00800044 	movi	r2,1
    31a4:	d0a6e305 	stb	r2,-25716(gp)
    31a8:	e0bfff17 	ldw	r2,-4(fp)
    31ac:	e0bffe15 	stw	r2,-8(fp)
  NIOS2_WRITE_STATUS (context);
    31b0:	e0bffe17 	ldw	r2,-8(fp)
    31b4:	1001703a 	wrctl	status,r2
}
    31b8:	0001883a 	nop
    OS_EXIT_CRITICAL();
}
    31bc:	0001883a 	nop
    31c0:	e037883a 	mov	sp,fp
    31c4:	dfc00117 	ldw	ra,4(sp)
    31c8:	df000017 	ldw	fp,0(sp)
    31cc:	dec00204 	addi	sp,sp,8
    31d0:	f800283a 	ret

000031d4 <OSTimeTick>:
* Returns    : none
*********************************************************************************************************
*/

void  OSTimeTick (void)
{
    31d4:	defff704 	addi	sp,sp,-36
    31d8:	dfc00815 	stw	ra,32(sp)
    31dc:	df000715 	stw	fp,28(sp)
    31e0:	df000704 	addi	fp,sp,28
    OS_TCB    *ptcb;
#if OS_TICK_STEP_EN > 0
    BOOLEAN    step;
#endif
#if OS_CRITICAL_METHOD == 3                                /* Allocate storage for CPU status register     */
    OS_CPU_SR  cpu_sr = 0;
    31e4:	e03ffd15 	stw	zero,-12(fp)
#endif



#if OS_TIME_TICK_HOOK_EN > 0
    OSTimeTickHook();                                      /* Call user definable hook                     */
    31e8:	000d6740 	call	d674 <OSTimeTickHook>
  NIOS2_READ_STATUS (context);
    31ec:	0005303a 	rdctl	r2,status
    31f0:	e0bffb15 	stw	r2,-20(fp)
  NIOS2_WRITE_STATUS (context & ~NIOS2_STATUS_PIE_MSK);
    31f4:	e0fffb17 	ldw	r3,-20(fp)
    31f8:	00bfff84 	movi	r2,-2
    31fc:	1884703a 	and	r2,r3,r2
    3200:	1001703a 	wrctl	status,r2
  return context;
    3204:	e0bffb17 	ldw	r2,-20(fp)
#endif
#if OS_TIME_GET_SET_EN > 0
    OS_ENTER_CRITICAL();                                   /* Update the 32-bit tick counter               */
    3208:	e0bffd15 	stw	r2,-12(fp)
    OSTime++;
    320c:	d0a6ee17 	ldw	r2,-25672(gp)
    3210:	10800044 	addi	r2,r2,1
    3214:	d0a6ee15 	stw	r2,-25672(gp)
    3218:	e0bffd17 	ldw	r2,-12(fp)
    321c:	e0bffc15 	stw	r2,-16(fp)
  NIOS2_WRITE_STATUS (context);
    3220:	e0bffc17 	ldw	r2,-16(fp)
    3224:	1001703a 	wrctl	status,r2
}
    3228:	0001883a 	nop
    OS_EXIT_CRITICAL();
#endif
    if (OSRunning == OS_TRUE) {
    322c:	d0a6e543 	ldbu	r2,-25707(gp)
    3230:	10803fcc 	andi	r2,r2,255
    3234:	10800058 	cmpnei	r2,r2,1
    3238:	10006e1e 	bne	r2,zero,33f4 <OSTimeTick+0x220>
#if OS_TICK_STEP_EN > 0
        switch (OSTickStepState) {                         /* Determine whether we need to process a tick  */
    323c:	d0a6eb03 	ldbu	r2,-25684(gp)
    3240:	10803fcc 	andi	r2,r2,255
    3244:	10c000a0 	cmpeqi	r3,r2,2
    3248:	18000b1e 	bne	r3,zero,3278 <OSTimeTick+0xa4>
    324c:	10c000c8 	cmpgei	r3,r2,3
    3250:	18000e1e 	bne	r3,zero,328c <OSTimeTick+0xb8>
    3254:	10000326 	beq	r2,zero,3264 <OSTimeTick+0x90>
    3258:	10800060 	cmpeqi	r2,r2,1
    325c:	1000041e 	bne	r2,zero,3270 <OSTimeTick+0x9c>
    3260:	00000a06 	br	328c <OSTimeTick+0xb8>
            case OS_TICK_STEP_DIS:                         /* Yes, stepping is disabled                    */
                 step = OS_TRUE;
    3264:	00800044 	movi	r2,1
    3268:	e0bffec5 	stb	r2,-5(fp)
                 break;
    326c:	00000b06 	br	329c <OSTimeTick+0xc8>

            case OS_TICK_STEP_WAIT:                        /* No,  waiting for uC/OS-View to set ...       */
                 step = OS_FALSE;                          /*      .. OSTickStepState to OS_TICK_STEP_ONCE */
    3270:	e03ffec5 	stb	zero,-5(fp)
                 break;
    3274:	00000906 	br	329c <OSTimeTick+0xc8>

            case OS_TICK_STEP_ONCE:                        /* Yes, process tick once and wait for next ... */
                 step            = OS_TRUE;                /*      ... step command from uC/OS-View        */
    3278:	00800044 	movi	r2,1
    327c:	e0bffec5 	stb	r2,-5(fp)
                 OSTickStepState = OS_TICK_STEP_WAIT;
    3280:	00800044 	movi	r2,1
    3284:	d0a6eb05 	stb	r2,-25684(gp)
                 break;
    3288:	00000406 	br	329c <OSTimeTick+0xc8>

            default:                                       /* Invalid case, correct situation              */
                 step            = OS_TRUE;
    328c:	00800044 	movi	r2,1
    3290:	e0bffec5 	stb	r2,-5(fp)
                 OSTickStepState = OS_TICK_STEP_DIS;
    3294:	d026eb05 	stb	zero,-25684(gp)
                 break;
    3298:	0001883a 	nop
        }
        if (step == OS_FALSE) {                            /* Return if waiting for step command           */
    329c:	e0bffec3 	ldbu	r2,-5(fp)
    32a0:	10005326 	beq	r2,zero,33f0 <OSTimeTick+0x21c>
            return;
        }
#endif
        ptcb = OSTCBList;                                  /* Point at first TCB in TCB list               */
    32a4:	d0a6ea17 	ldw	r2,-25688(gp)
    32a8:	e0bfff15 	stw	r2,-4(fp)
        while (ptcb->OSTCBPrio != OS_TASK_IDLE_PRIO) {     /* Go through all TCBs in TCB list              */
    32ac:	00004a06 	br	33d8 <OSTimeTick+0x204>
  NIOS2_READ_STATUS (context);
    32b0:	0005303a 	rdctl	r2,status
    32b4:	e0bffa15 	stw	r2,-24(fp)
  NIOS2_WRITE_STATUS (context & ~NIOS2_STATUS_PIE_MSK);
    32b8:	e0fffa17 	ldw	r3,-24(fp)
    32bc:	00bfff84 	movi	r2,-2
    32c0:	1884703a 	and	r2,r3,r2
    32c4:	1001703a 	wrctl	status,r2
  return context;
    32c8:	e0bffa17 	ldw	r2,-24(fp)
            OS_ENTER_CRITICAL();
    32cc:	e0bffd15 	stw	r2,-12(fp)
            if (ptcb->OSTCBDly != 0) {                     /* No, Delayed or waiting for event with TO     */
    32d0:	e0bfff17 	ldw	r2,-4(fp)
    32d4:	10800b8b 	ldhu	r2,46(r2)
    32d8:	10bfffcc 	andi	r2,r2,65535
    32dc:	10003626 	beq	r2,zero,33b8 <OSTimeTick+0x1e4>
                if (--ptcb->OSTCBDly == 0) {               /* Decrement nbr of ticks to end of delay       */
    32e0:	e0bfff17 	ldw	r2,-4(fp)
    32e4:	10800b8b 	ldhu	r2,46(r2)
    32e8:	10bfffc4 	addi	r2,r2,-1
    32ec:	1007883a 	mov	r3,r2
    32f0:	e0bfff17 	ldw	r2,-4(fp)
    32f4:	10c00b8d 	sth	r3,46(r2)
    32f8:	e0bfff17 	ldw	r2,-4(fp)
    32fc:	10800b8b 	ldhu	r2,46(r2)
    3300:	10bfffcc 	andi	r2,r2,65535
    3304:	10002c1e 	bne	r2,zero,33b8 <OSTimeTick+0x1e4>
                                                           /* Check for timeout                            */
                    if ((ptcb->OSTCBStat & OS_STAT_PEND_ANY) != OS_STAT_RDY) {
    3308:	e0bfff17 	ldw	r2,-4(fp)
    330c:	10800c03 	ldbu	r2,48(r2)
    3310:	10803fcc 	andi	r2,r2,255
    3314:	10800dcc 	andi	r2,r2,55
    3318:	10000b26 	beq	r2,zero,3348 <OSTimeTick+0x174>
                        ptcb->OSTCBStat  &= ~(INT8U)OS_STAT_PEND_ANY;          /* Yes, Clear status flag   */
    331c:	e0bfff17 	ldw	r2,-4(fp)
    3320:	10c00c03 	ldbu	r3,48(r2)
    3324:	00bff204 	movi	r2,-56
    3328:	1884703a 	and	r2,r3,r2
    332c:	1007883a 	mov	r3,r2
    3330:	e0bfff17 	ldw	r2,-4(fp)
    3334:	10c00c05 	stb	r3,48(r2)
                        ptcb->OSTCBStatPend = OS_STAT_PEND_TO;                 /* Indicate PEND timeout    */
    3338:	e0bfff17 	ldw	r2,-4(fp)
    333c:	00c00044 	movi	r3,1
    3340:	10c00c45 	stb	r3,49(r2)
    3344:	00000206 	br	3350 <OSTimeTick+0x17c>
                    } else {
                        ptcb->OSTCBStatPend = OS_STAT_PEND_OK;
    3348:	e0bfff17 	ldw	r2,-4(fp)
    334c:	10000c45 	stb	zero,49(r2)
                    }

                    if ((ptcb->OSTCBStat & OS_STAT_SUSPEND) == OS_STAT_RDY) {  /* Is task suspended?       */
    3350:	e0bfff17 	ldw	r2,-4(fp)
    3354:	10800c03 	ldbu	r2,48(r2)
    3358:	10803fcc 	andi	r2,r2,255
    335c:	1080020c 	andi	r2,r2,8
    3360:	1000151e 	bne	r2,zero,33b8 <OSTimeTick+0x1e4>
                        OSRdyGrp               |= ptcb->OSTCBBitY;             /* No,  Make ready          */
    3364:	e0bfff17 	ldw	r2,-4(fp)
    3368:	10c00d83 	ldbu	r3,54(r2)
    336c:	d0a6e443 	ldbu	r2,-25711(gp)
    3370:	1884b03a 	or	r2,r3,r2
    3374:	d0a6e445 	stb	r2,-25711(gp)
                        OSRdyTbl[ptcb->OSTCBY] |= ptcb->OSTCBBitX;
    3378:	e0bfff17 	ldw	r2,-4(fp)
    337c:	10800d03 	ldbu	r2,52(r2)
    3380:	10c03fcc 	andi	r3,r2,255
    3384:	d0a6e484 	addi	r2,gp,-25710
    3388:	1885883a 	add	r2,r3,r2
    338c:	11000003 	ldbu	r4,0(r2)
    3390:	e0bfff17 	ldw	r2,-4(fp)
    3394:	10800d43 	ldbu	r2,53(r2)
    3398:	e0ffff17 	ldw	r3,-4(fp)
    339c:	18c00d03 	ldbu	r3,52(r3)
    33a0:	18c03fcc 	andi	r3,r3,255
    33a4:	2084b03a 	or	r2,r4,r2
    33a8:	1009883a 	mov	r4,r2
    33ac:	d0a6e484 	addi	r2,gp,-25710
    33b0:	1885883a 	add	r2,r3,r2
    33b4:	11000005 	stb	r4,0(r2)
                    }
                }
            }
            ptcb = ptcb->OSTCBNext;                        /* Point at next TCB in TCB list                */
    33b8:	e0bfff17 	ldw	r2,-4(fp)
    33bc:	10800517 	ldw	r2,20(r2)
    33c0:	e0bfff15 	stw	r2,-4(fp)
    33c4:	e0bffd17 	ldw	r2,-12(fp)
    33c8:	e0bff915 	stw	r2,-28(fp)
  NIOS2_WRITE_STATUS (context);
    33cc:	e0bff917 	ldw	r2,-28(fp)
    33d0:	1001703a 	wrctl	status,r2
}
    33d4:	0001883a 	nop
        while (ptcb->OSTCBPrio != OS_TASK_IDLE_PRIO) {     /* Go through all TCBs in TCB list              */
    33d8:	e0bfff17 	ldw	r2,-4(fp)
    33dc:	10800c83 	ldbu	r2,50(r2)
    33e0:	10803fcc 	andi	r2,r2,255
    33e4:	10800518 	cmpnei	r2,r2,20
    33e8:	103fb11e 	bne	r2,zero,32b0 <OSTimeTick+0xdc>
    33ec:	00000106 	br	33f4 <OSTimeTick+0x220>
            return;
    33f0:	0001883a 	nop
            OS_EXIT_CRITICAL();
        }
    }
}
    33f4:	e037883a 	mov	sp,fp
    33f8:	dfc00117 	ldw	ra,4(sp)
    33fc:	df000017 	ldw	fp,0(sp)
    3400:	dec00204 	addi	sp,sp,8
    3404:	f800283a 	ret

00003408 <OSVersion>:
* Returns    : the version number of uC/OS-II multiplied by 100.
*********************************************************************************************************
*/

INT16U  OSVersion (void)
{
    3408:	deffff04 	addi	sp,sp,-4
    340c:	df000015 	stw	fp,0(sp)
    3410:	d839883a 	mov	fp,sp
    return (OS_VERSION);
    3414:	00804784 	movi	r2,286
}
    3418:	e037883a 	mov	sp,fp
    341c:	df000017 	ldw	fp,0(sp)
    3420:	dec00104 	addi	sp,sp,4
    3424:	f800283a 	ret

00003428 <OS_Dummy>:
*********************************************************************************************************
*/

#if OS_TASK_DEL_EN > 0
void  OS_Dummy (void)
{
    3428:	deffff04 	addi	sp,sp,-4
    342c:	df000015 	stw	fp,0(sp)
    3430:	d839883a 	mov	fp,sp
}
    3434:	0001883a 	nop
    3438:	e037883a 	mov	sp,fp
    343c:	df000017 	ldw	fp,0(sp)
    3440:	dec00104 	addi	sp,sp,4
    3444:	f800283a 	ret

00003448 <OS_EventTaskRdy>:
* Note       : This function is INTERNAL to uC/OS-II and your application should not call it.
*********************************************************************************************************
*/
#if (OS_EVENT_EN)
INT8U  OS_EventTaskRdy (OS_EVENT *pevent, void *pmsg, INT8U msk, INT8U pend_stat)
{
    3448:	defff804 	addi	sp,sp,-32
    344c:	dfc00715 	stw	ra,28(sp)
    3450:	df000615 	stw	fp,24(sp)
    3454:	df000604 	addi	fp,sp,24
    3458:	e13ffd15 	stw	r4,-12(fp)
    345c:	e17ffc15 	stw	r5,-16(fp)
    3460:	3005883a 	mov	r2,r6
    3464:	3807883a 	mov	r3,r7
    3468:	e0bffb05 	stb	r2,-20(fp)
    346c:	1805883a 	mov	r2,r3
    3470:	e0bffa05 	stb	r2,-24(fp)
    INT16U  *ptbl;
#endif


#if OS_LOWEST_PRIO <= 63
    y    = OSUnMapTbl[pevent->OSEventGrp];              /* Find HPT waiting for message                */
    3474:	e0bffd17 	ldw	r2,-12(fp)
    3478:	10800283 	ldbu	r2,10(r2)
    347c:	10c03fcc 	andi	r3,r2,255
    3480:	00800074 	movhi	r2,1
    3484:	1885883a 	add	r2,r3,r2
    3488:	10b81803 	ldbu	r2,-8096(r2)
    348c:	e0bfffc5 	stb	r2,-1(fp)
    x    = OSUnMapTbl[pevent->OSEventTbl[y]];
    3490:	e0bfffc3 	ldbu	r2,-1(fp)
    3494:	e0fffd17 	ldw	r3,-12(fp)
    3498:	1885883a 	add	r2,r3,r2
    349c:	108002c3 	ldbu	r2,11(r2)
    34a0:	10c03fcc 	andi	r3,r2,255
    34a4:	00800074 	movhi	r2,1
    34a8:	1885883a 	add	r2,r3,r2
    34ac:	10b81803 	ldbu	r2,-8096(r2)
    34b0:	e0bfff85 	stb	r2,-2(fp)
    prio = (INT8U)((y << 3) + x);                       /* Find priority of task getting the msg       */
    34b4:	e0bfffc3 	ldbu	r2,-1(fp)
    34b8:	100490fa 	slli	r2,r2,3
    34bc:	1007883a 	mov	r3,r2
    34c0:	e0bfff83 	ldbu	r2,-2(fp)
    34c4:	10c5883a 	add	r2,r2,r3
    34c8:	e0bfff45 	stb	r2,-3(fp)
        x = OSUnMapTbl[(*ptbl >> 8) & 0xFF] + 8;
    }
    prio = (INT8U)((y << 4) + x);                       /* Find priority of task getting the msg       */
#endif

    ptcb                  =  OSTCBPrioTbl[prio];        /* Point to this task's OS_TCB                 */
    34cc:	e0bfff43 	ldbu	r2,-3(fp)
    34d0:	100690ba 	slli	r3,r2,2
    34d4:	008000b4 	movhi	r2,2
    34d8:	1885883a 	add	r2,r3,r2
    34dc:	10a5ac17 	ldw	r2,-26960(r2)
    34e0:	e0bffe15 	stw	r2,-8(fp)
    ptcb->OSTCBDly        =  0;                         /* Prevent OSTimeTick() from readying task     */
    34e4:	e0bffe17 	ldw	r2,-8(fp)
    34e8:	10000b8d 	sth	zero,46(r2)
#if ((OS_Q_EN > 0) && (OS_MAX_QS > 0)) || (OS_MBOX_EN > 0)
    ptcb->OSTCBMsg        =  pmsg;                      /* Send message directly to waiting task       */
    34ec:	e0bffe17 	ldw	r2,-8(fp)
    34f0:	e0fffc17 	ldw	r3,-16(fp)
    34f4:	10c00915 	stw	r3,36(r2)
#else
    pmsg                  =  pmsg;                      /* Prevent compiler warning if not used        */
#endif
    ptcb->OSTCBStat      &= ~msk;                       /* Clear bit associated with event type        */
    34f8:	e0bffe17 	ldw	r2,-8(fp)
    34fc:	10800c03 	ldbu	r2,48(r2)
    3500:	1007883a 	mov	r3,r2
    3504:	e0bffb03 	ldbu	r2,-20(fp)
    3508:	0084303a 	nor	r2,zero,r2
    350c:	1884703a 	and	r2,r3,r2
    3510:	1007883a 	mov	r3,r2
    3514:	e0bffe17 	ldw	r2,-8(fp)
    3518:	10c00c05 	stb	r3,48(r2)
    ptcb->OSTCBStatPend   =  pend_stat;                 /* Set pend status of post or abort            */
    351c:	e0bffe17 	ldw	r2,-8(fp)
    3520:	e0fffa03 	ldbu	r3,-24(fp)
    3524:	10c00c45 	stb	r3,49(r2)
                                                        /* See if task is ready (could be susp'd)      */
    if ((ptcb->OSTCBStat &   OS_STAT_SUSPEND) == OS_STAT_RDY) {
    3528:	e0bffe17 	ldw	r2,-8(fp)
    352c:	10800c03 	ldbu	r2,48(r2)
    3530:	10803fcc 	andi	r2,r2,255
    3534:	1080020c 	andi	r2,r2,8
    3538:	1000111e 	bne	r2,zero,3580 <OS_EventTaskRdy+0x138>
        OSRdyGrp         |=  ptcb->OSTCBBitY;           /* Put task in the ready to run list           */
    353c:	e0bffe17 	ldw	r2,-8(fp)
    3540:	10c00d83 	ldbu	r3,54(r2)
    3544:	d0a6e443 	ldbu	r2,-25711(gp)
    3548:	1884b03a 	or	r2,r3,r2
    354c:	d0a6e445 	stb	r2,-25711(gp)
        OSRdyTbl[y]      |=  ptcb->OSTCBBitX;
    3550:	e0ffffc3 	ldbu	r3,-1(fp)
    3554:	d0a6e484 	addi	r2,gp,-25710
    3558:	1885883a 	add	r2,r3,r2
    355c:	11000003 	ldbu	r4,0(r2)
    3560:	e0bffe17 	ldw	r2,-8(fp)
    3564:	10800d43 	ldbu	r2,53(r2)
    3568:	e0ffffc3 	ldbu	r3,-1(fp)
    356c:	2084b03a 	or	r2,r4,r2
    3570:	1009883a 	mov	r4,r2
    3574:	d0a6e484 	addi	r2,gp,-25710
    3578:	1885883a 	add	r2,r3,r2
    357c:	11000005 	stb	r4,0(r2)
    }

    OS_EventTaskRemove(ptcb, pevent);                   /* Remove this task from event   wait list     */
    3580:	e17ffd17 	ldw	r5,-12(fp)
    3584:	e13ffe17 	ldw	r4,-8(fp)
    3588:	00038200 	call	3820 <OS_EventTaskRemove>
#if (OS_EVENT_MULTI_EN > 0)
    if (ptcb->OSTCBEventMultiPtr != (OS_EVENT **)0) {   /* Remove this task from events' wait lists    */
    358c:	e0bffe17 	ldw	r2,-8(fp)
    3590:	10800817 	ldw	r2,32(r2)
    3594:	10000826 	beq	r2,zero,35b8 <OS_EventTaskRdy+0x170>
        OS_EventTaskRemoveMulti(ptcb, ptcb->OSTCBEventMultiPtr);
    3598:	e0bffe17 	ldw	r2,-8(fp)
    359c:	10800817 	ldw	r2,32(r2)
    35a0:	100b883a 	mov	r5,r2
    35a4:	e13ffe17 	ldw	r4,-8(fp)
    35a8:	00038d00 	call	38d0 <OS_EventTaskRemoveMulti>
        ptcb->OSTCBEventPtr       = (OS_EVENT  *)pevent;/* Return event as first multi-pend event ready*/
    35ac:	e0bffe17 	ldw	r2,-8(fp)
    35b0:	e0fffd17 	ldw	r3,-12(fp)
    35b4:	10c00715 	stw	r3,28(r2)
    }
#endif

    return (prio);
    35b8:	e0bfff43 	ldbu	r2,-3(fp)
}
    35bc:	e037883a 	mov	sp,fp
    35c0:	dfc00117 	ldw	ra,4(sp)
    35c4:	df000017 	ldw	fp,0(sp)
    35c8:	dec00204 	addi	sp,sp,8
    35cc:	f800283a 	ret

000035d0 <OS_EventTaskWait>:
* Note       : This function is INTERNAL to uC/OS-II and your application should not call it.
*********************************************************************************************************
*/
#if (OS_EVENT_EN)
void  OS_EventTaskWait (OS_EVENT *pevent)
{
    35d0:	defffd04 	addi	sp,sp,-12
    35d4:	df000215 	stw	fp,8(sp)
    35d8:	df000204 	addi	fp,sp,8
    35dc:	e13ffe15 	stw	r4,-8(fp)
    INT8U  y;


    OSTCBCur->OSTCBEventPtr               = pevent;                 /* Store ptr to ECB in TCB         */
    35e0:	d0a6e717 	ldw	r2,-25700(gp)
    35e4:	e0fffe17 	ldw	r3,-8(fp)
    35e8:	10c00715 	stw	r3,28(r2)

    pevent->OSEventTbl[OSTCBCur->OSTCBY] |= OSTCBCur->OSTCBBitX;    /* Put task in waiting list        */
    35ec:	d0a6e717 	ldw	r2,-25700(gp)
    35f0:	10800d03 	ldbu	r2,52(r2)
    35f4:	10803fcc 	andi	r2,r2,255
    35f8:	e0fffe17 	ldw	r3,-8(fp)
    35fc:	1885883a 	add	r2,r3,r2
    3600:	110002c3 	ldbu	r4,11(r2)
    3604:	d0a6e717 	ldw	r2,-25700(gp)
    3608:	10c00d43 	ldbu	r3,53(r2)
    360c:	d0a6e717 	ldw	r2,-25700(gp)
    3610:	10800d03 	ldbu	r2,52(r2)
    3614:	10803fcc 	andi	r2,r2,255
    3618:	20c6b03a 	or	r3,r4,r3
    361c:	1809883a 	mov	r4,r3
    3620:	e0fffe17 	ldw	r3,-8(fp)
    3624:	1885883a 	add	r2,r3,r2
    3628:	110002c5 	stb	r4,11(r2)
    pevent->OSEventGrp                   |= OSTCBCur->OSTCBBitY;
    362c:	e0bffe17 	ldw	r2,-8(fp)
    3630:	10c00283 	ldbu	r3,10(r2)
    3634:	d0a6e717 	ldw	r2,-25700(gp)
    3638:	10800d83 	ldbu	r2,54(r2)
    363c:	1884b03a 	or	r2,r3,r2
    3640:	1007883a 	mov	r3,r2
    3644:	e0bffe17 	ldw	r2,-8(fp)
    3648:	10c00285 	stb	r3,10(r2)

    y             =  OSTCBCur->OSTCBY;            /* Task no longer ready                              */
    364c:	d0a6e717 	ldw	r2,-25700(gp)
    3650:	10800d03 	ldbu	r2,52(r2)
    3654:	e0bfffc5 	stb	r2,-1(fp)
    OSRdyTbl[y]  &= ~OSTCBCur->OSTCBBitX;
    3658:	e0ffffc3 	ldbu	r3,-1(fp)
    365c:	d0a6e484 	addi	r2,gp,-25710
    3660:	1885883a 	add	r2,r3,r2
    3664:	10800003 	ldbu	r2,0(r2)
    3668:	1007883a 	mov	r3,r2
    366c:	d0a6e717 	ldw	r2,-25700(gp)
    3670:	10800d43 	ldbu	r2,53(r2)
    3674:	0084303a 	nor	r2,zero,r2
    3678:	1884703a 	and	r2,r3,r2
    367c:	e0ffffc3 	ldbu	r3,-1(fp)
    3680:	1009883a 	mov	r4,r2
    3684:	d0a6e484 	addi	r2,gp,-25710
    3688:	1885883a 	add	r2,r3,r2
    368c:	11000005 	stb	r4,0(r2)
    if (OSRdyTbl[y] == 0) {
    3690:	e0ffffc3 	ldbu	r3,-1(fp)
    3694:	d0a6e484 	addi	r2,gp,-25710
    3698:	1885883a 	add	r2,r3,r2
    369c:	10800003 	ldbu	r2,0(r2)
    36a0:	10803fcc 	andi	r2,r2,255
    36a4:	1000071e 	bne	r2,zero,36c4 <OS_EventTaskWait+0xf4>
        OSRdyGrp &= ~OSTCBCur->OSTCBBitY;         /* Clear event grp bit if this was only task pending */
    36a8:	d0a6e717 	ldw	r2,-25700(gp)
    36ac:	10800d83 	ldbu	r2,54(r2)
    36b0:	0084303a 	nor	r2,zero,r2
    36b4:	1007883a 	mov	r3,r2
    36b8:	d0a6e443 	ldbu	r2,-25711(gp)
    36bc:	1884703a 	and	r2,r3,r2
    36c0:	d0a6e445 	stb	r2,-25711(gp)
    }
}
    36c4:	0001883a 	nop
    36c8:	e037883a 	mov	sp,fp
    36cc:	df000017 	ldw	fp,0(sp)
    36d0:	dec00104 	addi	sp,sp,4
    36d4:	f800283a 	ret

000036d8 <OS_EventTaskWaitMulti>:
* Note       : This function is INTERNAL to uC/OS-II and your application should not call it.
*********************************************************************************************************
*/
#if ((OS_EVENT_EN) && (OS_EVENT_MULTI_EN > 0))
void  OS_EventTaskWaitMulti (OS_EVENT **pevents_wait)
{
    36d8:	defffb04 	addi	sp,sp,-20
    36dc:	df000415 	stw	fp,16(sp)
    36e0:	df000404 	addi	fp,sp,16
    36e4:	e13ffc15 	stw	r4,-16(fp)
    OS_EVENT **pevents;
    OS_EVENT  *pevent;
    INT8U      y;


    OSTCBCur->OSTCBEventPtr      = (OS_EVENT  *)0;
    36e8:	d0a6e717 	ldw	r2,-25700(gp)
    36ec:	10000715 	stw	zero,28(r2)
    OSTCBCur->OSTCBEventMultiPtr = (OS_EVENT **)pevents_wait;       /* Store ptr to ECBs in TCB        */
    36f0:	d0a6e717 	ldw	r2,-25700(gp)
    36f4:	e0fffc17 	ldw	r3,-16(fp)
    36f8:	10c00815 	stw	r3,32(r2)

    pevents =  pevents_wait;
    36fc:	e0bffc17 	ldw	r2,-16(fp)
    3700:	e0bfff15 	stw	r2,-4(fp)
    pevent  = *pevents;
    3704:	e0bfff17 	ldw	r2,-4(fp)
    3708:	10800017 	ldw	r2,0(r2)
    370c:	e0bffe15 	stw	r2,-8(fp)
    while (pevent != (OS_EVENT *)0) {                               /* Put task in waiting lists       */
    3710:	00001e06 	br	378c <OS_EventTaskWaitMulti+0xb4>
        pevent->OSEventTbl[OSTCBCur->OSTCBY] |= OSTCBCur->OSTCBBitX;
    3714:	d0a6e717 	ldw	r2,-25700(gp)
    3718:	10800d03 	ldbu	r2,52(r2)
    371c:	10803fcc 	andi	r2,r2,255
    3720:	e0fffe17 	ldw	r3,-8(fp)
    3724:	1885883a 	add	r2,r3,r2
    3728:	110002c3 	ldbu	r4,11(r2)
    372c:	d0a6e717 	ldw	r2,-25700(gp)
    3730:	10c00d43 	ldbu	r3,53(r2)
    3734:	d0a6e717 	ldw	r2,-25700(gp)
    3738:	10800d03 	ldbu	r2,52(r2)
    373c:	10803fcc 	andi	r2,r2,255
    3740:	20c6b03a 	or	r3,r4,r3
    3744:	1809883a 	mov	r4,r3
    3748:	e0fffe17 	ldw	r3,-8(fp)
    374c:	1885883a 	add	r2,r3,r2
    3750:	110002c5 	stb	r4,11(r2)
        pevent->OSEventGrp                   |= OSTCBCur->OSTCBBitY;
    3754:	e0bffe17 	ldw	r2,-8(fp)
    3758:	10c00283 	ldbu	r3,10(r2)
    375c:	d0a6e717 	ldw	r2,-25700(gp)
    3760:	10800d83 	ldbu	r2,54(r2)
    3764:	1884b03a 	or	r2,r3,r2
    3768:	1007883a 	mov	r3,r2
    376c:	e0bffe17 	ldw	r2,-8(fp)
    3770:	10c00285 	stb	r3,10(r2)
        pevents++;
    3774:	e0bfff17 	ldw	r2,-4(fp)
    3778:	10800104 	addi	r2,r2,4
    377c:	e0bfff15 	stw	r2,-4(fp)
        pevent = *pevents;
    3780:	e0bfff17 	ldw	r2,-4(fp)
    3784:	10800017 	ldw	r2,0(r2)
    3788:	e0bffe15 	stw	r2,-8(fp)
    while (pevent != (OS_EVENT *)0) {                               /* Put task in waiting lists       */
    378c:	e0bffe17 	ldw	r2,-8(fp)
    3790:	103fe01e 	bne	r2,zero,3714 <OS_EventTaskWaitMulti+0x3c>
    }

    y             =  OSTCBCur->OSTCBY;            /* Task no longer ready                              */
    3794:	d0a6e717 	ldw	r2,-25700(gp)
    3798:	10800d03 	ldbu	r2,52(r2)
    379c:	e0bffdc5 	stb	r2,-9(fp)
    OSRdyTbl[y]  &= ~OSTCBCur->OSTCBBitX;
    37a0:	e0fffdc3 	ldbu	r3,-9(fp)
    37a4:	d0a6e484 	addi	r2,gp,-25710
    37a8:	1885883a 	add	r2,r3,r2
    37ac:	10800003 	ldbu	r2,0(r2)
    37b0:	1007883a 	mov	r3,r2
    37b4:	d0a6e717 	ldw	r2,-25700(gp)
    37b8:	10800d43 	ldbu	r2,53(r2)
    37bc:	0084303a 	nor	r2,zero,r2
    37c0:	1884703a 	and	r2,r3,r2
    37c4:	e0fffdc3 	ldbu	r3,-9(fp)
    37c8:	1009883a 	mov	r4,r2
    37cc:	d0a6e484 	addi	r2,gp,-25710
    37d0:	1885883a 	add	r2,r3,r2
    37d4:	11000005 	stb	r4,0(r2)
    if (OSRdyTbl[y] == 0) {
    37d8:	e0fffdc3 	ldbu	r3,-9(fp)
    37dc:	d0a6e484 	addi	r2,gp,-25710
    37e0:	1885883a 	add	r2,r3,r2
    37e4:	10800003 	ldbu	r2,0(r2)
    37e8:	10803fcc 	andi	r2,r2,255
    37ec:	1000071e 	bne	r2,zero,380c <OS_EventTaskWaitMulti+0x134>
        OSRdyGrp &= ~OSTCBCur->OSTCBBitY;         /* Clear event grp bit if this was only task pending */
    37f0:	d0a6e717 	ldw	r2,-25700(gp)
    37f4:	10800d83 	ldbu	r2,54(r2)
    37f8:	0084303a 	nor	r2,zero,r2
    37fc:	1007883a 	mov	r3,r2
    3800:	d0a6e443 	ldbu	r2,-25711(gp)
    3804:	1884703a 	and	r2,r3,r2
    3808:	d0a6e445 	stb	r2,-25711(gp)
    }
}
    380c:	0001883a 	nop
    3810:	e037883a 	mov	sp,fp
    3814:	df000017 	ldw	fp,0(sp)
    3818:	dec00104 	addi	sp,sp,4
    381c:	f800283a 	ret

00003820 <OS_EventTaskRemove>:
*********************************************************************************************************
*/
#if (OS_EVENT_EN)
void  OS_EventTaskRemove (OS_TCB   *ptcb,
                          OS_EVENT *pevent)
{
    3820:	defffc04 	addi	sp,sp,-16
    3824:	df000315 	stw	fp,12(sp)
    3828:	df000304 	addi	fp,sp,12
    382c:	e13ffe15 	stw	r4,-8(fp)
    3830:	e17ffd15 	stw	r5,-12(fp)
    INT8U  y;


    y                       =  ptcb->OSTCBY;
    3834:	e0bffe17 	ldw	r2,-8(fp)
    3838:	10800d03 	ldbu	r2,52(r2)
    383c:	e0bfffc5 	stb	r2,-1(fp)
    pevent->OSEventTbl[y]  &= ~ptcb->OSTCBBitX;         /* Remove task from wait list                  */
    3840:	e0bfffc3 	ldbu	r2,-1(fp)
    3844:	e0fffd17 	ldw	r3,-12(fp)
    3848:	1885883a 	add	r2,r3,r2
    384c:	108002c3 	ldbu	r2,11(r2)
    3850:	1007883a 	mov	r3,r2
    3854:	e0bffe17 	ldw	r2,-8(fp)
    3858:	10800d43 	ldbu	r2,53(r2)
    385c:	0084303a 	nor	r2,zero,r2
    3860:	1884703a 	and	r2,r3,r2
    3864:	1007883a 	mov	r3,r2
    3868:	e0bfffc3 	ldbu	r2,-1(fp)
    386c:	1809883a 	mov	r4,r3
    3870:	e0fffd17 	ldw	r3,-12(fp)
    3874:	1885883a 	add	r2,r3,r2
    3878:	110002c5 	stb	r4,11(r2)
    if (pevent->OSEventTbl[y] == 0) {
    387c:	e0bfffc3 	ldbu	r2,-1(fp)
    3880:	e0fffd17 	ldw	r3,-12(fp)
    3884:	1885883a 	add	r2,r3,r2
    3888:	108002c3 	ldbu	r2,11(r2)
    388c:	10803fcc 	andi	r2,r2,255
    3890:	10000a1e 	bne	r2,zero,38bc <OS_EventTaskRemove+0x9c>
        pevent->OSEventGrp &= ~ptcb->OSTCBBitY;
    3894:	e0bffd17 	ldw	r2,-12(fp)
    3898:	10800283 	ldbu	r2,10(r2)
    389c:	1007883a 	mov	r3,r2
    38a0:	e0bffe17 	ldw	r2,-8(fp)
    38a4:	10800d83 	ldbu	r2,54(r2)
    38a8:	0084303a 	nor	r2,zero,r2
    38ac:	1884703a 	and	r2,r3,r2
    38b0:	1007883a 	mov	r3,r2
    38b4:	e0bffd17 	ldw	r2,-12(fp)
    38b8:	10c00285 	stb	r3,10(r2)
    }
}
    38bc:	0001883a 	nop
    38c0:	e037883a 	mov	sp,fp
    38c4:	df000017 	ldw	fp,0(sp)
    38c8:	dec00104 	addi	sp,sp,4
    38cc:	f800283a 	ret

000038d0 <OS_EventTaskRemoveMulti>:
*********************************************************************************************************
*/
#if ((OS_EVENT_EN) && (OS_EVENT_MULTI_EN > 0))
void  OS_EventTaskRemoveMulti (OS_TCB    *ptcb,
                               OS_EVENT **pevents_multi)
{
    38d0:	defffa04 	addi	sp,sp,-24
    38d4:	df000515 	stw	fp,20(sp)
    38d8:	df000504 	addi	fp,sp,20
    38dc:	e13ffc15 	stw	r4,-16(fp)
    38e0:	e17ffb15 	stw	r5,-20(fp)
    INT16U     bity;
    INT16U     bitx;
#endif


    y       =  ptcb->OSTCBY;
    38e4:	e0bffc17 	ldw	r2,-16(fp)
    38e8:	10800d03 	ldbu	r2,52(r2)
    38ec:	e0bffdc5 	stb	r2,-9(fp)
    bity    =  ptcb->OSTCBBitY;
    38f0:	e0bffc17 	ldw	r2,-16(fp)
    38f4:	10800d83 	ldbu	r2,54(r2)
    38f8:	e0bffd85 	stb	r2,-10(fp)
    bitx    =  ptcb->OSTCBBitX;
    38fc:	e0bffc17 	ldw	r2,-16(fp)
    3900:	10800d43 	ldbu	r2,53(r2)
    3904:	e0bffd45 	stb	r2,-11(fp)
    pevents =  pevents_multi;
    3908:	e0bffb17 	ldw	r2,-20(fp)
    390c:	e0bfff15 	stw	r2,-4(fp)
    pevent  = *pevents;
    3910:	e0bfff17 	ldw	r2,-4(fp)
    3914:	10800017 	ldw	r2,0(r2)
    3918:	e0bffe15 	stw	r2,-8(fp)
    while (pevent != (OS_EVENT *)0) {                   /* Remove task from all events' wait lists     */
    391c:	00002306 	br	39ac <OS_EventTaskRemoveMulti+0xdc>
        pevent->OSEventTbl[y]  &= ~bitx;
    3920:	e0bffdc3 	ldbu	r2,-9(fp)
    3924:	e0fffe17 	ldw	r3,-8(fp)
    3928:	1885883a 	add	r2,r3,r2
    392c:	108002c3 	ldbu	r2,11(r2)
    3930:	1007883a 	mov	r3,r2
    3934:	e0bffd43 	ldbu	r2,-11(fp)
    3938:	0084303a 	nor	r2,zero,r2
    393c:	1884703a 	and	r2,r3,r2
    3940:	1007883a 	mov	r3,r2
    3944:	e0bffdc3 	ldbu	r2,-9(fp)
    3948:	1809883a 	mov	r4,r3
    394c:	e0fffe17 	ldw	r3,-8(fp)
    3950:	1885883a 	add	r2,r3,r2
    3954:	110002c5 	stb	r4,11(r2)
        if (pevent->OSEventTbl[y] == 0) {
    3958:	e0bffdc3 	ldbu	r2,-9(fp)
    395c:	e0fffe17 	ldw	r3,-8(fp)
    3960:	1885883a 	add	r2,r3,r2
    3964:	108002c3 	ldbu	r2,11(r2)
    3968:	10803fcc 	andi	r2,r2,255
    396c:	1000091e 	bne	r2,zero,3994 <OS_EventTaskRemoveMulti+0xc4>
            pevent->OSEventGrp &= ~bity;
    3970:	e0bffe17 	ldw	r2,-8(fp)
    3974:	10800283 	ldbu	r2,10(r2)
    3978:	1007883a 	mov	r3,r2
    397c:	e0bffd83 	ldbu	r2,-10(fp)
    3980:	0084303a 	nor	r2,zero,r2
    3984:	1884703a 	and	r2,r3,r2
    3988:	1007883a 	mov	r3,r2
    398c:	e0bffe17 	ldw	r2,-8(fp)
    3990:	10c00285 	stb	r3,10(r2)
        }
        pevents++;
    3994:	e0bfff17 	ldw	r2,-4(fp)
    3998:	10800104 	addi	r2,r2,4
    399c:	e0bfff15 	stw	r2,-4(fp)
        pevent = *pevents;
    39a0:	e0bfff17 	ldw	r2,-4(fp)
    39a4:	10800017 	ldw	r2,0(r2)
    39a8:	e0bffe15 	stw	r2,-8(fp)
    while (pevent != (OS_EVENT *)0) {                   /* Remove task from all events' wait lists     */
    39ac:	e0bffe17 	ldw	r2,-8(fp)
    39b0:	103fdb1e 	bne	r2,zero,3920 <OS_EventTaskRemoveMulti+0x50>
    }
}
    39b4:	0001883a 	nop
    39b8:	0001883a 	nop
    39bc:	e037883a 	mov	sp,fp
    39c0:	df000017 	ldw	fp,0(sp)
    39c4:	dec00104 	addi	sp,sp,4
    39c8:	f800283a 	ret

000039cc <OS_EventWaitListInit>:
* Note       : This function is INTERNAL to uC/OS-II and your application should not call it.
*********************************************************************************************************
*/
#if (OS_EVENT_EN)
void  OS_EventWaitListInit (OS_EVENT *pevent)
{
    39cc:	defffc04 	addi	sp,sp,-16
    39d0:	df000315 	stw	fp,12(sp)
    39d4:	df000304 	addi	fp,sp,12
    39d8:	e13ffd15 	stw	r4,-12(fp)
    INT16U *ptbl;
#endif
    INT8U   i;


    pevent->OSEventGrp = 0;                      /* No task waiting on event                           */
    39dc:	e0bffd17 	ldw	r2,-12(fp)
    39e0:	10000285 	stb	zero,10(r2)
    ptbl               = &pevent->OSEventTbl[0];
    39e4:	e0bffd17 	ldw	r2,-12(fp)
    39e8:	108002c4 	addi	r2,r2,11
    39ec:	e0bfff15 	stw	r2,-4(fp)

    for (i = 0; i < OS_EVENT_TBL_SIZE; i++) {
    39f0:	e03ffec5 	stb	zero,-5(fp)
    39f4:	00000706 	br	3a14 <OS_EventWaitListInit+0x48>
        *ptbl++ = 0;
    39f8:	e0bfff17 	ldw	r2,-4(fp)
    39fc:	10c00044 	addi	r3,r2,1
    3a00:	e0ffff15 	stw	r3,-4(fp)
    3a04:	10000005 	stb	zero,0(r2)
    for (i = 0; i < OS_EVENT_TBL_SIZE; i++) {
    3a08:	e0bffec3 	ldbu	r2,-5(fp)
    3a0c:	10800044 	addi	r2,r2,1
    3a10:	e0bffec5 	stb	r2,-5(fp)
    3a14:	e0bffec3 	ldbu	r2,-5(fp)
    3a18:	108000f0 	cmpltui	r2,r2,3
    3a1c:	103ff61e 	bne	r2,zero,39f8 <OS_EventWaitListInit+0x2c>
    }
}
    3a20:	0001883a 	nop
    3a24:	0001883a 	nop
    3a28:	e037883a 	mov	sp,fp
    3a2c:	df000017 	ldw	fp,0(sp)
    3a30:	dec00104 	addi	sp,sp,4
    3a34:	f800283a 	ret

00003a38 <OS_InitEventList>:
* Returns    : none
*********************************************************************************************************
*/

static  void  OS_InitEventList (void)
{
    3a38:	defffb04 	addi	sp,sp,-20
    3a3c:	dfc00415 	stw	ra,16(sp)
    3a40:	df000315 	stw	fp,12(sp)
    3a44:	df000304 	addi	fp,sp,12
    INT16U     i;
    OS_EVENT  *pevent1;
    OS_EVENT  *pevent2;


    OS_MemClr((INT8U *)&OSEventTbl[0], sizeof(OSEventTbl)); /* Clear the event table                   */
    3a48:	0142d004 	movi	r5,2880
    3a4c:	01000074 	movhi	r4,1
    3a50:	211e0004 	addi	r4,r4,30720
    3a54:	0003db80 	call	3db8 <OS_MemClr>
    pevent1 = &OSEventTbl[0];
    3a58:	00800074 	movhi	r2,1
    3a5c:	109e0004 	addi	r2,r2,30720
    3a60:	e0bffe15 	stw	r2,-8(fp)
    pevent2 = &OSEventTbl[1];
    3a64:	00800074 	movhi	r2,1
    3a68:	109e0c04 	addi	r2,r2,30768
    3a6c:	e0bffd15 	stw	r2,-12(fp)
    for (i = 0; i < (OS_MAX_EVENTS - 1); i++) {             /* Init. list of free EVENT control blocks */
    3a70:	e03fff8d 	sth	zero,-2(fp)
    3a74:	00001306 	br	3ac4 <OS_InitEventList+0x8c>
        pevent1->OSEventType    = OS_EVENT_TYPE_UNUSED;
    3a78:	e0bffe17 	ldw	r2,-8(fp)
    3a7c:	10000005 	stb	zero,0(r2)
        pevent1->OSEventPtr     = pevent2;
    3a80:	e0bffe17 	ldw	r2,-8(fp)
    3a84:	e0fffd17 	ldw	r3,-12(fp)
    3a88:	10c00115 	stw	r3,4(r2)
#if OS_EVENT_NAME_SIZE > 1
        pevent1->OSEventName[0] = '?';                      /* Unknown name                            */
    3a8c:	e0bffe17 	ldw	r2,-8(fp)
    3a90:	00c00fc4 	movi	r3,63
    3a94:	10c00385 	stb	r3,14(r2)
        pevent1->OSEventName[1] = OS_ASCII_NUL;
    3a98:	e0bffe17 	ldw	r2,-8(fp)
    3a9c:	100003c5 	stb	zero,15(r2)
#endif
        pevent1++;
    3aa0:	e0bffe17 	ldw	r2,-8(fp)
    3aa4:	10800c04 	addi	r2,r2,48
    3aa8:	e0bffe15 	stw	r2,-8(fp)
        pevent2++;
    3aac:	e0bffd17 	ldw	r2,-12(fp)
    3ab0:	10800c04 	addi	r2,r2,48
    3ab4:	e0bffd15 	stw	r2,-12(fp)
    for (i = 0; i < (OS_MAX_EVENTS - 1); i++) {             /* Init. list of free EVENT control blocks */
    3ab8:	e0bfff8b 	ldhu	r2,-2(fp)
    3abc:	10800044 	addi	r2,r2,1
    3ac0:	e0bfff8d 	sth	r2,-2(fp)
    3ac4:	e0bfff8b 	ldhu	r2,-2(fp)
    3ac8:	10800ef0 	cmpltui	r2,r2,59
    3acc:	103fea1e 	bne	r2,zero,3a78 <OS_InitEventList+0x40>
    }
    pevent1->OSEventType            = OS_EVENT_TYPE_UNUSED;
    3ad0:	e0bffe17 	ldw	r2,-8(fp)
    3ad4:	10000005 	stb	zero,0(r2)
    pevent1->OSEventPtr             = (OS_EVENT *)0;
    3ad8:	e0bffe17 	ldw	r2,-8(fp)
    3adc:	10000115 	stw	zero,4(r2)
#if OS_EVENT_NAME_SIZE > 1
    pevent1->OSEventName[0]         = '?';
    3ae0:	e0bffe17 	ldw	r2,-8(fp)
    3ae4:	00c00fc4 	movi	r3,63
    3ae8:	10c00385 	stb	r3,14(r2)
    pevent1->OSEventName[1]         = OS_ASCII_NUL;
    3aec:	e0bffe17 	ldw	r2,-8(fp)
    3af0:	100003c5 	stb	zero,15(r2)
#endif
    OSEventFreeList                 = &OSEventTbl[0];
    3af4:	00800074 	movhi	r2,1
    3af8:	109e0004 	addi	r2,r2,30720
    3afc:	d0a6de15 	stw	r2,-25736(gp)
    OSEventFreeList->OSEventName[0] = '?';                  /* Unknown name                            */
    OSEventFreeList->OSEventName[1] = OS_ASCII_NUL;
#endif
#endif
#endif
}
    3b00:	0001883a 	nop
    3b04:	e037883a 	mov	sp,fp
    3b08:	dfc00117 	ldw	ra,4(sp)
    3b0c:	df000017 	ldw	fp,0(sp)
    3b10:	dec00204 	addi	sp,sp,8
    3b14:	f800283a 	ret

00003b18 <OS_InitMisc>:
* Returns    : none
*********************************************************************************************************
*/

static  void  OS_InitMisc (void)
{
    3b18:	deffff04 	addi	sp,sp,-4
    3b1c:	df000015 	stw	fp,0(sp)
    3b20:	d839883a 	mov	fp,sp
#if OS_TIME_GET_SET_EN > 0
    OSTime        = 0L;                                    /* Clear the 32-bit system clock            */
    3b24:	d026ee15 	stw	zero,-25672(gp)
#endif

    OSIntNesting  = 0;                                     /* Clear the interrupt nesting counter      */
    3b28:	d026e345 	stb	zero,-25715(gp)
    OSLockNesting = 0;                                     /* Clear the scheduling lock counter        */
    3b2c:	d026e385 	stb	zero,-25714(gp)

    OSTaskCtr     = 0;                                     /* Clear the number of tasks                */
    3b30:	d026e585 	stb	zero,-25706(gp)

    OSRunning     = OS_FALSE;                              /* Indicate that multitasking not started   */
    3b34:	d026e545 	stb	zero,-25707(gp)

    OSCtxSwCtr    = 0;                                     /* Clear the context switch counter         */
    3b38:	d026dd15 	stw	zero,-25740(gp)
    OSIdleCtr     = 0L;                                    /* Clear the 32-bit idle counter            */
    3b3c:	d026e615 	stw	zero,-25704(gp)

#if OS_TASK_STAT_EN > 0
    OSIdleCtrRun  = 0L;
    3b40:	d026e215 	stw	zero,-25720(gp)
    OSIdleCtrMax  = 0L;
    3b44:	d026e115 	stw	zero,-25724(gp)
    OSStatRdy     = OS_FALSE;                              /* Statistic task is not ready              */
    3b48:	d026e305 	stb	zero,-25716(gp)
#endif
}
    3b4c:	0001883a 	nop
    3b50:	e037883a 	mov	sp,fp
    3b54:	df000017 	ldw	fp,0(sp)
    3b58:	dec00104 	addi	sp,sp,4
    3b5c:	f800283a 	ret

00003b60 <OS_InitRdyList>:
* Returns    : none
*********************************************************************************************************
*/

static  void  OS_InitRdyList (void)
{
    3b60:	defffd04 	addi	sp,sp,-12
    3b64:	df000215 	stw	fp,8(sp)
    3b68:	df000204 	addi	fp,sp,8
#else
    INT16U  *prdytbl;
#endif


    OSRdyGrp      = 0;                                     /* Clear the ready list                     */
    3b6c:	d026e445 	stb	zero,-25711(gp)
    prdytbl       = &OSRdyTbl[0];
    3b70:	d0a6e484 	addi	r2,gp,-25710
    3b74:	e0bffe15 	stw	r2,-8(fp)
    for (i = 0; i < OS_RDY_TBL_SIZE; i++) {
    3b78:	e03fffc5 	stb	zero,-1(fp)
    3b7c:	00000706 	br	3b9c <OS_InitRdyList+0x3c>
        *prdytbl++ = 0;
    3b80:	e0bffe17 	ldw	r2,-8(fp)
    3b84:	10c00044 	addi	r3,r2,1
    3b88:	e0fffe15 	stw	r3,-8(fp)
    3b8c:	10000005 	stb	zero,0(r2)
    for (i = 0; i < OS_RDY_TBL_SIZE; i++) {
    3b90:	e0bfffc3 	ldbu	r2,-1(fp)
    3b94:	10800044 	addi	r2,r2,1
    3b98:	e0bfffc5 	stb	r2,-1(fp)
    3b9c:	e0bfffc3 	ldbu	r2,-1(fp)
    3ba0:	108000f0 	cmpltui	r2,r2,3
    3ba4:	103ff61e 	bne	r2,zero,3b80 <OS_InitRdyList+0x20>
    }

    OSPrioCur     = 0;
    3ba8:	d026e3c5 	stb	zero,-25713(gp)
    OSPrioHighRdy = 0;
    3bac:	d026e405 	stb	zero,-25712(gp)

    OSTCBHighRdy  = (OS_TCB *)0;
    3bb0:	d026e915 	stw	zero,-25692(gp)
    OSTCBCur      = (OS_TCB *)0;
    3bb4:	d026e715 	stw	zero,-25700(gp)
}
    3bb8:	0001883a 	nop
    3bbc:	e037883a 	mov	sp,fp
    3bc0:	df000017 	ldw	fp,0(sp)
    3bc4:	dec00104 	addi	sp,sp,4
    3bc8:	f800283a 	ret

00003bcc <OS_InitTaskIdle>:
* Returns    : none
*********************************************************************************************************
*/

static  void  OS_InitTaskIdle (void)
{
    3bcc:	defff804 	addi	sp,sp,-32
    3bd0:	dfc00715 	stw	ra,28(sp)
    3bd4:	df000615 	stw	fp,24(sp)
    3bd8:	df000604 	addi	fp,sp,24
#endif


#if OS_TASK_CREATE_EXT_EN > 0
    #if OS_STK_GROWTH == 1
    (void)OSTaskCreateExt(OS_TaskIdle,
    3bdc:	008000c4 	movi	r2,3
    3be0:	d8800415 	stw	r2,16(sp)
    3be4:	d8000315 	stw	zero,12(sp)
    3be8:	00808004 	movi	r2,512
    3bec:	d8800215 	stw	r2,8(sp)
    3bf0:	008000b4 	movhi	r2,2
    3bf4:	10a3ac04 	addi	r2,r2,-29008
    3bf8:	d8800115 	stw	r2,4(sp)
    3bfc:	00bfffd4 	movui	r2,65535
    3c00:	d8800015 	stw	r2,0(sp)
    3c04:	01c00504 	movi	r7,20
    3c08:	018000b4 	movhi	r6,2
    3c0c:	31a5ab04 	addi	r6,r6,-26964
    3c10:	000b883a 	mov	r5,zero
    3c14:	01000034 	movhi	r4,0
    3c18:	21101f04 	addi	r4,r4,16508
    3c1c:	000886c0 	call	886c <OSTaskCreateExt>
                       OS_TASK_IDLE_PRIO);
    #endif
#endif

#if OS_TASK_NAME_SIZE > 14
    OSTaskNameSet(OS_TASK_IDLE_PRIO, (INT8U *)"uC/OS-II Idle", &err);
    3c20:	e0bfffc4 	addi	r2,fp,-1
    3c24:	100d883a 	mov	r6,r2
    3c28:	01400074 	movhi	r5,1
    3c2c:	29785804 	addi	r5,r5,-7840
    3c30:	01000504 	movi	r4,20
    3c34:	00090800 	call	9080 <OSTaskNameSet>
#else
#if OS_TASK_NAME_SIZE > 7
    OSTaskNameSet(OS_TASK_IDLE_PRIO, (INT8U *)"OS-Idle", &err);
#endif
#endif
}
    3c38:	0001883a 	nop
    3c3c:	e037883a 	mov	sp,fp
    3c40:	dfc00117 	ldw	ra,4(sp)
    3c44:	df000017 	ldw	fp,0(sp)
    3c48:	dec00204 	addi	sp,sp,8
    3c4c:	f800283a 	ret

00003c50 <OS_InitTaskStat>:
*********************************************************************************************************
*/

#if OS_TASK_STAT_EN > 0
static  void  OS_InitTaskStat (void)
{
    3c50:	defff804 	addi	sp,sp,-32
    3c54:	dfc00715 	stw	ra,28(sp)
    3c58:	df000615 	stw	fp,24(sp)
    3c5c:	df000604 	addi	fp,sp,24
#endif


#if OS_TASK_CREATE_EXT_EN > 0
    #if OS_STK_GROWTH == 1
    (void)OSTaskCreateExt(OS_TaskStat,
    3c60:	008000c4 	movi	r2,3
    3c64:	d8800415 	stw	r2,16(sp)
    3c68:	d8000315 	stw	zero,12(sp)
    3c6c:	00808004 	movi	r2,512
    3c70:	d8800215 	stw	r2,8(sp)
    3c74:	008000b4 	movhi	r2,2
    3c78:	10a1ac04 	addi	r2,r2,-31056
    3c7c:	d8800115 	stw	r2,4(sp)
    3c80:	00bfff94 	movui	r2,65534
    3c84:	d8800015 	stw	r2,0(sp)
    3c88:	01c004c4 	movi	r7,19
    3c8c:	018000b4 	movhi	r6,2
    3c90:	31a3ab04 	addi	r6,r6,-29012
    3c94:	000b883a 	mov	r5,zero
    3c98:	01000034 	movhi	r4,0
    3c9c:	21103704 	addi	r4,r4,16604
    3ca0:	000886c0 	call	886c <OSTaskCreateExt>
                       OS_TASK_STAT_PRIO);                             /* One higher than the idle task  */
    #endif
#endif

#if OS_TASK_NAME_SIZE > 14
    OSTaskNameSet(OS_TASK_STAT_PRIO, (INT8U *)"uC/OS-II Stat", &err);
    3ca4:	e0bfffc4 	addi	r2,fp,-1
    3ca8:	100d883a 	mov	r6,r2
    3cac:	01400074 	movhi	r5,1
    3cb0:	29785c04 	addi	r5,r5,-7824
    3cb4:	010004c4 	movi	r4,19
    3cb8:	00090800 	call	9080 <OSTaskNameSet>
#else
#if OS_TASK_NAME_SIZE > 7
    OSTaskNameSet(OS_TASK_STAT_PRIO, (INT8U *)"OS-Stat", &err);
#endif
#endif
}
    3cbc:	0001883a 	nop
    3cc0:	e037883a 	mov	sp,fp
    3cc4:	dfc00117 	ldw	ra,4(sp)
    3cc8:	df000017 	ldw	fp,0(sp)
    3ccc:	dec00204 	addi	sp,sp,8
    3cd0:	f800283a 	ret

00003cd4 <OS_InitTCBList>:
* Returns    : none
*********************************************************************************************************
*/

static  void  OS_InitTCBList (void)
{
    3cd4:	defffb04 	addi	sp,sp,-20
    3cd8:	dfc00415 	stw	ra,16(sp)
    3cdc:	df000315 	stw	fp,12(sp)
    3ce0:	df000304 	addi	fp,sp,12
    INT8U    i;
    OS_TCB  *ptcb1;
    OS_TCB  *ptcb2;


    OS_MemClr((INT8U *)&OSTCBTbl[0],     sizeof(OSTCBTbl));      /* Clear all the TCBs                 */
    3ce4:	01414404 	movi	r5,1296
    3ce8:	010000b4 	movhi	r4,2
    3cec:	2125c104 	addi	r4,r4,-26876
    3cf0:	0003db80 	call	3db8 <OS_MemClr>
    OS_MemClr((INT8U *)&OSTCBPrioTbl[0], sizeof(OSTCBPrioTbl));  /* Clear the priority table           */
    3cf4:	01401504 	movi	r5,84
    3cf8:	010000b4 	movhi	r4,2
    3cfc:	2125ac04 	addi	r4,r4,-26960
    3d00:	0003db80 	call	3db8 <OS_MemClr>
    ptcb1 = &OSTCBTbl[0];
    3d04:	008000b4 	movhi	r2,2
    3d08:	10a5c104 	addi	r2,r2,-26876
    3d0c:	e0bffe15 	stw	r2,-8(fp)
    ptcb2 = &OSTCBTbl[1];
    3d10:	008000b4 	movhi	r2,2
    3d14:	10a5dc04 	addi	r2,r2,-26768
    3d18:	e0bffd15 	stw	r2,-12(fp)
    for (i = 0; i < (OS_MAX_TASKS + OS_N_SYS_TASKS - 1); i++) {  /* Init. list of free TCBs            */
    3d1c:	e03fffc5 	stb	zero,-1(fp)
    3d20:	00001106 	br	3d68 <OS_InitTCBList+0x94>
        ptcb1->OSTCBNext = ptcb2;
    3d24:	e0bffe17 	ldw	r2,-8(fp)
    3d28:	e0fffd17 	ldw	r3,-12(fp)
    3d2c:	10c00515 	stw	r3,20(r2)
#if OS_TASK_NAME_SIZE > 1
        ptcb1->OSTCBTaskName[0] = '?';                           /* Unknown name                       */
    3d30:	e0bffe17 	ldw	r2,-8(fp)
    3d34:	00c00fc4 	movi	r3,63
    3d38:	10c01305 	stb	r3,76(r2)
        ptcb1->OSTCBTaskName[1] = OS_ASCII_NUL;
    3d3c:	e0bffe17 	ldw	r2,-8(fp)
    3d40:	10001345 	stb	zero,77(r2)
#endif
        ptcb1++;
    3d44:	e0bffe17 	ldw	r2,-8(fp)
    3d48:	10801b04 	addi	r2,r2,108
    3d4c:	e0bffe15 	stw	r2,-8(fp)
        ptcb2++;
    3d50:	e0bffd17 	ldw	r2,-12(fp)
    3d54:	10801b04 	addi	r2,r2,108
    3d58:	e0bffd15 	stw	r2,-12(fp)
    for (i = 0; i < (OS_MAX_TASKS + OS_N_SYS_TASKS - 1); i++) {  /* Init. list of free TCBs            */
    3d5c:	e0bfffc3 	ldbu	r2,-1(fp)
    3d60:	10800044 	addi	r2,r2,1
    3d64:	e0bfffc5 	stb	r2,-1(fp)
    3d68:	e0bfffc3 	ldbu	r2,-1(fp)
    3d6c:	108002f0 	cmpltui	r2,r2,11
    3d70:	103fec1e 	bne	r2,zero,3d24 <OS_InitTCBList+0x50>
    }
    ptcb1->OSTCBNext = (OS_TCB *)0;                              /* Last OS_TCB                        */
    3d74:	e0bffe17 	ldw	r2,-8(fp)
    3d78:	10000515 	stw	zero,20(r2)
#if OS_TASK_NAME_SIZE > 1
    ptcb1->OSTCBTaskName[0] = '?';                               /* Unknown name                       */
    3d7c:	e0bffe17 	ldw	r2,-8(fp)
    3d80:	00c00fc4 	movi	r3,63
    3d84:	10c01305 	stb	r3,76(r2)
    ptcb1->OSTCBTaskName[1] = OS_ASCII_NUL;
    3d88:	e0bffe17 	ldw	r2,-8(fp)
    3d8c:	10001345 	stb	zero,77(r2)
#endif
    OSTCBList               = (OS_TCB *)0;                       /* TCB lists initializations          */
    3d90:	d026ea15 	stw	zero,-25688(gp)
    OSTCBFreeList           = &OSTCBTbl[0];
    3d94:	008000b4 	movhi	r2,2
    3d98:	10a5c104 	addi	r2,r2,-26876
    3d9c:	d0a6e815 	stw	r2,-25696(gp)
}
    3da0:	0001883a 	nop
    3da4:	e037883a 	mov	sp,fp
    3da8:	dfc00117 	ldw	ra,4(sp)
    3dac:	df000017 	ldw	fp,0(sp)
    3db0:	dec00204 	addi	sp,sp,8
    3db4:	f800283a 	ret

00003db8 <OS_MemClr>:
*                 of the alignment of the destination.
*********************************************************************************************************
*/

void  OS_MemClr (INT8U *pdest, INT16U size)
{
    3db8:	defffd04 	addi	sp,sp,-12
    3dbc:	df000215 	stw	fp,8(sp)
    3dc0:	df000204 	addi	fp,sp,8
    3dc4:	e13fff15 	stw	r4,-4(fp)
    3dc8:	2805883a 	mov	r2,r5
    3dcc:	e0bffe0d 	sth	r2,-8(fp)
    while (size > 0) {
    3dd0:	00000706 	br	3df0 <OS_MemClr+0x38>
        *pdest++ = (INT8U)0;
    3dd4:	e0bfff17 	ldw	r2,-4(fp)
    3dd8:	10c00044 	addi	r3,r2,1
    3ddc:	e0ffff15 	stw	r3,-4(fp)
    3de0:	10000005 	stb	zero,0(r2)
        size--;
    3de4:	e0bffe0b 	ldhu	r2,-8(fp)
    3de8:	10bfffc4 	addi	r2,r2,-1
    3dec:	e0bffe0d 	sth	r2,-8(fp)
    while (size > 0) {
    3df0:	e0bffe0b 	ldhu	r2,-8(fp)
    3df4:	103ff71e 	bne	r2,zero,3dd4 <OS_MemClr+0x1c>
    }
}
    3df8:	0001883a 	nop
    3dfc:	0001883a 	nop
    3e00:	e037883a 	mov	sp,fp
    3e04:	df000017 	ldw	fp,0(sp)
    3e08:	dec00104 	addi	sp,sp,4
    3e0c:	f800283a 	ret

00003e10 <OS_MemCopy>:
*                 of the alignment of the source and destination.
*********************************************************************************************************
*/

void  OS_MemCopy (INT8U *pdest, INT8U *psrc, INT16U size)
{
    3e10:	defffc04 	addi	sp,sp,-16
    3e14:	df000315 	stw	fp,12(sp)
    3e18:	df000304 	addi	fp,sp,12
    3e1c:	e13fff15 	stw	r4,-4(fp)
    3e20:	e17ffe15 	stw	r5,-8(fp)
    3e24:	3005883a 	mov	r2,r6
    3e28:	e0bffd0d 	sth	r2,-12(fp)
    while (size > 0) {
    3e2c:	00000b06 	br	3e5c <OS_MemCopy+0x4c>
        *pdest++ = *psrc++;
    3e30:	e0fffe17 	ldw	r3,-8(fp)
    3e34:	18800044 	addi	r2,r3,1
    3e38:	e0bffe15 	stw	r2,-8(fp)
    3e3c:	e0bfff17 	ldw	r2,-4(fp)
    3e40:	11000044 	addi	r4,r2,1
    3e44:	e13fff15 	stw	r4,-4(fp)
    3e48:	18c00003 	ldbu	r3,0(r3)
    3e4c:	10c00005 	stb	r3,0(r2)
        size--;
    3e50:	e0bffd0b 	ldhu	r2,-12(fp)
    3e54:	10bfffc4 	addi	r2,r2,-1
    3e58:	e0bffd0d 	sth	r2,-12(fp)
    while (size > 0) {
    3e5c:	e0bffd0b 	ldhu	r2,-12(fp)
    3e60:	103ff31e 	bne	r2,zero,3e30 <OS_MemCopy+0x20>
    }
}
    3e64:	0001883a 	nop
    3e68:	0001883a 	nop
    3e6c:	e037883a 	mov	sp,fp
    3e70:	df000017 	ldw	fp,0(sp)
    3e74:	dec00104 	addi	sp,sp,4
    3e78:	f800283a 	ret

00003e7c <OS_Sched>:
*              2) Rescheduling is prevented when the scheduler is locked (see OS_SchedLock())
*********************************************************************************************************
*/

void  OS_Sched (void)
{
    3e7c:	defffb04 	addi	sp,sp,-20
    3e80:	dfc00415 	stw	ra,16(sp)
    3e84:	df000315 	stw	fp,12(sp)
    3e88:	df000304 	addi	fp,sp,12
#if OS_CRITICAL_METHOD == 3                            /* Allocate storage for CPU status register     */
    OS_CPU_SR  cpu_sr = 0;
    3e8c:	e03fff15 	stw	zero,-4(fp)
  NIOS2_READ_STATUS (context);
    3e90:	0005303a 	rdctl	r2,status
    3e94:	e0bffe15 	stw	r2,-8(fp)
  NIOS2_WRITE_STATUS (context & ~NIOS2_STATUS_PIE_MSK);
    3e98:	e0fffe17 	ldw	r3,-8(fp)
    3e9c:	00bfff84 	movi	r2,-2
    3ea0:	1884703a 	and	r2,r3,r2
    3ea4:	1001703a 	wrctl	status,r2
  return context;
    3ea8:	e0bffe17 	ldw	r2,-8(fp)
#endif



    OS_ENTER_CRITICAL();
    3eac:	e0bfff15 	stw	r2,-4(fp)
    if (OSIntNesting == 0) {                           /* Schedule only if all ISRs done and ...       */
    3eb0:	d0a6e343 	ldbu	r2,-25715(gp)
    3eb4:	10803fcc 	andi	r2,r2,255
    3eb8:	1000181e 	bne	r2,zero,3f1c <OS_Sched+0xa0>
        if (OSLockNesting == 0) {                      /* ... scheduler is not locked                  */
    3ebc:	d0a6e383 	ldbu	r2,-25714(gp)
    3ec0:	10803fcc 	andi	r2,r2,255
    3ec4:	1000151e 	bne	r2,zero,3f1c <OS_Sched+0xa0>
            OS_SchedNew();
    3ec8:	0003f480 	call	3f48 <OS_SchedNew>
            if (OSPrioHighRdy != OSPrioCur) {          /* No Ctx Sw if current task is highest rdy     */
    3ecc:	d0e6e403 	ldbu	r3,-25712(gp)
    3ed0:	d0a6e3c3 	ldbu	r2,-25713(gp)
    3ed4:	18c03fcc 	andi	r3,r3,255
    3ed8:	10803fcc 	andi	r2,r2,255
    3edc:	18800f26 	beq	r3,r2,3f1c <OS_Sched+0xa0>
                OSTCBHighRdy = OSTCBPrioTbl[OSPrioHighRdy];
    3ee0:	d0a6e403 	ldbu	r2,-25712(gp)
    3ee4:	10803fcc 	andi	r2,r2,255
    3ee8:	100690ba 	slli	r3,r2,2
    3eec:	008000b4 	movhi	r2,2
    3ef0:	1885883a 	add	r2,r3,r2
    3ef4:	10a5ac17 	ldw	r2,-26960(r2)
    3ef8:	d0a6e915 	stw	r2,-25692(gp)
#if OS_TASK_PROFILE_EN > 0
                OSTCBHighRdy->OSTCBCtxSwCtr++;         /* Inc. # of context switches to this task      */
    3efc:	d0a6e917 	ldw	r2,-25692(gp)
    3f00:	10c00e17 	ldw	r3,56(r2)
    3f04:	18c00044 	addi	r3,r3,1
    3f08:	10c00e15 	stw	r3,56(r2)
#endif
                OSCtxSwCtr++;                          /* Increment context switch counter             */
    3f0c:	d0a6dd17 	ldw	r2,-25740(gp)
    3f10:	10800044 	addi	r2,r2,1
    3f14:	d0a6dd15 	stw	r2,-25740(gp)
                OS_TASK_SW();                          /* Perform a context switch                     */
    3f18:	000d3d00 	call	d3d0 <OSCtxSw>
    3f1c:	e0bfff17 	ldw	r2,-4(fp)
    3f20:	e0bffd15 	stw	r2,-12(fp)
  NIOS2_WRITE_STATUS (context);
    3f24:	e0bffd17 	ldw	r2,-12(fp)
    3f28:	1001703a 	wrctl	status,r2
}
    3f2c:	0001883a 	nop
            }
        }
    }
    OS_EXIT_CRITICAL();
}
    3f30:	0001883a 	nop
    3f34:	e037883a 	mov	sp,fp
    3f38:	dfc00117 	ldw	ra,4(sp)
    3f3c:	df000017 	ldw	fp,0(sp)
    3f40:	dec00204 	addi	sp,sp,8
    3f44:	f800283a 	ret

00003f48 <OS_SchedNew>:
*              2) Interrupts are assumed to be disabled when this function is called.
*********************************************************************************************************
*/

static  void  OS_SchedNew (void)
{
    3f48:	defffe04 	addi	sp,sp,-8
    3f4c:	df000115 	stw	fp,4(sp)
    3f50:	df000104 	addi	fp,sp,4
#if OS_LOWEST_PRIO <= 63                         /* See if we support up to 64 tasks                   */
    INT8U   y;


    y             = OSUnMapTbl[OSRdyGrp];
    3f54:	d0a6e443 	ldbu	r2,-25711(gp)
    3f58:	10c03fcc 	andi	r3,r2,255
    3f5c:	00800074 	movhi	r2,1
    3f60:	1885883a 	add	r2,r3,r2
    3f64:	10b81803 	ldbu	r2,-8096(r2)
    3f68:	e0bfffc5 	stb	r2,-1(fp)
    OSPrioHighRdy = (INT8U)((y << 3) + OSUnMapTbl[OSRdyTbl[y]]);
    3f6c:	e0bfffc3 	ldbu	r2,-1(fp)
    3f70:	100490fa 	slli	r2,r2,3
    3f74:	1009883a 	mov	r4,r2
    3f78:	e0ffffc3 	ldbu	r3,-1(fp)
    3f7c:	d0a6e484 	addi	r2,gp,-25710
    3f80:	1885883a 	add	r2,r3,r2
    3f84:	10800003 	ldbu	r2,0(r2)
    3f88:	10c03fcc 	andi	r3,r2,255
    3f8c:	00800074 	movhi	r2,1
    3f90:	1885883a 	add	r2,r3,r2
    3f94:	10b81803 	ldbu	r2,-8096(r2)
    3f98:	2085883a 	add	r2,r4,r2
    3f9c:	d0a6e405 	stb	r2,-25712(gp)
        OSPrioHighRdy = (INT8U)((y << 4) + OSUnMapTbl[(*ptbl & 0xFF)]);
    } else {
        OSPrioHighRdy = (INT8U)((y << 4) + OSUnMapTbl[(*ptbl >> 8) & 0xFF] + 8);
    }
#endif
}
    3fa0:	0001883a 	nop
    3fa4:	e037883a 	mov	sp,fp
    3fa8:	df000017 	ldw	fp,0(sp)
    3fac:	dec00104 	addi	sp,sp,4
    3fb0:	f800283a 	ret

00003fb4 <OS_StrCopy>:
*********************************************************************************************************
*/

#if (OS_EVENT_NAME_SIZE > 1) || (OS_FLAG_NAME_SIZE > 1) || (OS_MEM_NAME_SIZE > 1) || (OS_TASK_NAME_SIZE > 1) || (OS_TMR_CFG_NAME_SIZE > 1)
INT8U  OS_StrCopy (INT8U *pdest, INT8U *psrc)
{
    3fb4:	defffc04 	addi	sp,sp,-16
    3fb8:	df000315 	stw	fp,12(sp)
    3fbc:	df000304 	addi	fp,sp,12
    3fc0:	e13ffe15 	stw	r4,-8(fp)
    3fc4:	e17ffd15 	stw	r5,-12(fp)
    INT8U  len;


    len = 0;
    3fc8:	e03fffc5 	stb	zero,-1(fp)
    while (*psrc != OS_ASCII_NUL) {
    3fcc:	00000b06 	br	3ffc <OS_StrCopy+0x48>
        *pdest++ = *psrc++;
    3fd0:	e0fffd17 	ldw	r3,-12(fp)
    3fd4:	18800044 	addi	r2,r3,1
    3fd8:	e0bffd15 	stw	r2,-12(fp)
    3fdc:	e0bffe17 	ldw	r2,-8(fp)
    3fe0:	11000044 	addi	r4,r2,1
    3fe4:	e13ffe15 	stw	r4,-8(fp)
    3fe8:	18c00003 	ldbu	r3,0(r3)
    3fec:	10c00005 	stb	r3,0(r2)
        len++;
    3ff0:	e0bfffc3 	ldbu	r2,-1(fp)
    3ff4:	10800044 	addi	r2,r2,1
    3ff8:	e0bfffc5 	stb	r2,-1(fp)
    while (*psrc != OS_ASCII_NUL) {
    3ffc:	e0bffd17 	ldw	r2,-12(fp)
    4000:	10800003 	ldbu	r2,0(r2)
    4004:	10803fcc 	andi	r2,r2,255
    4008:	103ff11e 	bne	r2,zero,3fd0 <OS_StrCopy+0x1c>
    }
    *pdest = OS_ASCII_NUL;
    400c:	e0bffe17 	ldw	r2,-8(fp)
    4010:	10000005 	stb	zero,0(r2)
    return (len);
    4014:	e0bfffc3 	ldbu	r2,-1(fp)
}
    4018:	e037883a 	mov	sp,fp
    401c:	df000017 	ldw	fp,0(sp)
    4020:	dec00104 	addi	sp,sp,4
    4024:	f800283a 	ret

00004028 <OS_StrLen>:
*********************************************************************************************************
*/

#if (OS_EVENT_NAME_SIZE > 1) || (OS_FLAG_NAME_SIZE > 1) || (OS_MEM_NAME_SIZE > 1) || (OS_TASK_NAME_SIZE > 1) || (OS_TMR_CFG_NAME_SIZE > 1)
INT8U  OS_StrLen (INT8U *psrc)
{
    4028:	defffd04 	addi	sp,sp,-12
    402c:	df000215 	stw	fp,8(sp)
    4030:	df000204 	addi	fp,sp,8
    4034:	e13ffe15 	stw	r4,-8(fp)
    INT8U  len;


    len = 0;
    4038:	e03fffc5 	stb	zero,-1(fp)
    while (*psrc != OS_ASCII_NUL) {
    403c:	00000606 	br	4058 <OS_StrLen+0x30>
        psrc++;
    4040:	e0bffe17 	ldw	r2,-8(fp)
    4044:	10800044 	addi	r2,r2,1
    4048:	e0bffe15 	stw	r2,-8(fp)
        len++;
    404c:	e0bfffc3 	ldbu	r2,-1(fp)
    4050:	10800044 	addi	r2,r2,1
    4054:	e0bfffc5 	stb	r2,-1(fp)
    while (*psrc != OS_ASCII_NUL) {
    4058:	e0bffe17 	ldw	r2,-8(fp)
    405c:	10800003 	ldbu	r2,0(r2)
    4060:	10803fcc 	andi	r2,r2,255
    4064:	103ff61e 	bne	r2,zero,4040 <OS_StrLen+0x18>
    }
    return (len);
    4068:	e0bfffc3 	ldbu	r2,-1(fp)
}
    406c:	e037883a 	mov	sp,fp
    4070:	df000017 	ldw	fp,0(sp)
    4074:	dec00104 	addi	sp,sp,4
    4078:	f800283a 	ret

0000407c <OS_TaskIdle>:
*                 power.
*********************************************************************************************************
*/

void  OS_TaskIdle (void *p_arg)
{
    407c:	defffa04 	addi	sp,sp,-24
    4080:	dfc00515 	stw	ra,20(sp)
    4084:	df000415 	stw	fp,16(sp)
    4088:	df000404 	addi	fp,sp,16
    408c:	e13ffc15 	stw	r4,-16(fp)
#if OS_CRITICAL_METHOD == 3                      /* Allocate storage for CPU status register           */
    OS_CPU_SR  cpu_sr = 0;
    4090:	e03fff15 	stw	zero,-4(fp)
  NIOS2_READ_STATUS (context);
    4094:	0005303a 	rdctl	r2,status
    4098:	e0bffd15 	stw	r2,-12(fp)
  NIOS2_WRITE_STATUS (context & ~NIOS2_STATUS_PIE_MSK);
    409c:	e0fffd17 	ldw	r3,-12(fp)
    40a0:	00bfff84 	movi	r2,-2
    40a4:	1884703a 	and	r2,r3,r2
    40a8:	1001703a 	wrctl	status,r2
  return context;
    40ac:	e0bffd17 	ldw	r2,-12(fp)



    (void)p_arg;                                 /* Prevent compiler warning for not using 'p_arg'     */
    for (;;) {
        OS_ENTER_CRITICAL();
    40b0:	e0bfff15 	stw	r2,-4(fp)
        OSIdleCtr++;
    40b4:	d0a6e617 	ldw	r2,-25704(gp)
    40b8:	10800044 	addi	r2,r2,1
    40bc:	d0a6e615 	stw	r2,-25704(gp)
    40c0:	e0bfff17 	ldw	r2,-4(fp)
    40c4:	e0bffe15 	stw	r2,-8(fp)
  NIOS2_WRITE_STATUS (context);
    40c8:	e0bffe17 	ldw	r2,-8(fp)
    40cc:	1001703a 	wrctl	status,r2
}
    40d0:	0001883a 	nop
        OS_EXIT_CRITICAL();
        OSTaskIdleHook();                        /* Call user definable HOOK                           */
    40d4:	000d6d40 	call	d6d4 <OSTaskIdleHook>
        OS_ENTER_CRITICAL();
    40d8:	003fee06 	br	4094 <OS_TaskIdle+0x18>

000040dc <OS_TaskStat>:
*********************************************************************************************************
*/

#if OS_TASK_STAT_EN > 0
void  OS_TaskStat (void *p_arg)
{
    40dc:	defffa04 	addi	sp,sp,-24
    40e0:	dfc00515 	stw	ra,20(sp)
    40e4:	df000415 	stw	fp,16(sp)
    40e8:	df000404 	addi	fp,sp,16
    40ec:	e13ffc15 	stw	r4,-16(fp)
#if OS_CRITICAL_METHOD == 3                      /* Allocate storage for CPU status register           */
    OS_CPU_SR  cpu_sr = 0;
    40f0:	e03fff15 	stw	zero,-4(fp)
#endif



    (void)p_arg;                                 /* Prevent compiler warning for not using 'p_arg'     */
    while (OSStatRdy == OS_FALSE) {
    40f4:	00000206 	br	4100 <OS_TaskStat+0x24>
        OSTimeDly(2 * OS_TICKS_PER_SEC / 10);    /* Wait until statistic task is ready                 */
    40f8:	01000044 	movi	r4,1
    40fc:	00099540 	call	9954 <OSTimeDly>
    while (OSStatRdy == OS_FALSE) {
    4100:	d0a6e303 	ldbu	r2,-25716(gp)
    4104:	10803fcc 	andi	r2,r2,255
    4108:	103ffb26 	beq	r2,zero,40f8 <OS_TaskStat+0x1c>
    }
    OSIdleCtrMax /= 100L;
    410c:	d0e6e117 	ldw	r3,-25724(gp)
    4110:	00801904 	movi	r2,100
    4114:	1885203a 	divu	r2,r3,r2
    4118:	d0a6e115 	stw	r2,-25724(gp)
    if (OSIdleCtrMax == 0L) {
    411c:	d0a6e117 	ldw	r2,-25724(gp)
    4120:	1000031e 	bne	r2,zero,4130 <OS_TaskStat+0x54>
        OSCPUUsage = 0;
    4124:	d026e005 	stb	zero,-25728(gp)
        (void)OSTaskSuspend(OS_PRIO_SELF);
    4128:	01003fc4 	movi	r4,255
    412c:	00095d40 	call	95d4 <OSTaskSuspend>
  NIOS2_READ_STATUS (context);
    4130:	0005303a 	rdctl	r2,status
    4134:	e0bffd15 	stw	r2,-12(fp)
  NIOS2_WRITE_STATUS (context & ~NIOS2_STATUS_PIE_MSK);
    4138:	e0fffd17 	ldw	r3,-12(fp)
    413c:	00bfff84 	movi	r2,-2
    4140:	1884703a 	and	r2,r3,r2
    4144:	1001703a 	wrctl	status,r2
  return context;
    4148:	e0bffd17 	ldw	r2,-12(fp)
    }
    for (;;) {
        OS_ENTER_CRITICAL();
    414c:	e0bfff15 	stw	r2,-4(fp)
        OSIdleCtrRun = OSIdleCtr;                /* Obtain the of the idle counter for the past second */
    4150:	d0a6e617 	ldw	r2,-25704(gp)
    4154:	d0a6e215 	stw	r2,-25720(gp)
        OSIdleCtr    = 0L;                       /* Reset the idle counter for the next second         */
    4158:	d026e615 	stw	zero,-25704(gp)
    415c:	e0bfff17 	ldw	r2,-4(fp)
    4160:	e0bffe15 	stw	r2,-8(fp)
  NIOS2_WRITE_STATUS (context);
    4164:	e0bffe17 	ldw	r2,-8(fp)
    4168:	1001703a 	wrctl	status,r2
}
    416c:	0001883a 	nop
        OS_EXIT_CRITICAL();
        OSCPUUsage   = (INT8U)(100L - OSIdleCtrRun / OSIdleCtrMax);
    4170:	d0e6e217 	ldw	r3,-25720(gp)
    4174:	d0a6e117 	ldw	r2,-25724(gp)
    4178:	1885203a 	divu	r2,r3,r2
    417c:	1007883a 	mov	r3,r2
    4180:	00801904 	movi	r2,100
    4184:	10c5c83a 	sub	r2,r2,r3
    4188:	d0a6e005 	stb	r2,-25728(gp)
        OSTaskStatHook();                        /* Invoke user definable hook                         */
    418c:	000d6540 	call	d654 <OSTaskStatHook>
#if (OS_TASK_STAT_STK_CHK_EN > 0) && (OS_TASK_CREATE_EXT_EN > 0)
        OS_TaskStatStkChk();                     /* Check the stacks for each task                     */
    4190:	00041a00 	call	41a0 <OS_TaskStatStkChk>
#endif
        OSTimeDly(OS_TICKS_PER_SEC / 10);        /* Accumulate OSIdleCtr for the next 1/10 second      */
    4194:	0009883a 	mov	r4,zero
    4198:	00099540 	call	9954 <OSTimeDly>
        OS_ENTER_CRITICAL();
    419c:	003fe406 	br	4130 <OS_TaskStat+0x54>

000041a0 <OS_TaskStatStkChk>:
*********************************************************************************************************
*/

#if (OS_TASK_STAT_STK_CHK_EN > 0) && (OS_TASK_CREATE_EXT_EN > 0)
void  OS_TaskStatStkChk (void)
{
    41a0:	defffa04 	addi	sp,sp,-24
    41a4:	dfc00515 	stw	ra,20(sp)
    41a8:	df000415 	stw	fp,16(sp)
    41ac:	df000404 	addi	fp,sp,16
    OS_STK_DATA  stk_data;
    INT8U        err;
    INT8U        prio;


    for (prio = 0; prio <= OS_TASK_IDLE_PRIO; prio++) {
    41b0:	e03fffc5 	stb	zero,-1(fp)
    41b4:	00002106 	br	423c <OS_TaskStatStkChk+0x9c>
        err = OSTaskStkChk(prio, &stk_data);
    41b8:	e0bfffc3 	ldbu	r2,-1(fp)
    41bc:	e0fffc04 	addi	r3,fp,-16
    41c0:	180b883a 	mov	r5,r3
    41c4:	1009883a 	mov	r4,r2
    41c8:	000941c0 	call	941c <OSTaskStkChk>
    41cc:	e0bfff85 	stb	r2,-2(fp)
        if (err == OS_ERR_NONE) {
    41d0:	e0bfff83 	ldbu	r2,-2(fp)
    41d4:	1000161e 	bne	r2,zero,4230 <OS_TaskStatStkChk+0x90>
            ptcb = OSTCBPrioTbl[prio];
    41d8:	e0bfffc3 	ldbu	r2,-1(fp)
    41dc:	100690ba 	slli	r3,r2,2
    41e0:	008000b4 	movhi	r2,2
    41e4:	1885883a 	add	r2,r3,r2
    41e8:	10a5ac17 	ldw	r2,-26960(r2)
    41ec:	e0bffe15 	stw	r2,-8(fp)
            if (ptcb != (OS_TCB *)0) {                               /* Make sure task 'ptcb' is ...   */
    41f0:	e0bffe17 	ldw	r2,-8(fp)
    41f4:	10000e26 	beq	r2,zero,4230 <OS_TaskStatStkChk+0x90>
                if (ptcb != OS_TCB_RESERVED) {                       /* ... still valid.               */
    41f8:	e0bffe17 	ldw	r2,-8(fp)
    41fc:	10800060 	cmpeqi	r2,r2,1
