Archive member included to satisfy reference by file (symbol)

/opt/intelFPGA/20.1.1/nios2eds/bin/gnu/H-x86_64-pc-linux-gnu/bin/../lib/gcc/nios2-elf/10.1.1/../../../../../H-x86_64-pc-linux-gnu/nios2-elf/lib/mhw-mulx/libc.a(lib_a-puts.o)
                              obj/default/hello_ucosii.o (puts)
/opt/intelFPGA/20.1.1/nios2eds/bin/gnu/H-x86_64-pc-linux-gnu/bin/../lib/gcc/nios2-elf/10.1.1/../../../../../H-x86_64-pc-linux-gnu/nios2-elf/lib/mhw-mulx/libc.a(lib_a-strlen.o)
                              /opt/intelFPGA/20.1.1/nios2eds/bin/gnu/H-x86_64-pc-linux-gnu/bin/../lib/gcc/nios2-elf/10.1.1/../../../../../H-x86_64-pc-linux-gnu/nios2-elf/lib/mhw-mulx/libc.a(lib_a-puts.o) (strlen)
/opt/intelFPGA/20.1.1/nios2eds/bin/gnu/H-x86_64-pc-linux-gnu/bin/../lib/gcc/nios2-elf/10.1.1/../../../../../H-x86_64-pc-linux-gnu/nios2-elf/lib/mhw-mulx/libc.a(lib_a-findfp.o)
                              /opt/intelFPGA/20.1.1/nios2eds/bin/gnu/H-x86_64-pc-linux-gnu/bin/../lib/gcc/nios2-elf/10.1.1/../../../../../H-x86_64-pc-linux-gnu/nios2-elf/lib/mhw-mulx/libc.a(lib_a-puts.o) (__sinit)
/opt/intelFPGA/20.1.1/nios2eds/bin/gnu/H-x86_64-pc-linux-gnu/bin/../lib/gcc/nios2-elf/10.1.1/../../../../../H-x86_64-pc-linux-gnu/nios2-elf/lib/mhw-mulx/libc.a(lib_a-fvwrite.o)
                              /opt/intelFPGA/20.1.1/nios2eds/bin/gnu/H-x86_64-pc-linux-gnu/bin/../lib/gcc/nios2-elf/10.1.1/../../../../../H-x86_64-pc-linux-gnu/nios2-elf/lib/mhw-mulx/libc.a(lib_a-puts.o) (__sfvwrite_r)
/opt/intelFPGA/20.1.1/nios2eds/bin/gnu/H-x86_64-pc-linux-gnu/bin/../lib/gcc/nios2-elf/10.1.1/../../../../../H-x86_64-pc-linux-gnu/nios2-elf/lib/mhw-mulx/libc.a(lib_a-fwalk.o)
                              /opt/intelFPGA/20.1.1/nios2eds/bin/gnu/H-x86_64-pc-linux-gnu/bin/../lib/gcc/nios2-elf/10.1.1/../../../../../H-x86_64-pc-linux-gnu/nios2-elf/lib/mhw-mulx/libc.a(lib_a-findfp.o) (_fwalk)
/opt/intelFPGA/20.1.1/nios2eds/bin/gnu/H-x86_64-pc-linux-gnu/bin/../lib/gcc/nios2-elf/10.1.1/../../../../../H-x86_64-pc-linux-gnu/nios2-elf/lib/mhw-mulx/libc.a(lib_a-impure.o)
                              /opt/intelFPGA/20.1.1/nios2eds/bin/gnu/H-x86_64-pc-linux-gnu/bin/../lib/gcc/nios2-elf/10.1.1/../../../../../H-x86_64-pc-linux-gnu/nios2-elf/lib/mhw-mulx/libc.a(lib_a-findfp.o) (_global_impure_ptr)
/opt/intelFPGA/20.1.1/nios2eds/bin/gnu/H-x86_64-pc-linux-gnu/bin/../lib/gcc/nios2-elf/10.1.1/../../../../../H-x86_64-pc-linux-gnu/nios2-elf/lib/mhw-mulx/libc.a(lib_a-mallocr.o)
                              /opt/intelFPGA/20.1.1/nios2eds/bin/gnu/H-x86_64-pc-linux-gnu/bin/../lib/gcc/nios2-elf/10.1.1/../../../../../H-x86_64-pc-linux-gnu/nios2-elf/lib/mhw-mulx/libc.a(lib_a-findfp.o) (_malloc_r)
/opt/intelFPGA/20.1.1/nios2eds/bin/gnu/H-x86_64-pc-linux-gnu/bin/../lib/gcc/nios2-elf/10.1.1/../../../../../H-x86_64-pc-linux-gnu/nios2-elf/lib/mhw-mulx/libc.a(lib_a-memchr.o)
                              /opt/intelFPGA/20.1.1/nios2eds/bin/gnu/H-x86_64-pc-linux-gnu/bin/../lib/gcc/nios2-elf/10.1.1/../../../../../H-x86_64-pc-linux-gnu/nios2-elf/lib/mhw-mulx/libc.a(lib_a-fvwrite.o) (memchr)
/opt/intelFPGA/20.1.1/nios2eds/bin/gnu/H-x86_64-pc-linux-gnu/bin/../lib/gcc/nios2-elf/10.1.1/../../../../../H-x86_64-pc-linux-gnu/nios2-elf/lib/mhw-mulx/libc.a(lib_a-memcpy.o)
                              /opt/intelFPGA/20.1.1/nios2eds/bin/gnu/H-x86_64-pc-linux-gnu/bin/../lib/gcc/nios2-elf/10.1.1/../../../../../H-x86_64-pc-linux-gnu/nios2-elf/lib/mhw-mulx/libc.a(lib_a-fvwrite.o) (memcpy)
/opt/intelFPGA/20.1.1/nios2eds/bin/gnu/H-x86_64-pc-linux-gnu/bin/../lib/gcc/nios2-elf/10.1.1/../../../../../H-x86_64-pc-linux-gnu/nios2-elf/lib/mhw-mulx/libc.a(lib_a-memmove.o)
                              /opt/intelFPGA/20.1.1/nios2eds/bin/gnu/H-x86_64-pc-linux-gnu/bin/../lib/gcc/nios2-elf/10.1.1/../../../../../H-x86_64-pc-linux-gnu/nios2-elf/lib/mhw-mulx/libc.a(lib_a-fvwrite.o) (memmove)
/opt/intelFPGA/20.1.1/nios2eds/bin/gnu/H-x86_64-pc-linux-gnu/bin/../lib/gcc/nios2-elf/10.1.1/../../../../../H-x86_64-pc-linux-gnu/nios2-elf/lib/mhw-mulx/libc.a(lib_a-memset.o)
                              /opt/intelFPGA/20.1.1/nios2eds/bin/gnu/H-x86_64-pc-linux-gnu/bin/../lib/gcc/nios2-elf/10.1.1/../../../../../H-x86_64-pc-linux-gnu/nios2-elf/lib/mhw-mulx/libc.a(lib_a-findfp.o) (memset)
/opt/intelFPGA/20.1.1/nios2eds/bin/gnu/H-x86_64-pc-linux-gnu/bin/../lib/gcc/nios2-elf/10.1.1/../../../../../H-x86_64-pc-linux-gnu/nios2-elf/lib/mhw-mulx/libc.a(lib_a-reallocr.o)
                              /opt/intelFPGA/20.1.1/nios2eds/bin/gnu/H-x86_64-pc-linux-gnu/bin/../lib/gcc/nios2-elf/10.1.1/../../../../../H-x86_64-pc-linux-gnu/nios2-elf/lib/mhw-mulx/libc.a(lib_a-fvwrite.o) (_realloc_r)
/opt/intelFPGA/20.1.1/nios2eds/bin/gnu/H-x86_64-pc-linux-gnu/bin/../lib/gcc/nios2-elf/10.1.1/../../../../../H-x86_64-pc-linux-gnu/nios2-elf/lib/mhw-mulx/libc.a(lib_a-sbrkr.o)
                              /opt/intelFPGA/20.1.1/nios2eds/bin/gnu/H-x86_64-pc-linux-gnu/bin/../lib/gcc/nios2-elf/10.1.1/../../../../../H-x86_64-pc-linux-gnu/nios2-elf/lib/mhw-mulx/libc.a(lib_a-mallocr.o) (_sbrk_r)
/opt/intelFPGA/20.1.1/nios2eds/bin/gnu/H-x86_64-pc-linux-gnu/bin/../lib/gcc/nios2-elf/10.1.1/../../../../../H-x86_64-pc-linux-gnu/nios2-elf/lib/mhw-mulx/libc.a(lib_a-stdio.o)
                              /opt/intelFPGA/20.1.1/nios2eds/bin/gnu/H-x86_64-pc-linux-gnu/bin/../lib/gcc/nios2-elf/10.1.1/../../../../../H-x86_64-pc-linux-gnu/nios2-elf/lib/mhw-mulx/libc.a(lib_a-findfp.o) (__sread)
/opt/intelFPGA/20.1.1/nios2eds/bin/gnu/H-x86_64-pc-linux-gnu/bin/../lib/gcc/nios2-elf/10.1.1/../../../../../H-x86_64-pc-linux-gnu/nios2-elf/lib/mhw-mulx/libc.a(lib_a-writer.o)
                              /opt/intelFPGA/20.1.1/nios2eds/bin/gnu/H-x86_64-pc-linux-gnu/bin/../lib/gcc/nios2-elf/10.1.1/../../../../../H-x86_64-pc-linux-gnu/nios2-elf/lib/mhw-mulx/libc.a(lib_a-stdio.o) (_write_r)
/opt/intelFPGA/20.1.1/nios2eds/bin/gnu/H-x86_64-pc-linux-gnu/bin/../lib/gcc/nios2-elf/10.1.1/../../../../../H-x86_64-pc-linux-gnu/nios2-elf/lib/mhw-mulx/libc.a(lib_a-wsetup.o)
                              /opt/intelFPGA/20.1.1/nios2eds/bin/gnu/H-x86_64-pc-linux-gnu/bin/../lib/gcc/nios2-elf/10.1.1/../../../../../H-x86_64-pc-linux-gnu/nios2-elf/lib/mhw-mulx/libc.a(lib_a-fvwrite.o) (__swsetup_r)
/opt/intelFPGA/20.1.1/nios2eds/bin/gnu/H-x86_64-pc-linux-gnu/bin/../lib/gcc/nios2-elf/10.1.1/../../../../../H-x86_64-pc-linux-gnu/nios2-elf/lib/mhw-mulx/libc.a(closer.o)
                              /opt/intelFPGA/20.1.1/nios2eds/bin/gnu/H-x86_64-pc-linux-gnu/bin/../lib/gcc/nios2-elf/10.1.1/../../../../../H-x86_64-pc-linux-gnu/nios2-elf/lib/mhw-mulx/libc.a(lib_a-stdio.o) (_close_r)
/opt/intelFPGA/20.1.1/nios2eds/bin/gnu/H-x86_64-pc-linux-gnu/bin/../lib/gcc/nios2-elf/10.1.1/../../../../../H-x86_64-pc-linux-gnu/nios2-elf/lib/mhw-mulx/libc.a(lib_a-fclose.o)
                              /opt/intelFPGA/20.1.1/nios2eds/bin/gnu/H-x86_64-pc-linux-gnu/bin/../lib/gcc/nios2-elf/10.1.1/../../../../../H-x86_64-pc-linux-gnu/nios2-elf/lib/mhw-mulx/libc.a(lib_a-findfp.o) (_fclose_r)
/opt/intelFPGA/20.1.1/nios2eds/bin/gnu/H-x86_64-pc-linux-gnu/bin/../lib/gcc/nios2-elf/10.1.1/../../../../../H-x86_64-pc-linux-gnu/nios2-elf/lib/mhw-mulx/libc.a(lib_a-fflush.o)
                              /opt/intelFPGA/20.1.1/nios2eds/bin/gnu/H-x86_64-pc-linux-gnu/bin/../lib/gcc/nios2-elf/10.1.1/../../../../../H-x86_64-pc-linux-gnu/nios2-elf/lib/mhw-mulx/libc.a(lib_a-fclose.o) (__sflush_r)
/opt/intelFPGA/20.1.1/nios2eds/bin/gnu/H-x86_64-pc-linux-gnu/bin/../lib/gcc/nios2-elf/10.1.1/../../../../../H-x86_64-pc-linux-gnu/nios2-elf/lib/mhw-mulx/libc.a(lib_a-freer.o)
                              /opt/intelFPGA/20.1.1/nios2eds/bin/gnu/H-x86_64-pc-linux-gnu/bin/../lib/gcc/nios2-elf/10.1.1/../../../../../H-x86_64-pc-linux-gnu/nios2-elf/lib/mhw-mulx/libc.a(lib_a-fvwrite.o) (_free_r)
/opt/intelFPGA/20.1.1/nios2eds/bin/gnu/H-x86_64-pc-linux-gnu/bin/../lib/gcc/nios2-elf/10.1.1/../../../../../H-x86_64-pc-linux-gnu/nios2-elf/lib/mhw-mulx/libc.a(lib_a-int_errno.o)
                              /opt/intelFPGA/20.1.1/nios2eds/bin/gnu/H-x86_64-pc-linux-gnu/bin/../lib/gcc/nios2-elf/10.1.1/../../../../../H-x86_64-pc-linux-gnu/nios2-elf/lib/mhw-mulx/libc.a(lib_a-sbrkr.o) (errno)
/opt/intelFPGA/20.1.1/nios2eds/bin/gnu/H-x86_64-pc-linux-gnu/bin/../lib/gcc/nios2-elf/10.1.1/../../../../../H-x86_64-pc-linux-gnu/nios2-elf/lib/mhw-mulx/libc.a(lib_a-lseekr.o)
                              /opt/intelFPGA/20.1.1/nios2eds/bin/gnu/H-x86_64-pc-linux-gnu/bin/../lib/gcc/nios2-elf/10.1.1/../../../../../H-x86_64-pc-linux-gnu/nios2-elf/lib/mhw-mulx/libc.a(lib_a-stdio.o) (_lseek_r)
/opt/intelFPGA/20.1.1/nios2eds/bin/gnu/H-x86_64-pc-linux-gnu/bin/../lib/gcc/nios2-elf/10.1.1/../../../../../H-x86_64-pc-linux-gnu/nios2-elf/lib/mhw-mulx/libc.a(lib_a-makebuf.o)
                              /opt/intelFPGA/20.1.1/nios2eds/bin/gnu/H-x86_64-pc-linux-gnu/bin/../lib/gcc/nios2-elf/10.1.1/../../../../../H-x86_64-pc-linux-gnu/nios2-elf/lib/mhw-mulx/libc.a(lib_a-wsetup.o) (__smakebuf_r)
/opt/intelFPGA/20.1.1/nios2eds/bin/gnu/H-x86_64-pc-linux-gnu/bin/../lib/gcc/nios2-elf/10.1.1/../../../../../H-x86_64-pc-linux-gnu/nios2-elf/lib/mhw-mulx/libc.a(lib_a-readr.o)
                              /opt/intelFPGA/20.1.1/nios2eds/bin/gnu/H-x86_64-pc-linux-gnu/bin/../lib/gcc/nios2-elf/10.1.1/../../../../../H-x86_64-pc-linux-gnu/nios2-elf/lib/mhw-mulx/libc.a(lib_a-stdio.o) (_read_r)
/opt/intelFPGA/20.1.1/nios2eds/bin/gnu/H-x86_64-pc-linux-gnu/bin/../lib/gcc/nios2-elf/10.1.1/../../../../../H-x86_64-pc-linux-gnu/nios2-elf/lib/mhw-mulx/libc.a(lib_a-fstatr.o)
                              /opt/intelFPGA/20.1.1/nios2eds/bin/gnu/H-x86_64-pc-linux-gnu/bin/../lib/gcc/nios2-elf/10.1.1/../../../../../H-x86_64-pc-linux-gnu/nios2-elf/lib/mhw-mulx/libc.a(lib_a-makebuf.o) (_fstat_r)
/opt/intelFPGA/20.1.1/nios2eds/bin/gnu/H-x86_64-pc-linux-gnu/bin/../lib/gcc/nios2-elf/10.1.1/../../../../../H-x86_64-pc-linux-gnu/nios2-elf/lib/mhw-mulx/libc.a(lib_a-isattyr.o)
                              /opt/intelFPGA/20.1.1/nios2eds/bin/gnu/H-x86_64-pc-linux-gnu/bin/../lib/gcc/nios2-elf/10.1.1/../../../../../H-x86_64-pc-linux-gnu/nios2-elf/lib/mhw-mulx/libc.a(lib_a-makebuf.o) (_isatty_r)
/opt/intelFPGA/20.1.1/nios2eds/bin/gnu/H-x86_64-pc-linux-gnu/bin/../lib/gcc/nios2-elf/10.1.1/mhw-mulx/libgcc.a(lib2-divmod.o)
                              /opt/intelFPGA/20.1.1/nios2eds/bin/gnu/H-x86_64-pc-linux-gnu/bin/../lib/gcc/nios2-elf/10.1.1/../../../../../H-x86_64-pc-linux-gnu/nios2-elf/lib/mhw-mulx/libc.a(lib_a-fvwrite.o) (__divsi3)
/home/xix277/engr-ece/Winter_Sem_2022/CME332/asn_test/test_prob_6_bsp//libucosii_bsp.a(alt_close.o)
                              /opt/intelFPGA/20.1.1/nios2eds/bin/gnu/H-x86_64-pc-linux-gnu/bin/../lib/gcc/nios2-elf/10.1.1/../../../../../H-x86_64-pc-linux-gnu/nios2-elf/lib/mhw-mulx/libc.a(closer.o) (close)
/home/xix277/engr-ece/Winter_Sem_2022/CME332/asn_test/test_prob_6_bsp//libucosii_bsp.a(alt_dev.o)
                              /home/xix277/engr-ece/Winter_Sem_2022/CME332/asn_test/test_prob_6_bsp//libucosii_bsp.a(alt_close.o) (alt_fd_list)
/home/xix277/engr-ece/Winter_Sem_2022/CME332/asn_test/test_prob_6_bsp//libucosii_bsp.a(alt_errno.o)
                              /home/xix277/engr-ece/Winter_Sem_2022/CME332/asn_test/test_prob_6_bsp//libucosii_bsp.a(alt_close.o) (alt_errno)
/home/xix277/engr-ece/Winter_Sem_2022/CME332/asn_test/test_prob_6_bsp//libucosii_bsp.a(alt_fstat.o)
                              /opt/intelFPGA/20.1.1/nios2eds/bin/gnu/H-x86_64-pc-linux-gnu/bin/../lib/gcc/nios2-elf/10.1.1/../../../../../H-x86_64-pc-linux-gnu/nios2-elf/lib/mhw-mulx/libc.a(lib_a-fstatr.o) (fstat)
/home/xix277/engr-ece/Winter_Sem_2022/CME332/asn_test/test_prob_6_bsp//libucosii_bsp.a(alt_isatty.o)
                              /opt/intelFPGA/20.1.1/nios2eds/bin/gnu/H-x86_64-pc-linux-gnu/bin/../lib/gcc/nios2-elf/10.1.1/../../../../../H-x86_64-pc-linux-gnu/nios2-elf/lib/mhw-mulx/libc.a(lib_a-isattyr.o) (isatty)
/home/xix277/engr-ece/Winter_Sem_2022/CME332/asn_test/test_prob_6_bsp//libucosii_bsp.a(alt_load.o)
                              /home/xix277/engr-ece/Winter_Sem_2022/CME332/asn_test/test_prob_6_bsp//obj/HAL/src/crt0.o (alt_load)
/home/xix277/engr-ece/Winter_Sem_2022/CME332/asn_test/test_prob_6_bsp//libucosii_bsp.a(alt_lseek.o)
                              /opt/intelFPGA/20.1.1/nios2eds/bin/gnu/H-x86_64-pc-linux-gnu/bin/../lib/gcc/nios2-elf/10.1.1/../../../../../H-x86_64-pc-linux-gnu/nios2-elf/lib/mhw-mulx/libc.a(lib_a-lseekr.o) (lseek)
/home/xix277/engr-ece/Winter_Sem_2022/CME332/asn_test/test_prob_6_bsp//libucosii_bsp.a(alt_main.o)
                              /home/xix277/engr-ece/Winter_Sem_2022/CME332/asn_test/test_prob_6_bsp//obj/HAL/src/crt0.o (alt_main)
/home/xix277/engr-ece/Winter_Sem_2022/CME332/asn_test/test_prob_6_bsp//libucosii_bsp.a(alt_read.o)
                              /opt/intelFPGA/20.1.1/nios2eds/bin/gnu/H-x86_64-pc-linux-gnu/bin/../lib/gcc/nios2-elf/10.1.1/../../../../../H-x86_64-pc-linux-gnu/nios2-elf/lib/mhw-mulx/libc.a(lib_a-readr.o) (read)
/home/xix277/engr-ece/Winter_Sem_2022/CME332/asn_test/test_prob_6_bsp//libucosii_bsp.a(alt_release_fd.o)
                              /home/xix277/engr-ece/Winter_Sem_2022/CME332/asn_test/test_prob_6_bsp//libucosii_bsp.a(alt_close.o) (alt_release_fd)
/home/xix277/engr-ece/Winter_Sem_2022/CME332/asn_test/test_prob_6_bsp//libucosii_bsp.a(alt_sbrk.o)
                              /opt/intelFPGA/20.1.1/nios2eds/bin/gnu/H-x86_64-pc-linux-gnu/bin/../lib/gcc/nios2-elf/10.1.1/../../../../../H-x86_64-pc-linux-gnu/nios2-elf/lib/mhw-mulx/libc.a(lib_a-sbrkr.o) (sbrk)
/home/xix277/engr-ece/Winter_Sem_2022/CME332/asn_test/test_prob_6_bsp//libucosii_bsp.a(alt_write.o)
                              /opt/intelFPGA/20.1.1/nios2eds/bin/gnu/H-x86_64-pc-linux-gnu/bin/../lib/gcc/nios2-elf/10.1.1/../../../../../H-x86_64-pc-linux-gnu/nios2-elf/lib/mhw-mulx/libc.a(lib_a-writer.o) (write)
/home/xix277/engr-ece/Winter_Sem_2022/CME332/asn_test/test_prob_6_bsp//libucosii_bsp.a(alt_env_lock.o)
                              /home/xix277/engr-ece/Winter_Sem_2022/CME332/asn_test/test_prob_6_bsp//libucosii_bsp.a(alt_main.o) (alt_envsem)
/home/xix277/engr-ece/Winter_Sem_2022/CME332/asn_test/test_prob_6_bsp//libucosii_bsp.a(alt_malloc_lock.o)
                              /home/xix277/engr-ece/Winter_Sem_2022/CME332/asn_test/test_prob_6_bsp//libucosii_bsp.a(alt_main.o) (alt_heapsem)
/home/xix277/engr-ece/Winter_Sem_2022/CME332/asn_test/test_prob_6_bsp//libucosii_bsp.a(os_core.o)
                              /home/xix277/engr-ece/Winter_Sem_2022/CME332/asn_test/test_prob_6_bsp//libucosii_bsp.a(alt_malloc_lock.o) (OSRunning)
/home/xix277/engr-ece/Winter_Sem_2022/CME332/asn_test/test_prob_6_bsp//libucosii_bsp.a(os_dbg.o)
                              /home/xix277/engr-ece/Winter_Sem_2022/CME332/asn_test/test_prob_6_bsp//libucosii_bsp.a(os_core.o) (OSDebugInit)
/home/xix277/engr-ece/Winter_Sem_2022/CME332/asn_test/test_prob_6_bsp//libucosii_bsp.a(os_flag.o)
                              /home/xix277/engr-ece/Winter_Sem_2022/CME332/asn_test/test_prob_6_bsp//libucosii_bsp.a(os_core.o) (OS_FlagInit)
/home/xix277/engr-ece/Winter_Sem_2022/CME332/asn_test/test_prob_6_bsp//libucosii_bsp.a(os_mem.o)
                              /home/xix277/engr-ece/Winter_Sem_2022/CME332/asn_test/test_prob_6_bsp//libucosii_bsp.a(os_core.o) (OS_MemInit)
/home/xix277/engr-ece/Winter_Sem_2022/CME332/asn_test/test_prob_6_bsp//libucosii_bsp.a(os_q.o)
                              /home/xix277/engr-ece/Winter_Sem_2022/CME332/asn_test/test_prob_6_bsp//libucosii_bsp.a(os_core.o) (OS_QInit)
/home/xix277/engr-ece/Winter_Sem_2022/CME332/asn_test/test_prob_6_bsp//libucosii_bsp.a(os_sem.o)
                              /home/xix277/engr-ece/Winter_Sem_2022/CME332/asn_test/test_prob_6_bsp//libucosii_bsp.a(alt_main.o) (OSSemCreate)
/home/xix277/engr-ece/Winter_Sem_2022/CME332/asn_test/test_prob_6_bsp//libucosii_bsp.a(os_task.o)
                              obj/default/hello_ucosii.o (OSTaskCreate)
/home/xix277/engr-ece/Winter_Sem_2022/CME332/asn_test/test_prob_6_bsp//libucosii_bsp.a(os_time.o)
                              obj/default/hello_ucosii.o (OSTimeDly)
/home/xix277/engr-ece/Winter_Sem_2022/CME332/asn_test/test_prob_6_bsp//libucosii_bsp.a(alt_sys_init.o)
                              /home/xix277/engr-ece/Winter_Sem_2022/CME332/asn_test/test_prob_6_bsp//libucosii_bsp.a(alt_main.o) (alt_irq_init)
/home/xix277/engr-ece/Winter_Sem_2022/CME332/asn_test/test_prob_6_bsp//libucosii_bsp.a(altera_avalon_jtag_uart_fd.o)
                              /home/xix277/engr-ece/Winter_Sem_2022/CME332/asn_test/test_prob_6_bsp//libucosii_bsp.a(alt_sys_init.o) (altera_avalon_jtag_uart_read_fd)
/home/xix277/engr-ece/Winter_Sem_2022/CME332/asn_test/test_prob_6_bsp//libucosii_bsp.a(altera_avalon_jtag_uart_init.o)
                              /home/xix277/engr-ece/Winter_Sem_2022/CME332/asn_test/test_prob_6_bsp//libucosii_bsp.a(alt_sys_init.o) (altera_avalon_jtag_uart_init)
/home/xix277/engr-ece/Winter_Sem_2022/CME332/asn_test/test_prob_6_bsp//libucosii_bsp.a(altera_avalon_jtag_uart_ioctl.o)
                              /home/xix277/engr-ece/Winter_Sem_2022/CME332/asn_test/test_prob_6_bsp//libucosii_bsp.a(altera_avalon_jtag_uart_fd.o) (altera_avalon_jtag_uart_ioctl)
/home/xix277/engr-ece/Winter_Sem_2022/CME332/asn_test/test_prob_6_bsp//libucosii_bsp.a(altera_avalon_jtag_uart_read.o)
                              /home/xix277/engr-ece/Winter_Sem_2022/CME332/asn_test/test_prob_6_bsp//libucosii_bsp.a(altera_avalon_jtag_uart_fd.o) (altera_avalon_jtag_uart_read)
/home/xix277/engr-ece/Winter_Sem_2022/CME332/asn_test/test_prob_6_bsp//libucosii_bsp.a(altera_avalon_jtag_uart_write.o)
                              /home/xix277/engr-ece/Winter_Sem_2022/CME332/asn_test/test_prob_6_bsp//libucosii_bsp.a(altera_avalon_jtag_uart_fd.o) (altera_avalon_jtag_uart_write)
/home/xix277/engr-ece/Winter_Sem_2022/CME332/asn_test/test_prob_6_bsp//libucosii_bsp.a(altera_avalon_timer_sc.o)
                              /home/xix277/engr-ece/Winter_Sem_2022/CME332/asn_test/test_prob_6_bsp//libucosii_bsp.a(alt_sys_init.o) (alt_avalon_timer_sc_init)
/home/xix277/engr-ece/Winter_Sem_2022/CME332/asn_test/test_prob_6_bsp//libucosii_bsp.a(altera_up_avalon_character_lcd.o)
                              /home/xix277/engr-ece/Winter_Sem_2022/CME332/asn_test/test_prob_6_bsp//libucosii_bsp.a(alt_sys_init.o) (alt_up_character_lcd_init)
/home/xix277/engr-ece/Winter_Sem_2022/CME332/asn_test/test_prob_6_bsp//libucosii_bsp.a(altera_up_avalon_irda.o)
                              /home/xix277/engr-ece/Winter_Sem_2022/CME332/asn_test/test_prob_6_bsp//libucosii_bsp.a(alt_sys_init.o) (alt_up_irda_read_fd)
/home/xix277/engr-ece/Winter_Sem_2022/CME332/asn_test/test_prob_6_bsp//libucosii_bsp.a(altera_up_avalon_ps2.o)
                              /home/xix277/engr-ece/Winter_Sem_2022/CME332/asn_test/test_prob_6_bsp//libucosii_bsp.a(alt_sys_init.o) (alt_up_ps2_init)
/home/xix277/engr-ece/Winter_Sem_2022/CME332/asn_test/test_prob_6_bsp//libucosii_bsp.a(altera_up_avalon_rs232.o)
                              /home/xix277/engr-ece/Winter_Sem_2022/CME332/asn_test/test_prob_6_bsp//libucosii_bsp.a(alt_sys_init.o) (alt_up_rs232_read_fd)
/home/xix277/engr-ece/Winter_Sem_2022/CME332/asn_test/test_prob_6_bsp//libucosii_bsp.a(alt_alarm_start.o)
                              /home/xix277/engr-ece/Winter_Sem_2022/CME332/asn_test/test_prob_6_bsp//libucosii_bsp.a(altera_avalon_jtag_uart_init.o) (alt_alarm_start)
/home/xix277/engr-ece/Winter_Sem_2022/CME332/asn_test/test_prob_6_bsp//libucosii_bsp.a(alt_dcache_flush_all.o)
                              /home/xix277/engr-ece/Winter_Sem_2022/CME332/asn_test/test_prob_6_bsp//libucosii_bsp.a(alt_load.o) (alt_dcache_flush_all)
/home/xix277/engr-ece/Winter_Sem_2022/CME332/asn_test/test_prob_6_bsp//libucosii_bsp.a(alt_dev_llist_insert.o)
                              /home/xix277/engr-ece/Winter_Sem_2022/CME332/asn_test/test_prob_6_bsp//libucosii_bsp.a(alt_sys_init.o) (alt_dev_llist_insert)
/home/xix277/engr-ece/Winter_Sem_2022/CME332/asn_test/test_prob_6_bsp//libucosii_bsp.a(alt_do_ctors.o)
                              /home/xix277/engr-ece/Winter_Sem_2022/CME332/asn_test/test_prob_6_bsp//libucosii_bsp.a(alt_main.o) (_do_ctors)
/home/xix277/engr-ece/Winter_Sem_2022/CME332/asn_test/test_prob_6_bsp//libucosii_bsp.a(alt_do_dtors.o)
                              /home/xix277/engr-ece/Winter_Sem_2022/CME332/asn_test/test_prob_6_bsp//libucosii_bsp.a(alt_main.o) (_do_dtors)
/home/xix277/engr-ece/Winter_Sem_2022/CME332/asn_test/test_prob_6_bsp//libucosii_bsp.a(alt_find_dev.o)
                              /home/xix277/engr-ece/Winter_Sem_2022/CME332/asn_test/test_prob_6_bsp//libucosii_bsp.a(altera_up_avalon_character_lcd.o) (alt_find_dev)
/home/xix277/engr-ece/Winter_Sem_2022/CME332/asn_test/test_prob_6_bsp//libucosii_bsp.a(alt_icache_flush_all.o)
                              /home/xix277/engr-ece/Winter_Sem_2022/CME332/asn_test/test_prob_6_bsp//libucosii_bsp.a(alt_load.o) (alt_icache_flush_all)
/home/xix277/engr-ece/Winter_Sem_2022/CME332/asn_test/test_prob_6_bsp//libucosii_bsp.a(alt_io_redirect.o)
                              /home/xix277/engr-ece/Winter_Sem_2022/CME332/asn_test/test_prob_6_bsp//libucosii_bsp.a(alt_main.o) (alt_io_redirect)
/home/xix277/engr-ece/Winter_Sem_2022/CME332/asn_test/test_prob_6_bsp//libucosii_bsp.a(alt_irq_register.o)
                              /home/xix277/engr-ece/Winter_Sem_2022/CME332/asn_test/test_prob_6_bsp//libucosii_bsp.a(altera_avalon_jtag_uart_init.o) (alt_irq_register)
/home/xix277/engr-ece/Winter_Sem_2022/CME332/asn_test/test_prob_6_bsp//libucosii_bsp.a(alt_irq_vars.o)
                              /home/xix277/engr-ece/Winter_Sem_2022/CME332/asn_test/test_prob_6_bsp//libucosii_bsp.a(alt_irq_register.o) (alt_irq_active)
/home/xix277/engr-ece/Winter_Sem_2022/CME332/asn_test/test_prob_6_bsp//libucosii_bsp.a(alt_open.o)
                              /home/xix277/engr-ece/Winter_Sem_2022/CME332/asn_test/test_prob_6_bsp//libucosii_bsp.a(alt_io_redirect.o) (open)
/home/xix277/engr-ece/Winter_Sem_2022/CME332/asn_test/test_prob_6_bsp//libucosii_bsp.a(alt_tick.o)
                              /home/xix277/engr-ece/Winter_Sem_2022/CME332/asn_test/test_prob_6_bsp//libucosii_bsp.a(altera_avalon_jtag_uart_init.o) (_alt_tick_rate)
/home/xix277/engr-ece/Winter_Sem_2022/CME332/asn_test/test_prob_6_bsp//libucosii_bsp.a(altera_nios2_gen2_irq.o)
                              /home/xix277/engr-ece/Winter_Sem_2022/CME332/asn_test/test_prob_6_bsp//libucosii_bsp.a(alt_sys_init.o) (altera_nios2_gen2_irq_init)
/home/xix277/engr-ece/Winter_Sem_2022/CME332/asn_test/test_prob_6_bsp//libucosii_bsp.a(os_cpu_a.o)
                              /home/xix277/engr-ece/Winter_Sem_2022/CME332/asn_test/test_prob_6_bsp//libucosii_bsp.a(os_core.o) (OSIntCtxSw)
/home/xix277/engr-ece/Winter_Sem_2022/CME332/asn_test/test_prob_6_bsp//libucosii_bsp.a(os_cpu_c.o)
                              /home/xix277/engr-ece/Winter_Sem_2022/CME332/asn_test/test_prob_6_bsp//libucosii_bsp.a(os_task.o) (OSTaskStkInit)
/home/xix277/engr-ece/Winter_Sem_2022/CME332/asn_test/test_prob_6_bsp//libucosii_bsp.a(alt_find_file.o)
                              /home/xix277/engr-ece/Winter_Sem_2022/CME332/asn_test/test_prob_6_bsp//libucosii_bsp.a(alt_open.o) (alt_find_file)
/home/xix277/engr-ece/Winter_Sem_2022/CME332/asn_test/test_prob_6_bsp//libucosii_bsp.a(alt_get_fd.o)
                              /home/xix277/engr-ece/Winter_Sem_2022/CME332/asn_test/test_prob_6_bsp//libucosii_bsp.a(alt_open.o) (alt_get_fd)
/home/xix277/engr-ece/Winter_Sem_2022/CME332/asn_test/test_prob_6_bsp//libucosii_bsp.a(alt_icache_flush.o)
                              /home/xix277/engr-ece/Winter_Sem_2022/CME332/asn_test/test_prob_6_bsp//libucosii_bsp.a(alt_icache_flush_all.o) (alt_icache_flush)
/home/xix277/engr-ece/Winter_Sem_2022/CME332/asn_test/test_prob_6_bsp//libucosii_bsp.a(alt_irq_entry.o)
                              /home/xix277/engr-ece/Winter_Sem_2022/CME332/asn_test/test_prob_6_bsp//libucosii_bsp.a(alt_irq_register.o) (alt_irq_entry)
/home/xix277/engr-ece/Winter_Sem_2022/CME332/asn_test/test_prob_6_bsp//libucosii_bsp.a(alt_irq_handler.o)
                              /home/xix277/engr-ece/Winter_Sem_2022/CME332/asn_test/test_prob_6_bsp//libucosii_bsp.a(alt_irq_register.o) (alt_irq)
/home/xix277/engr-ece/Winter_Sem_2022/CME332/asn_test/test_prob_6_bsp//libucosii_bsp.a(alt_exception_entry.o)
                              /home/xix277/engr-ece/Winter_Sem_2022/CME332/asn_test/test_prob_6_bsp//libucosii_bsp.a(alt_irq_entry.o) (alt_exception)
/home/xix277/engr-ece/Winter_Sem_2022/CME332/asn_test/test_prob_6_bsp//libucosii_bsp.a(alt_instruction_exception_entry.o)
                              /home/xix277/engr-ece/Winter_Sem_2022/CME332/asn_test/test_prob_6_bsp//libucosii_bsp.a(alt_exception_entry.o) (alt_instruction_exception_entry)
/opt/intelFPGA/20.1.1/nios2eds/bin/gnu/H-x86_64-pc-linux-gnu/bin/../lib/gcc/nios2-elf/10.1.1/../../../../../H-x86_64-pc-linux-gnu/nios2-elf/lib/mhw-mulx/libc.a(lib_a-atexit.o)
                              /home/xix277/engr-ece/Winter_Sem_2022/CME332/asn_test/test_prob_6_bsp//libucosii_bsp.a(alt_main.o) (atexit)
/opt/intelFPGA/20.1.1/nios2eds/bin/gnu/H-x86_64-pc-linux-gnu/bin/../lib/gcc/nios2-elf/10.1.1/../../../../../H-x86_64-pc-linux-gnu/nios2-elf/lib/mhw-mulx/libc.a(lib_a-exit.o)
                              /home/xix277/engr-ece/Winter_Sem_2022/CME332/asn_test/test_prob_6_bsp//libucosii_bsp.a(alt_main.o) (exit)
/opt/intelFPGA/20.1.1/nios2eds/bin/gnu/H-x86_64-pc-linux-gnu/bin/../lib/gcc/nios2-elf/10.1.1/../../../../../H-x86_64-pc-linux-gnu/nios2-elf/lib/mhw-mulx/libc.a(lib_a-memcmp.o)
                              /home/xix277/engr-ece/Winter_Sem_2022/CME332/asn_test/test_prob_6_bsp//libucosii_bsp.a(alt_find_dev.o) (memcmp)
/opt/intelFPGA/20.1.1/nios2eds/bin/gnu/H-x86_64-pc-linux-gnu/bin/../lib/gcc/nios2-elf/10.1.1/../../../../../H-x86_64-pc-linux-gnu/nios2-elf/lib/mhw-mulx/libc.a(lib_a-__atexit.o)
                              /opt/intelFPGA/20.1.1/nios2eds/bin/gnu/H-x86_64-pc-linux-gnu/bin/../lib/gcc/nios2-elf/10.1.1/../../../../../H-x86_64-pc-linux-gnu/nios2-elf/lib/mhw-mulx/libc.a(lib_a-atexit.o) (__register_exitproc)
/opt/intelFPGA/20.1.1/nios2eds/bin/gnu/H-x86_64-pc-linux-gnu/bin/../lib/gcc/nios2-elf/10.1.1/../../../../../H-x86_64-pc-linux-gnu/nios2-elf/lib/mhw-mulx/libc.a(lib_a-__call_atexit.o)
                              /opt/intelFPGA/20.1.1/nios2eds/bin/gnu/H-x86_64-pc-linux-gnu/bin/../lib/gcc/nios2-elf/10.1.1/../../../../../H-x86_64-pc-linux-gnu/nios2-elf/lib/mhw-mulx/libc.a(lib_a-exit.o) (__call_exitprocs)
/home/xix277/engr-ece/Winter_Sem_2022/CME332/asn_test/test_prob_6_bsp//libucosii_bsp.a(alt_exit.o)
                              /opt/intelFPGA/20.1.1/nios2eds/bin/gnu/H-x86_64-pc-linux-gnu/bin/../lib/gcc/nios2-elf/10.1.1/../../../../../H-x86_64-pc-linux-gnu/nios2-elf/lib/mhw-mulx/libc.a(lib_a-exit.o) (_exit)

Memory Configuration

Name             Origin             Length             Attributes
reset            0x0000000000000000 0x0000000000000020
SDRAM            0x0000000000000020 0x0000000003ffffe0
VGA_Subsystem_Char_Buf_Subsystem_Onchip_SRAM 0x0000000009000000 0x0000000000002000
*default*        0x0000000000000000 0xffffffffffffffff

Linker script and memory map

LOAD /home/xix277/engr-ece/Winter_Sem_2022/CME332/asn_test/test_prob_6_bsp//obj/HAL/src/crt0.o
LOAD obj/default/hello_ucosii.o
LOAD /opt/intelFPGA/20.1.1/nios2eds/bin/gnu/H-x86_64-pc-linux-gnu/bin/../lib/gcc/nios2-elf/10.1.1/../../../../../H-x86_64-pc-linux-gnu/nios2-elf/lib/mhw-mulx/libstdc++.a
LOAD /opt/intelFPGA/20.1.1/nios2eds/bin/gnu/H-x86_64-pc-linux-gnu/bin/../lib/gcc/nios2-elf/10.1.1/../../../../../H-x86_64-pc-linux-gnu/nios2-elf/lib/mhw-mulx/libm.a
LOAD /opt/intelFPGA/20.1.1/nios2eds/bin/gnu/H-x86_64-pc-linux-gnu/bin/../lib/gcc/nios2-elf/10.1.1/mhw-mulx/libgcc.a
START GROUP
LOAD /opt/intelFPGA/20.1.1/nios2eds/bin/gnu/H-x86_64-pc-linux-gnu/bin/../lib/gcc/nios2-elf/10.1.1/../../../../../H-x86_64-pc-linux-gnu/nios2-elf/lib/mhw-mulx/libc.a
LOAD /opt/intelFPGA/20.1.1/nios2eds/bin/gnu/H-x86_64-pc-linux-gnu/bin/../lib/gcc/nios2-elf/10.1.1/mhw-mulx/libgcc.a
LOAD /home/xix277/engr-ece/Winter_Sem_2022/CME332/asn_test/test_prob_6_bsp//libucosii_bsp.a
LOAD /opt/intelFPGA/20.1.1/nios2eds/bin/gnu/H-x86_64-pc-linux-gnu/bin/../lib/gcc/nios2-elf/10.1.1/../../../../../H-x86_64-pc-linux-gnu/nios2-elf/lib/mhw-mulx/libm.a
END GROUP
LOAD /opt/intelFPGA/20.1.1/nios2eds/bin/gnu/H-x86_64-pc-linux-gnu/bin/../lib/gcc/nios2-elf/10.1.1/mhw-mulx/libgcc.a
                0x0000000000000000                __alt_mem_SDRAM = 0x0
                0x0000000009000000                __alt_mem_VGA_Subsystem_Char_Buf_Subsystem_Onchip_SRAM = 0x9000000

.entry          0x0000000000000000       0x20
 *(.entry)
 .entry         0x0000000000000000       0x20 /home/xix277/engr-ece/Winter_Sem_2022/CME332/asn_test/test_prob_6_bsp//obj/HAL/src/crt0.o
                0x0000000000000000                __reset

.exceptions     0x0000000000000020      0x21c
                0x0000000000000020                PROVIDE (__ram_exceptions_start = ABSOLUTE (.))
                0x0000000000000020                . = ALIGN (0x20)
 *(.irq)
 *(.exceptions.entry.label)
 .exceptions.entry.label
                0x0000000000000020        0x0 /home/xix277/engr-ece/Winter_Sem_2022/CME332/asn_test/test_prob_6_bsp//libucosii_bsp.a(alt_irq_entry.o)
                0x0000000000000020                alt_irq_entry
 .exceptions.entry.label
                0x0000000000000020        0x0 /home/xix277/engr-ece/Winter_Sem_2022/CME332/asn_test/test_prob_6_bsp//libucosii_bsp.a(alt_exception_entry.o)
                0x0000000000000020                alt_exception
 *(.exceptions.entry.user)
 *(.exceptions.entry.ecc_fatal)
 *(.exceptions.entry)
 .exceptions.entry
                0x0000000000000020       0x54 /home/xix277/engr-ece/Winter_Sem_2022/CME332/asn_test/test_prob_6_bsp//libucosii_bsp.a(alt_exception_entry.o)
 *(.exceptions.irqtest.user)
 *(.exceptions.irqtest)
 .exceptions.irqtest
                0x0000000000000074       0x10 /home/xix277/engr-ece/Winter_Sem_2022/CME332/asn_test/test_prob_6_bsp//libucosii_bsp.a(alt_irq_entry.o)
 *(.exceptions.irqhandler.user)
 *(.exceptions.irqhandler)
 .exceptions.irqhandler
                0x0000000000000084        0x4 /home/xix277/engr-ece/Winter_Sem_2022/CME332/asn_test/test_prob_6_bsp//libucosii_bsp.a(alt_irq_entry.o)
 *(.exceptions.irqreturn.user)
 *(.exceptions.irqreturn)
 .exceptions.irqreturn
                0x0000000000000088        0x4 /home/xix277/engr-ece/Winter_Sem_2022/CME332/asn_test/test_prob_6_bsp//libucosii_bsp.a(alt_irq_entry.o)
 *(.exceptions.notirq.label)
 .exceptions.notirq.label
                0x000000000000008c        0x0 /home/xix277/engr-ece/Winter_Sem_2022/CME332/asn_test/test_prob_6_bsp//libucosii_bsp.a(alt_irq_entry.o)
 *(.exceptions.notirq.user)
 *(.exceptions.notirq)
 .exceptions.notirq
                0x000000000000008c        0x8 /home/xix277/engr-ece/Winter_Sem_2022/CME332/asn_test/test_prob_6_bsp//libucosii_bsp.a(alt_exception_entry.o)
 *(.exceptions.soft.user)
 *(.exceptions.soft)
 *(.exceptions.unknown.user)
 *(.exceptions.unknown)
 .exceptions.unknown
                0x0000000000000094       0x14 /home/xix277/engr-ece/Winter_Sem_2022/CME332/asn_test/test_prob_6_bsp//libucosii_bsp.a(alt_exception_entry.o)
 *(.exceptions.exit.label)
 .exceptions.exit.label
                0x00000000000000a8        0x0 /home/xix277/engr-ece/Winter_Sem_2022/CME332/asn_test/test_prob_6_bsp//libucosii_bsp.a(alt_irq_entry.o)
 .exceptions.exit.label
                0x00000000000000a8        0x0 /home/xix277/engr-ece/Winter_Sem_2022/CME332/asn_test/test_prob_6_bsp//libucosii_bsp.a(alt_exception_entry.o)
 *(.exceptions.exit.user)
 *(.exceptions.exit)
 .exceptions.exit
                0x00000000000000a8       0x54 /home/xix277/engr-ece/Winter_Sem_2022/CME332/asn_test/test_prob_6_bsp//libucosii_bsp.a(alt_exception_entry.o)
 *(.exceptions)
 .exceptions    0x00000000000000fc       0xcc /home/xix277/engr-ece/Winter_Sem_2022/CME332/asn_test/test_prob_6_bsp//libucosii_bsp.a(alt_irq_handler.o)
                0x00000000000000fc                alt_irq_handler
 .exceptions    0x00000000000001c8       0x74 /home/xix277/engr-ece/Winter_Sem_2022/CME332/asn_test/test_prob_6_bsp//libucosii_bsp.a(alt_instruction_exception_entry.o)
                0x00000000000001c8                alt_instruction_exception_entry
                0x000000000000023c                PROVIDE (__ram_exceptions_end = ABSOLUTE (.))
                0x0000000000000020                PROVIDE (__flash_exceptions_start = LOADADDR (.exceptions))

.text           0x000000000000023c     0xf264
                [!provide]                        PROVIDE (stext = ABSOLUTE (.))
 *(.interp)
 *(.hash)
 *(.dynsym)
 *(.dynstr)
 *(.gnu.version)
 *(.gnu.version_d)
 *(.gnu.version_r)
 *(.rel.init)
 *(.rela.init)
 *(.rel.text .rel.text.* .rel.gnu.linkonce.t.*)
 *(.rela.text .rela.text.* .rela.gnu.linkonce.t.*)
 *(.rel.fini)
 *(.rela.fini)
 *(.rel.rodata .rel.rodata.* .rel.gnu.linkonce.r.*)
 *(.rela.rodata .rela.rodata.* .rela.gnu.linkonce.r.*)
 *(.rel.data .rel.data.* .rel.gnu.linkonce.d.*)
 *(.rela.data .rela.data.* .rela.gnu.linkonce.d.*)
 *(.rel.tdata .rel.tdata.* .rel.gnu.linkonce.td.*)
 *(.rela.tdata .rela.tdata.* .rela.gnu.linkonce.td.*)
 *(.rel.tbss .rel.tbss.* .rel.gnu.linkonce.tb.*)
 *(.rela.tbss .rela.tbss.* .rela.gnu.linkonce.tb.*)
 *(.rel.ctors)
 *(.rela.ctors)
 *(.rel.dtors)
 *(.rela.dtors)
 *(.rel.got)
 *(.rela.got)
 *(.rel.sdata .rel.sdata.* .rel.gnu.linkonce.s.*)
 *(.rela.sdata .rela.sdata.* .rela.gnu.linkonce.s.*)
 *(.rel.sbss .rel.sbss.* .rel.gnu.linkonce.sb.*)
 *(.rela.sbss .rela.sbss.* .rela.gnu.linkonce.sb.*)
 *(.rel.sdata2 .rel.sdata2.* .rel.gnu.linkonce.s2.*)
 *(.rela.sdata2 .rela.sdata2.* .rela.gnu.linkonce.s2.*)
 *(.rel.sbss2 .rel.sbss2.* .rel.gnu.linkonce.sb2.*)
 *(.rela.sbss2 .rela.sbss2.* .rela.gnu.linkonce.sb2.*)
 *(.rel.bss .rel.bss.* .rel.gnu.linkonce.b.*)
 *(.rela.bss .rela.bss.* .rela.gnu.linkonce.b.*)
 *(.rel.plt)
 *(.rela.plt)
 *(.rel.dyn)
 *(.init)
 *(.plt)
 *(.text .stub .text.* .gnu.linkonce.t.*)
 .text          0x000000000000023c       0x3c /home/xix277/engr-ece/Winter_Sem_2022/CME332/asn_test/test_prob_6_bsp//obj/HAL/src/crt0.o
                0x000000000000023c                _start
 .text          0x0000000000000278      0x16c obj/default/hello_ucosii.o
                0x0000000000000278                main
                0x00000000000002c0                TestTaskA
                0x000000000000034c                TestTaskB
                0x0000000000000384                TestTaskC
                0x00000000000003b0                TestTaskD
 .text          0x00000000000003e4        0x0 /opt/intelFPGA/20.1.1/nios2eds/bin/gnu/H-x86_64-pc-linux-gnu/bin/../lib/gcc/nios2-elf/10.1.1/../../../../../H-x86_64-pc-linux-gnu/nios2-elf/lib/mhw-mulx/libc.a(lib_a-puts.o)
 .text._puts_r  0x00000000000003e4       0xcc /opt/intelFPGA/20.1.1/nios2eds/bin/gnu/H-x86_64-pc-linux-gnu/bin/../lib/gcc/nios2-elf/10.1.1/../../../../../H-x86_64-pc-linux-gnu/nios2-elf/lib/mhw-mulx/libc.a(lib_a-puts.o)
                0x00000000000003e4                _puts_r
 .text.puts     0x00000000000004b0       0x10 /opt/intelFPGA/20.1.1/nios2eds/bin/gnu/H-x86_64-pc-linux-gnu/bin/../lib/gcc/nios2-elf/10.1.1/../../../../../H-x86_64-pc-linux-gnu/nios2-elf/lib/mhw-mulx/libc.a(lib_a-puts.o)
                0x00000000000004b0                puts
 .text          0x00000000000004c0        0x0 /opt/intelFPGA/20.1.1/nios2eds/bin/gnu/H-x86_64-pc-linux-gnu/bin/../lib/gcc/nios2-elf/10.1.1/../../../../../H-x86_64-pc-linux-gnu/nios2-elf/lib/mhw-mulx/libc.a(lib_a-strlen.o)
 .text.strlen   0x00000000000004c0       0x98 /opt/intelFPGA/20.1.1/nios2eds/bin/gnu/H-x86_64-pc-linux-gnu/bin/../lib/gcc/nios2-elf/10.1.1/../../../../../H-x86_64-pc-linux-gnu/nios2-elf/lib/mhw-mulx/libc.a(lib_a-strlen.o)
                0x00000000000004c0                strlen
 .text          0x0000000000000558        0x0 /opt/intelFPGA/20.1.1/nios2eds/bin/gnu/H-x86_64-pc-linux-gnu/bin/../lib/gcc/nios2-elf/10.1.1/../../../../../H-x86_64-pc-linux-gnu/nios2-elf/lib/mhw-mulx/libc.a(lib_a-findfp.o)
 .text.__fp_lock
                0x0000000000000558        0x8 /opt/intelFPGA/20.1.1/nios2eds/bin/gnu/H-x86_64-pc-linux-gnu/bin/../lib/gcc/nios2-elf/10.1.1/../../../../../H-x86_64-pc-linux-gnu/nios2-elf/lib/mhw-mulx/libc.a(lib_a-findfp.o)
 .text._cleanup_r
                0x0000000000000560        0xc /opt/intelFPGA/20.1.1/nios2eds/bin/gnu/H-x86_64-pc-linux-gnu/bin/../lib/gcc/nios2-elf/10.1.1/../../../../../H-x86_64-pc-linux-gnu/nios2-elf/lib/mhw-mulx/libc.a(lib_a-findfp.o)
                0x0000000000000560                _cleanup_r
 .text.__fp_unlock
                0x000000000000056c        0x8 /opt/intelFPGA/20.1.1/nios2eds/bin/gnu/H-x86_64-pc-linux-gnu/bin/../lib/gcc/nios2-elf/10.1.1/../../../../../H-x86_64-pc-linux-gnu/nios2-elf/lib/mhw-mulx/libc.a(lib_a-findfp.o)
 .text.__sinit.part.0
                0x0000000000000574      0x168 /opt/intelFPGA/20.1.1/nios2eds/bin/gnu/H-x86_64-pc-linux-gnu/bin/../lib/gcc/nios2-elf/10.1.1/../../../../../H-x86_64-pc-linux-gnu/nios2-elf/lib/mhw-mulx/libc.a(lib_a-findfp.o)
 .text.__sfmoreglue
                0x00000000000006dc       0x68 /opt/intelFPGA/20.1.1/nios2eds/bin/gnu/H-x86_64-pc-linux-gnu/bin/../lib/gcc/nios2-elf/10.1.1/../../../../../H-x86_64-pc-linux-gnu/nios2-elf/lib/mhw-mulx/libc.a(lib_a-findfp.o)
                0x00000000000006dc                __sfmoreglue
 .text.__sfp    0x0000000000000744      0x154 /opt/intelFPGA/20.1.1/nios2eds/bin/gnu/H-x86_64-pc-linux-gnu/bin/../lib/gcc/nios2-elf/10.1.1/../../../../../H-x86_64-pc-linux-gnu/nios2-elf/lib/mhw-mulx/libc.a(lib_a-findfp.o)
                0x0000000000000744                __sfp
 .text._cleanup
                0x0000000000000898       0x14 /opt/intelFPGA/20.1.1/nios2eds/bin/gnu/H-x86_64-pc-linux-gnu/bin/../lib/gcc/nios2-elf/10.1.1/../../../../../H-x86_64-pc-linux-gnu/nios2-elf/lib/mhw-mulx/libc.a(lib_a-findfp.o)
                0x0000000000000898                _cleanup
 .text.__sinit  0x00000000000008ac       0x10 /opt/intelFPGA/20.1.1/nios2eds/bin/gnu/H-x86_64-pc-linux-gnu/bin/../lib/gcc/nios2-elf/10.1.1/../../../../../H-x86_64-pc-linux-gnu/nios2-elf/lib/mhw-mulx/libc.a(lib_a-findfp.o)
                0x00000000000008ac                __sinit
 .text.__sfp_lock_acquire
                0x00000000000008bc        0x4 /opt/intelFPGA/20.1.1/nios2eds/bin/gnu/H-x86_64-pc-linux-gnu/bin/../lib/gcc/nios2-elf/10.1.1/../../../../../H-x86_64-pc-linux-gnu/nios2-elf/lib/mhw-mulx/libc.a(lib_a-findfp.o)
                0x00000000000008bc                __sfp_lock_acquire
 .text.__sfp_lock_release
                0x00000000000008c0        0x4 /opt/intelFPGA/20.1.1/nios2eds/bin/gnu/H-x86_64-pc-linux-gnu/bin/../lib/gcc/nios2-elf/10.1.1/../../../../../H-x86_64-pc-linux-gnu/nios2-elf/lib/mhw-mulx/libc.a(lib_a-findfp.o)
                0x00000000000008c0                __sfp_lock_release
 .text.__sinit_lock_acquire
                0x00000000000008c4        0x4 /opt/intelFPGA/20.1.1/nios2eds/bin/gnu/H-x86_64-pc-linux-gnu/bin/../lib/gcc/nios2-elf/10.1.1/../../../../../H-x86_64-pc-linux-gnu/nios2-elf/lib/mhw-mulx/libc.a(lib_a-findfp.o)
                0x00000000000008c4                __sinit_lock_acquire
 .text.__sinit_lock_release
                0x00000000000008c8        0x4 /opt/intelFPGA/20.1.1/nios2eds/bin/gnu/H-x86_64-pc-linux-gnu/bin/../lib/gcc/nios2-elf/10.1.1/../../../../../H-x86_64-pc-linux-gnu/nios2-elf/lib/mhw-mulx/libc.a(lib_a-findfp.o)
                0x00000000000008c8                __sinit_lock_release
 .text.__fp_lock_all
                0x00000000000008cc       0x14 /opt/intelFPGA/20.1.1/nios2eds/bin/gnu/H-x86_64-pc-linux-gnu/bin/../lib/gcc/nios2-elf/10.1.1/../../../../../H-x86_64-pc-linux-gnu/nios2-elf/lib/mhw-mulx/libc.a(lib_a-findfp.o)
                0x00000000000008cc                __fp_lock_all
 .text.__fp_unlock_all
                0x00000000000008e0       0x14 /opt/intelFPGA/20.1.1/nios2eds/bin/gnu/H-x86_64-pc-linux-gnu/bin/../lib/gcc/nios2-elf/10.1.1/../../../../../H-x86_64-pc-linux-gnu/nios2-elf/lib/mhw-mulx/libc.a(lib_a-findfp.o)
                0x00000000000008e0                __fp_unlock_all
 .text          0x00000000000008f4        0x0 /opt/intelFPGA/20.1.1/nios2eds/bin/gnu/H-x86_64-pc-linux-gnu/bin/../lib/gcc/nios2-elf/10.1.1/../../../../../H-x86_64-pc-linux-gnu/nios2-elf/lib/mhw-mulx/libc.a(lib_a-fvwrite.o)
 .text.__sfvwrite_r
                0x00000000000008f4      0x4b8 /opt/intelFPGA/20.1.1/nios2eds/bin/gnu/H-x86_64-pc-linux-gnu/bin/../lib/gcc/nios2-elf/10.1.1/../../../../../H-x86_64-pc-linux-gnu/nios2-elf/lib/mhw-mulx/libc.a(lib_a-fvwrite.o)
                0x00000000000008f4                __sfvwrite_r
 .text          0x0000000000000dac        0x0 /opt/intelFPGA/20.1.1/nios2eds/bin/gnu/H-x86_64-pc-linux-gnu/bin/../lib/gcc/nios2-elf/10.1.1/../../../../../H-x86_64-pc-linux-gnu/nios2-elf/lib/mhw-mulx/libc.a(lib_a-fwalk.o)
 .text._fwalk   0x0000000000000dac       0x98 /opt/intelFPGA/20.1.1/nios2eds/bin/gnu/H-x86_64-pc-linux-gnu/bin/../lib/gcc/nios2-elf/10.1.1/../../../../../H-x86_64-pc-linux-gnu/nios2-elf/lib/mhw-mulx/libc.a(lib_a-fwalk.o)
                0x0000000000000dac                _fwalk
 .text._fwalk_reent
                0x0000000000000e44       0xa8 /opt/intelFPGA/20.1.1/nios2eds/bin/gnu/H-x86_64-pc-linux-gnu/bin/../lib/gcc/nios2-elf/10.1.1/../../../../../H-x86_64-pc-linux-gnu/nios2-elf/lib/mhw-mulx/libc.a(lib_a-fwalk.o)
                0x0000000000000e44                _fwalk_reent
 .text          0x0000000000000eec        0x0 /opt/intelFPGA/20.1.1/nios2eds/bin/gnu/H-x86_64-pc-linux-gnu/bin/../lib/gcc/nios2-elf/10.1.1/../../../../../H-x86_64-pc-linux-gnu/nios2-elf/lib/mhw-mulx/libc.a(lib_a-impure.o)
 .text          0x0000000000000eec        0x0 /opt/intelFPGA/20.1.1/nios2eds/bin/gnu/H-x86_64-pc-linux-gnu/bin/../lib/gcc/nios2-elf/10.1.1/../../../../../H-x86_64-pc-linux-gnu/nios2-elf/lib/mhw-mulx/libc.a(lib_a-mallocr.o)
 .text._malloc_r
                0x0000000000000eec      0x7e0 /opt/intelFPGA/20.1.1/nios2eds/bin/gnu/H-x86_64-pc-linux-gnu/bin/../lib/gcc/nios2-elf/10.1.1/../../../../../H-x86_64-pc-linux-gnu/nios2-elf/lib/mhw-mulx/libc.a(lib_a-mallocr.o)
                0x0000000000000eec                _malloc_r
 .text          0x00000000000016cc        0x0 /opt/intelFPGA/20.1.1/nios2eds/bin/gnu/H-x86_64-pc-linux-gnu/bin/../lib/gcc/nios2-elf/10.1.1/../../../../../H-x86_64-pc-linux-gnu/nios2-elf/lib/mhw-mulx/libc.a(lib_a-memchr.o)
 .text.memchr   0x00000000000016cc       0xd0 /opt/intelFPGA/20.1.1/nios2eds/bin/gnu/H-x86_64-pc-linux-gnu/bin/../lib/gcc/nios2-elf/10.1.1/../../../../../H-x86_64-pc-linux-gnu/nios2-elf/lib/mhw-mulx/libc.a(lib_a-memchr.o)
                0x00000000000016cc                memchr
 .text          0x000000000000179c        0x0 /opt/intelFPGA/20.1.1/nios2eds/bin/gnu/H-x86_64-pc-linux-gnu/bin/../lib/gcc/nios2-elf/10.1.1/../../../../../H-x86_64-pc-linux-gnu/nios2-elf/lib/mhw-mulx/libc.a(lib_a-memcpy.o)
 .text.memcpy   0x000000000000179c      0x100 /opt/intelFPGA/20.1.1/nios2eds/bin/gnu/H-x86_64-pc-linux-gnu/bin/../lib/gcc/nios2-elf/10.1.1/../../../../../H-x86_64-pc-linux-gnu/nios2-elf/lib/mhw-mulx/libc.a(lib_a-memcpy.o)
                0x000000000000179c                memcpy
 .text          0x000000000000189c        0x0 /opt/intelFPGA/20.1.1/nios2eds/bin/gnu/H-x86_64-pc-linux-gnu/bin/../lib/gcc/nios2-elf/10.1.1/../../../../../H-x86_64-pc-linux-gnu/nios2-elf/lib/mhw-mulx/libc.a(lib_a-memmove.o)
 .text.memmove  0x000000000000189c      0x12c /opt/intelFPGA/20.1.1/nios2eds/bin/gnu/H-x86_64-pc-linux-gnu/bin/../lib/gcc/nios2-elf/10.1.1/../../../../../H-x86_64-pc-linux-gnu/nios2-elf/lib/mhw-mulx/libc.a(lib_a-memmove.o)
                0x000000000000189c                memmove
 .text          0x00000000000019c8        0x0 /opt/intelFPGA/20.1.1/nios2eds/bin/gnu/H-x86_64-pc-linux-gnu/bin/../lib/gcc/nios2-elf/10.1.1/../../../../../H-x86_64-pc-linux-gnu/nios2-elf/lib/mhw-mulx/libc.a(lib_a-memset.o)
 .text.memset   0x00000000000019c8       0xf0 /opt/intelFPGA/20.1.1/nios2eds/bin/gnu/H-x86_64-pc-linux-gnu/bin/../lib/gcc/nios2-elf/10.1.1/../../../../../H-x86_64-pc-linux-gnu/nios2-elf/lib/mhw-mulx/libc.a(lib_a-memset.o)
                0x00000000000019c8                memset
 .text          0x0000000000001ab8        0x0 /opt/intelFPGA/20.1.1/nios2eds/bin/gnu/H-x86_64-pc-linux-gnu/bin/../lib/gcc/nios2-elf/10.1.1/../../../../../H-x86_64-pc-linux-gnu/nios2-elf/lib/mhw-mulx/libc.a(lib_a-reallocr.o)
 .text._realloc_r
                0x0000000000001ab8      0x564 /opt/intelFPGA/20.1.1/nios2eds/bin/gnu/H-x86_64-pc-linux-gnu/bin/../lib/gcc/nios2-elf/10.1.1/../../../../../H-x86_64-pc-linux-gnu/nios2-elf/lib/mhw-mulx/libc.a(lib_a-reallocr.o)
                0x0000000000001ab8                _realloc_r
 .text          0x000000000000201c        0x0 /opt/intelFPGA/20.1.1/nios2eds/bin/gnu/H-x86_64-pc-linux-gnu/bin/../lib/gcc/nios2-elf/10.1.1/../../../../../H-x86_64-pc-linux-gnu/nios2-elf/lib/mhw-mulx/libc.a(lib_a-sbrkr.o)
 .text._sbrk_r  0x000000000000201c       0x58 /opt/intelFPGA/20.1.1/nios2eds/bin/gnu/H-x86_64-pc-linux-gnu/bin/../lib/gcc/nios2-elf/10.1.1/../../../../../H-x86_64-pc-linux-gnu/nios2-elf/lib/mhw-mulx/libc.a(lib_a-sbrkr.o)
                0x000000000000201c                _sbrk_r
 .text          0x0000000000002074        0x0 /opt/intelFPGA/20.1.1/nios2eds/bin/gnu/H-x86_64-pc-linux-gnu/bin/../lib/gcc/nios2-elf/10.1.1/../../../../../H-x86_64-pc-linux-gnu/nios2-elf/lib/mhw-mulx/libc.a(lib_a-stdio.o)
 .text.__sread  0x0000000000002074       0x54 /opt/intelFPGA/20.1.1/nios2eds/bin/gnu/H-x86_64-pc-linux-gnu/bin/../lib/gcc/nios2-elf/10.1.1/../../../../../H-x86_64-pc-linux-gnu/nios2-elf/lib/mhw-mulx/libc.a(lib_a-stdio.o)
                0x0000000000002074                __sread
 .text.__seofread
                0x00000000000020c8        0x8 /opt/intelFPGA/20.1.1/nios2eds/bin/gnu/H-x86_64-pc-linux-gnu/bin/../lib/gcc/nios2-elf/10.1.1/../../../../../H-x86_64-pc-linux-gnu/nios2-elf/lib/mhw-mulx/libc.a(lib_a-stdio.o)
                0x00000000000020c8                __seofread
 .text.__swrite
                0x00000000000020d0       0x80 /opt/intelFPGA/20.1.1/nios2eds/bin/gnu/H-x86_64-pc-linux-gnu/bin/../lib/gcc/nios2-elf/10.1.1/../../../../../H-x86_64-pc-linux-gnu/nios2-elf/lib/mhw-mulx/libc.a(lib_a-stdio.o)
                0x00000000000020d0                __swrite
 .text.__sseek  0x0000000000002150       0x5c /opt/intelFPGA/20.1.1/nios2eds/bin/gnu/H-x86_64-pc-linux-gnu/bin/../lib/gcc/nios2-elf/10.1.1/../../../../../H-x86_64-pc-linux-gnu/nios2-elf/lib/mhw-mulx/libc.a(lib_a-stdio.o)
                0x0000000000002150                __sseek
 .text.__sclose
                0x00000000000021ac        0x8 /opt/intelFPGA/20.1.1/nios2eds/bin/gnu/H-x86_64-pc-linux-gnu/bin/../lib/gcc/nios2-elf/10.1.1/../../../../../H-x86_64-pc-linux-gnu/nios2-elf/lib/mhw-mulx/libc.a(lib_a-stdio.o)
                0x00000000000021ac                __sclose
 .text          0x00000000000021b4        0x0 /opt/intelFPGA/20.1.1/nios2eds/bin/gnu/H-x86_64-pc-linux-gnu/bin/../lib/gcc/nios2-elf/10.1.1/../../../../../H-x86_64-pc-linux-gnu/nios2-elf/lib/mhw-mulx/libc.a(lib_a-writer.o)
 .text._write_r
                0x00000000000021b4       0x64 /opt/intelFPGA/20.1.1/nios2eds/bin/gnu/H-x86_64-pc-linux-gnu/bin/../lib/gcc/nios2-elf/10.1.1/../../../../../H-x86_64-pc-linux-gnu/nios2-elf/lib/mhw-mulx/libc.a(lib_a-writer.o)
                0x00000000000021b4                _write_r
 .text          0x0000000000002218        0x0 /opt/intelFPGA/20.1.1/nios2eds/bin/gnu/H-x86_64-pc-linux-gnu/bin/../lib/gcc/nios2-elf/10.1.1/../../../../../H-x86_64-pc-linux-gnu/nios2-elf/lib/mhw-mulx/libc.a(lib_a-wsetup.o)
 .text.__swsetup_r
                0x0000000000002218      0x164 /opt/intelFPGA/20.1.1/nios2eds/bin/gnu/H-x86_64-pc-linux-gnu/bin/../lib/gcc/nios2-elf/10.1.1/../../../../../H-x86_64-pc-linux-gnu/nios2-elf/lib/mhw-mulx/libc.a(lib_a-wsetup.o)
                0x0000000000002218                __swsetup_r
 .text          0x000000000000237c        0x0 /opt/intelFPGA/20.1.1/nios2eds/bin/gnu/H-x86_64-pc-linux-gnu/bin/../lib/gcc/nios2-elf/10.1.1/../../../../../H-x86_64-pc-linux-gnu/nios2-elf/lib/mhw-mulx/libc.a(closer.o)
 .text._close_r
                0x000000000000237c       0x58 /opt/intelFPGA/20.1.1/nios2eds/bin/gnu/H-x86_64-pc-linux-gnu/bin/../lib/gcc/nios2-elf/10.1.1/../../../../../H-x86_64-pc-linux-gnu/nios2-elf/lib/mhw-mulx/libc.a(closer.o)
                0x000000000000237c                _close_r
 .text          0x00000000000023d4        0x0 /opt/intelFPGA/20.1.1/nios2eds/bin/gnu/H-x86_64-pc-linux-gnu/bin/../lib/gcc/nios2-elf/10.1.1/../../../../../H-x86_64-pc-linux-gnu/nios2-elf/lib/mhw-mulx/libc.a(lib_a-fclose.o)
 .text._fclose_r.part.0
                0x00000000000023d4       0xc0 /opt/intelFPGA/20.1.1/nios2eds/bin/gnu/H-x86_64-pc-linux-gnu/bin/../lib/gcc/nios2-elf/10.1.1/../../../../../H-x86_64-pc-linux-gnu/nios2-elf/lib/mhw-mulx/libc.a(lib_a-fclose.o)
 .text._fclose_r
                0x0000000000002494       0x70 /opt/intelFPGA/20.1.1/nios2eds/bin/gnu/H-x86_64-pc-linux-gnu/bin/../lib/gcc/nios2-elf/10.1.1/../../../../../H-x86_64-pc-linux-gnu/nios2-elf/lib/mhw-mulx/libc.a(lib_a-fclose.o)
                0x0000000000002494                _fclose_r
 .text.fclose   0x0000000000002504       0x70 /opt/intelFPGA/20.1.1/nios2eds/bin/gnu/H-x86_64-pc-linux-gnu/bin/../lib/gcc/nios2-elf/10.1.1/../../../../../H-x86_64-pc-linux-gnu/nios2-elf/lib/mhw-mulx/libc.a(lib_a-fclose.o)
                0x0000000000002504                fclose
 .text          0x0000000000002574        0x0 /opt/intelFPGA/20.1.1/nios2eds/bin/gnu/H-x86_64-pc-linux-gnu/bin/../lib/gcc/nios2-elf/10.1.1/../../../../../H-x86_64-pc-linux-gnu/nios2-elf/lib/mhw-mulx/libc.a(lib_a-fflush.o)
 .text.__sflush_r
                0x0000000000002574      0x228 /opt/intelFPGA/20.1.1/nios2eds/bin/gnu/H-x86_64-pc-linux-gnu/bin/../lib/gcc/nios2-elf/10.1.1/../../../../../H-x86_64-pc-linux-gnu/nios2-elf/lib/mhw-mulx/libc.a(lib_a-fflush.o)
                0x0000000000002574                __sflush_r
 .text._fflush_r
                0x000000000000279c       0x60 /opt/intelFPGA/20.1.1/nios2eds/bin/gnu/H-x86_64-pc-linux-gnu/bin/../lib/gcc/nios2-elf/10.1.1/../../../../../H-x86_64-pc-linux-gnu/nios2-elf/lib/mhw-mulx/libc.a(lib_a-fflush.o)
                0x000000000000279c                _fflush_r
 .text.fflush   0x00000000000027fc       0x84 /opt/intelFPGA/20.1.1/nios2eds/bin/gnu/H-x86_64-pc-linux-gnu/bin/../lib/gcc/nios2-elf/10.1.1/../../../../../H-x86_64-pc-linux-gnu/nios2-elf/lib/mhw-mulx/libc.a(lib_a-fflush.o)
                0x00000000000027fc                fflush
 .text          0x0000000000002880        0x0 /opt/intelFPGA/20.1.1/nios2eds/bin/gnu/H-x86_64-pc-linux-gnu/bin/../lib/gcc/nios2-elf/10.1.1/../../../../../H-x86_64-pc-linux-gnu/nios2-elf/lib/mhw-mulx/libc.a(lib_a-freer.o)
 .text._malloc_trim_r
                0x0000000000002880      0x11c /opt/intelFPGA/20.1.1/nios2eds/bin/gnu/H-x86_64-pc-linux-gnu/bin/../lib/gcc/nios2-elf/10.1.1/../../../../../H-x86_64-pc-linux-gnu/nios2-elf/lib/mhw-mulx/libc.a(lib_a-freer.o)
                0x0000000000002880                _malloc_trim_r
 .text._free_r  0x000000000000299c      0x2fc /opt/intelFPGA/20.1.1/nios2eds/bin/gnu/H-x86_64-pc-linux-gnu/bin/../lib/gcc/nios2-elf/10.1.1/../../../../../H-x86_64-pc-linux-gnu/nios2-elf/lib/mhw-mulx/libc.a(lib_a-freer.o)
                0x000000000000299c                _free_r
 .text          0x0000000000002c98        0x0 /opt/intelFPGA/20.1.1/nios2eds/bin/gnu/H-x86_64-pc-linux-gnu/bin/../lib/gcc/nios2-elf/10.1.1/../../../../../H-x86_64-pc-linux-gnu/nios2-elf/lib/mhw-mulx/libc.a(lib_a-int_errno.o)
 .text          0x0000000000002c98        0x0 /opt/intelFPGA/20.1.1/nios2eds/bin/gnu/H-x86_64-pc-linux-gnu/bin/../lib/gcc/nios2-elf/10.1.1/../../../../../H-x86_64-pc-linux-gnu/nios2-elf/lib/mhw-mulx/libc.a(lib_a-lseekr.o)
 .text._lseek_r
                0x0000000000002c98       0x64 /opt/intelFPGA/20.1.1/nios2eds/bin/gnu/H-x86_64-pc-linux-gnu/bin/../lib/gcc/nios2-elf/10.1.1/../../../../../H-x86_64-pc-linux-gnu/nios2-elf/lib/mhw-mulx/libc.a(lib_a-lseekr.o)
                0x0000000000002c98                _lseek_r
 .text          0x0000000000002cfc        0x0 /opt/intelFPGA/20.1.1/nios2eds/bin/gnu/H-x86_64-pc-linux-gnu/bin/../lib/gcc/nios2-elf/10.1.1/../../../../../H-x86_64-pc-linux-gnu/nios2-elf/lib/mhw-mulx/libc.a(lib_a-makebuf.o)
 .text.__smakebuf_r
                0x0000000000002cfc      0x1b0 /opt/intelFPGA/20.1.1/nios2eds/bin/gnu/H-x86_64-pc-linux-gnu/bin/../lib/gcc/nios2-elf/10.1.1/../../../../../H-x86_64-pc-linux-gnu/nios2-elf/lib/mhw-mulx/libc.a(lib_a-makebuf.o)
                0x0000000000002cfc                __smakebuf_r
 .text.__swhatbuf_r
                0x0000000000002eac       0x98 /opt/intelFPGA/20.1.1/nios2eds/bin/gnu/H-x86_64-pc-linux-gnu/bin/../lib/gcc/nios2-elf/10.1.1/../../../../../H-x86_64-pc-linux-gnu/nios2-elf/lib/mhw-mulx/libc.a(lib_a-makebuf.o)
                0x0000000000002eac                __swhatbuf_r
 .text          0x0000000000002f44        0x0 /opt/intelFPGA/20.1.1/nios2eds/bin/gnu/H-x86_64-pc-linux-gnu/bin/../lib/gcc/nios2-elf/10.1.1/../../../../../H-x86_64-pc-linux-gnu/nios2-elf/lib/mhw-mulx/libc.a(lib_a-readr.o)
 .text._read_r  0x0000000000002f44       0x64 /opt/intelFPGA/20.1.1/nios2eds/bin/gnu/H-x86_64-pc-linux-gnu/bin/../lib/gcc/nios2-elf/10.1.1/../../../../../H-x86_64-pc-linux-gnu/nios2-elf/lib/mhw-mulx/libc.a(lib_a-readr.o)
                0x0000000000002f44                _read_r
 .text          0x0000000000002fa8        0x0 /opt/intelFPGA/20.1.1/nios2eds/bin/gnu/H-x86_64-pc-linux-gnu/bin/../lib/gcc/nios2-elf/10.1.1/../../../../../H-x86_64-pc-linux-gnu/nios2-elf/lib/mhw-mulx/libc.a(lib_a-fstatr.o)
 .text._fstat_r
                0x0000000000002fa8       0x60 /opt/intelFPGA/20.1.1/nios2eds/bin/gnu/H-x86_64-pc-linux-gnu/bin/../lib/gcc/nios2-elf/10.1.1/../../../../../H-x86_64-pc-linux-gnu/nios2-elf/lib/mhw-mulx/libc.a(lib_a-fstatr.o)
                0x0000000000002fa8                _fstat_r
 .text          0x0000000000003008        0x0 /opt/intelFPGA/20.1.1/nios2eds/bin/gnu/H-x86_64-pc-linux-gnu/bin/../lib/gcc/nios2-elf/10.1.1/../../../../../H-x86_64-pc-linux-gnu/nios2-elf/lib/mhw-mulx/libc.a(lib_a-isattyr.o)
 .text._isatty_r
                0x0000000000003008       0x58 /opt/intelFPGA/20.1.1/nios2eds/bin/gnu/H-x86_64-pc-linux-gnu/bin/../lib/gcc/nios2-elf/10.1.1/../../../../../H-x86_64-pc-linux-gnu/nios2-elf/lib/mhw-mulx/libc.a(lib_a-isattyr.o)
                0x0000000000003008                _isatty_r
 .text          0x0000000000003060      0x1b4 /opt/intelFPGA/20.1.1/nios2eds/bin/gnu/H-x86_64-pc-linux-gnu/bin/../lib/gcc/nios2-elf/10.1.1/mhw-mulx/libgcc.a(lib2-divmod.o)
                0x0000000000003060                __divsi3
                0x00000000000030e0                __modsi3
                0x0000000000003154                __udivsi3
                0x00000000000031b8                __umodsi3
 .text          0x0000000000003214      0x10c /home/xix277/engr-ece/Winter_Sem_2022/CME332/asn_test/test_prob_6_bsp//libucosii_bsp.a(alt_close.o)
                0x0000000000003250                close
 .text          0x0000000000003320       0x2c /home/xix277/engr-ece/Winter_Sem_2022/CME332/asn_test/test_prob_6_bsp//libucosii_bsp.a(alt_dev.o)
 .text          0x000000000000334c        0x0 /home/xix277/engr-ece/Winter_Sem_2022/CME332/asn_test/test_prob_6_bsp//libucosii_bsp.a(alt_errno.o)
 .text          0x000000000000334c       0xec /home/xix277/engr-ece/Winter_Sem_2022/CME332/asn_test/test_prob_6_bsp//libucosii_bsp.a(alt_fstat.o)
                0x0000000000003388                fstat
 .text          0x0000000000003438       0xe0 /home/xix277/engr-ece/Winter_Sem_2022/CME332/asn_test/test_prob_6_bsp//libucosii_bsp.a(alt_isatty.o)
                0x0000000000003474                isatty
 .text          0x0000000000003518       0xec /home/xix277/engr-ece/Winter_Sem_2022/CME332/asn_test/test_prob_6_bsp//libucosii_bsp.a(alt_load.o)
                0x0000000000003580                alt_load
 .text          0x0000000000003604      0x110 /home/xix277/engr-ece/Winter_Sem_2022/CME332/asn_test/test_prob_6_bsp//libucosii_bsp.a(alt_lseek.o)
                0x0000000000003640                lseek
 .text          0x0000000000003714       0xc0 /home/xix277/engr-ece/Winter_Sem_2022/CME332/asn_test/test_prob_6_bsp//libucosii_bsp.a(alt_main.o)
                0x0000000000003714                alt_main
 .text          0x00000000000037d4      0x138 /home/xix277/engr-ece/Winter_Sem_2022/CME332/asn_test/test_prob_6_bsp//libucosii_bsp.a(alt_read.o)
                0x0000000000003810                read
 .text          0x000000000000390c       0x58 /home/xix277/engr-ece/Winter_Sem_2022/CME332/asn_test/test_prob_6_bsp//libucosii_bsp.a(alt_release_fd.o)
                0x000000000000390c                alt_release_fd
 .text          0x0000000000003964       0xb8 /home/xix277/engr-ece/Winter_Sem_2022/CME332/asn_test/test_prob_6_bsp//libucosii_bsp.a(alt_sbrk.o)
                0x0000000000003964                sbrk
 .text          0x0000000000003a1c      0x134 /home/xix277/engr-ece/Winter_Sem_2022/CME332/asn_test/test_prob_6_bsp//libucosii_bsp.a(alt_write.o)
                0x0000000000003a58                write
 .text          0x0000000000003b50      0x120 /home/xix277/engr-ece/Winter_Sem_2022/CME332/asn_test/test_prob_6_bsp//libucosii_bsp.a(alt_env_lock.o)
                0x0000000000003b50                __env_lock
                0x0000000000003c10                __env_unlock
 .text          0x0000000000003c70      0x1fc /home/xix277/engr-ece/Winter_Sem_2022/CME332/asn_test/test_prob_6_bsp//libucosii_bsp.a(alt_malloc_lock.o)
                0x0000000000003c70                __malloc_lock
                0x0000000000003d98                __malloc_unlock
 .text          0x0000000000003e6c     0x2040 /home/xix277/engr-ece/Winter_Sem_2022/CME332/asn_test/test_prob_6_bsp//libucosii_bsp.a(os_core.o)
                0x0000000000003e6c                OSEventNameGet
                0x0000000000003f90                OSEventNameSet
                0x00000000000040d8                OSEventPendMulti
                0x0000000000004710                OSInit
                0x0000000000004768                OSIntEnter
                0x00000000000047b4                OSIntExit
                0x00000000000048a8                OSSchedLock
                0x0000000000004938                OSSchedUnlock
                0x0000000000004a1c                OSStart
                0x0000000000004a84                OSStatInit
                0x0000000000004b3c                OSTimeTick
                0x0000000000004d70                OSVersion
                0x0000000000004d90                OS_Dummy
                0x0000000000004db0                OS_EventTaskRdy
                0x0000000000004f38                OS_EventTaskWait
                0x0000000000005040                OS_EventTaskWaitMulti
                0x0000000000005188                OS_EventTaskRemove
                0x0000000000005238                OS_EventTaskRemoveMulti
                0x0000000000005334                OS_EventWaitListInit
                0x0000000000005720                OS_MemClr
                0x0000000000005778                OS_MemCopy
                0x00000000000057e4                OS_Sched
                0x000000000000591c                OS_StrCopy
                0x0000000000005990                OS_StrLen
                0x00000000000059e4                OS_TaskIdle
                0x0000000000005a44                OS_TaskStat
                0x0000000000005b08                OS_TaskStatStkChk
                0x0000000000005bcc                OS_TCBInit
 .text          0x0000000000005eac      0x190 /home/xix277/engr-ece/Winter_Sem_2022/CME332/asn_test/test_prob_6_bsp//libucosii_bsp.a(os_dbg.o)
                0x0000000000005eac                OSDebugInit
 .text          0x000000000000603c     0x17c4 /home/xix277/engr-ece/Winter_Sem_2022/CME332/asn_test/test_prob_6_bsp//libucosii_bsp.a(os_flag.o)
                0x000000000000603c                OSFlagAccept
                0x0000000000006360                OSFlagCreate
                0x0000000000006470                OSFlagDel
                0x00000000000066c8                OSFlagNameGet
                0x00000000000067f8                OSFlagNameSet
                0x000000000000694c                OSFlagPend
                0x0000000000006f4c                OSFlagPendGetFlagsRdy
                0x0000000000006fb0                OSFlagPost
                0x000000000000735c                OSFlagQuery
                0x0000000000007588                OS_FlagInit
                0x000000000000775c                OS_FlagUnlink
 .text          0x0000000000007800      0x778 /home/xix277/engr-ece/Winter_Sem_2022/CME332/asn_test/test_prob_6_bsp//libucosii_bsp.a(os_mem.o)
                0x0000000000007800                OSMemCreate
                0x00000000000079d8                OSMemGet
                0x0000000000007ad0                OSMemNameGet
                0x0000000000007bc4                OSMemNameSet
                0x0000000000007ce0                OSMemPut
                0x0000000000007dc0                OSMemQuery
                0x0000000000007eac                OS_MemInit
 .text          0x0000000000007f78     0x115c /home/xix277/engr-ece/Winter_Sem_2022/CME332/asn_test/test_prob_6_bsp//libucosii_bsp.a(os_q.o)
                0x0000000000007f78                OSQAccept
                0x00000000000080bc                OSQCreate
                0x000000000000826c                OSQDel
                0x00000000000084fc                OSQFlush
                0x00000000000085b8                OSQPend
                0x0000000000008850                OSQPendAbort
                0x00000000000089c4                OSQPost
                0x0000000000008b38                OSQPostFront
                0x0000000000008cb4                OSQPostOpt
                0x0000000000008ecc                OSQQuery
                0x000000000000902c                OS_QInit
 .text          0x00000000000090d4      0xa98 /home/xix277/engr-ece/Winter_Sem_2022/CME332/asn_test/test_prob_6_bsp//libucosii_bsp.a(os_sem.o)
                0x00000000000090d4                OSSemAccept
                0x0000000000009188                OSSemCreate
                0x0000000000009264                OSSemDel
                0x00000000000094b4                OSSemPend
                0x00000000000096c8                OSSemPendAbort
                0x000000000000983c                OSSemPost
                0x0000000000009958                OSSemQuery
                0x0000000000009a6c                OSSemSet
 .text          0x0000000000009b6c     0x1750 /home/xix277/engr-ece/Winter_Sem_2022/CME332/asn_test/test_prob_6_bsp//libucosii_bsp.a(os_task.o)
                0x0000000000009b6c                OSTaskChangePrio
                0x000000000000a030                OSTaskCreate
                0x000000000000a1d4                OSTaskCreateExt
                0x000000000000a3b0                OSTaskDel
                0x000000000000a6f4                OSTaskDelReq
                0x000000000000a84c                OSTaskNameGet
                0x000000000000a9e8                OSTaskNameSet
                0x000000000000aba4                OSTaskResume
                0x000000000000ad84                OSTaskStkChk
                0x000000000000af3c                OSTaskSuspend
                0x000000000000b124                OSTaskQuery
                0x000000000000b24c                OS_TaskStkClr
 .text          0x000000000000b2bc      0x500 /home/xix277/engr-ece/Winter_Sem_2022/CME332/asn_test/test_prob_6_bsp//libucosii_bsp.a(os_time.o)
                0x000000000000b2bc                OSTimeDly
                0x000000000000b3c4                OSTimeDlyHMSM
                0x000000000000b518                OSTimeDlyResume
                0x000000000000b6f8                OSTimeGet
                0x000000000000b758                OSTimeSet
 .text          0x000000000000b7bc      0x844 /home/xix277/engr-ece/Winter_Sem_2022/CME332/asn_test/test_prob_6_bsp//libucosii_bsp.a(alt_sys_init.o)
                0x000000000000b7f0                alt_irq_init
                0x000000000000b82c                alt_sys_init
 .text          0x000000000000c000      0x164 /home/xix277/engr-ece/Winter_Sem_2022/CME332/asn_test/test_prob_6_bsp//libucosii_bsp.a(altera_avalon_jtag_uart_fd.o)
                0x000000000000c000                altera_avalon_jtag_uart_read_fd
                0x000000000000c060                altera_avalon_jtag_uart_write_fd
                0x000000000000c0c0                altera_avalon_jtag_uart_close_fd
                0x000000000000c110                altera_avalon_jtag_uart_ioctl_fd
 .text          0x000000000000c164      0x568 /home/xix277/engr-ece/Winter_Sem_2022/CME332/asn_test/test_prob_6_bsp//libucosii_bsp.a(altera_avalon_jtag_uart_init.o)
                0x000000000000c164                altera_avalon_jtag_uart_init
                0x000000000000c664                altera_avalon_jtag_uart_close
 .text          0x000000000000c6cc       0xf4 /home/xix277/engr-ece/Winter_Sem_2022/CME332/asn_test/test_prob_6_bsp//libucosii_bsp.a(altera_avalon_jtag_uart_ioctl.o)
                0x000000000000c6cc                altera_avalon_jtag_uart_ioctl
 .text          0x000000000000c7c0      0x2c8 /home/xix277/engr-ece/Winter_Sem_2022/CME332/asn_test/test_prob_6_bsp//libucosii_bsp.a(altera_avalon_jtag_uart_read.o)
                0x000000000000c7c0                altera_avalon_jtag_uart_read
 .text          0x000000000000ca88      0x2d0 /home/xix277/engr-ece/Winter_Sem_2022/CME332/asn_test/test_prob_6_bsp//libucosii_bsp.a(altera_avalon_jtag_uart_write.o)
                0x000000000000ca88                altera_avalon_jtag_uart_write
 .text          0x000000000000cd58       0xfc /home/xix277/engr-ece/Winter_Sem_2022/CME332/asn_test/test_prob_6_bsp//libucosii_bsp.a(altera_avalon_timer_sc.o)
                0x000000000000cdd8                alt_avalon_timer_sc_init
 .text          0x000000000000ce54      0x4fc /home/xix277/engr-ece/Winter_Sem_2022/CME332/asn_test/test_prob_6_bsp//libucosii_bsp.a(altera_up_avalon_character_lcd.o)
                0x000000000000ce54                get_DDRAM_addr
                0x000000000000cec8                alt_up_character_lcd_send_cmd
                0x000000000000cf08                alt_up_character_lcd_init
                0x000000000000cf40                alt_up_character_lcd_open_dev
                0x000000000000cf7c                alt_up_character_lcd_write
                0x000000000000cffc                alt_up_character_lcd_string
                0x000000000000d078                alt_up_character_lcd_write_fd
                0x000000000000d0c8                alt_up_character_lcd_set_cursor_pos
                0x000000000000d13c                alt_up_character_lcd_shift_cursor
                0x000000000000d1c8                alt_up_character_lcd_shift_display
                0x000000000000d254                alt_up_character_lcd_erase_pos
                0x000000000000d2e0                alt_up_character_lcd_cursor_off
                0x000000000000d318                alt_up_character_lcd_cursor_blink_on
 .text          0x000000000000d350      0x38c /home/xix277/engr-ece/Winter_Sem_2022/CME332/asn_test/test_prob_6_bsp//libucosii_bsp.a(altera_up_avalon_irda.o)
                0x000000000000d350                alt_up_irda_enable_read_interrupt
                0x000000000000d3ac                alt_up_irda_disable_read_interrupt
                0x000000000000d40c                alt_up_irda_get_used_space_in_read_FIFO
                0x000000000000d44c                alt_up_irda_get_available_space_in_write_FIFO
                0x000000000000d488                alt_up_irda_check_parity
                0x000000000000d4cc                alt_up_irda_write_data
                0x000000000000d50c                alt_up_irda_read_data
                0x000000000000d580                alt_up_irda_read_fd
                0x000000000000d610                alt_up_irda_write_fd
                0x000000000000d6a0                alt_up_irda_open_dev
 .text          0x000000000000d6dc      0x6b4 /home/xix277/engr-ece/Winter_Sem_2022/CME332/asn_test/test_prob_6_bsp//libucosii_bsp.a(altera_up_avalon_ps2.o)
                0x000000000000d6dc                read_RI_bit
                0x000000000000d710                read_RE_bit
                0x000000000000d740                read_CE_bit
                0x000000000000d774                read_num_bytes_available
                0x000000000000d7a4                read_data_valid
                0x000000000000d7d8                read_data_byte
                0x000000000000d804                alt_up_ps2_init
                0x000000000000d8cc                alt_up_ps2_enable_read_interrupt
                0x000000000000d928                alt_up_ps2_disable_read_interrupt
                0x000000000000d988                alt_up_ps2_write_data_byte
                0x000000000000d9fc                alt_up_ps2_wait_for_ack
                0x000000000000da64                alt_up_ps2_write_data_byte_with_ack
                0x000000000000dac8                alt_up_ps2_read_data_byte_timeout
                0x000000000000db64                alt_up_ps2_read_data_byte
                0x000000000000dbd4                alt_up_ps2_clear_fifo
                0x000000000000dc30                alt_up_ps2_read_fd
                0x000000000000dcbc                alt_up_ps2_write_fd
                0x000000000000dd54                alt_up_ps2_open_dev
 .text          0x000000000000dd90      0x390 /home/xix277/engr-ece/Winter_Sem_2022/CME332/asn_test/test_prob_6_bsp//libucosii_bsp.a(altera_up_avalon_rs232.o)
                0x000000000000dd90                alt_up_rs232_enable_read_interrupt
                0x000000000000ddec                alt_up_rs232_disable_read_interrupt
                0x000000000000de4c                alt_up_rs232_get_used_space_in_read_FIFO
                0x000000000000de8c                alt_up_rs232_get_available_space_in_write_FIFO
                0x000000000000dec8                alt_up_rs232_check_parity
                0x000000000000df0c                alt_up_rs232_write_data
                0x000000000000df4c                alt_up_rs232_read_data
                0x000000000000dfc0                alt_up_rs232_read_fd
                0x000000000000e050                alt_up_rs232_write_fd
                0x000000000000e0e4                alt_up_rs232_open_dev
 .text          0x000000000000e120      0x134 /home/xix277/engr-ece/Winter_Sem_2022/CME332/asn_test/test_prob_6_bsp//libucosii_bsp.a(alt_alarm_start.o)
                0x000000000000e120                alt_alarm_start
 .text          0x000000000000e254       0x20 /home/xix277/engr-ece/Winter_Sem_2022/CME332/asn_test/test_prob_6_bsp//libucosii_bsp.a(alt_dcache_flush_all.o)
                0x000000000000e254                alt_dcache_flush_all
 .text          0x000000000000e274       0xe4 /home/xix277/engr-ece/Winter_Sem_2022/CME332/asn_test/test_prob_6_bsp//libucosii_bsp.a(alt_dev_llist_insert.o)
                0x000000000000e2b0                alt_dev_llist_insert
 .text          0x000000000000e358       0x64 /home/xix277/engr-ece/Winter_Sem_2022/CME332/asn_test/test_prob_6_bsp//libucosii_bsp.a(alt_do_ctors.o)
                0x000000000000e358                _do_ctors
 .text          0x000000000000e3bc       0x64 /home/xix277/engr-ece/Winter_Sem_2022/CME332/asn_test/test_prob_6_bsp//libucosii_bsp.a(alt_do_dtors.o)
                0x000000000000e3bc                _do_dtors
 .text          0x000000000000e420       0x90 /home/xix277/engr-ece/Winter_Sem_2022/CME332/asn_test/test_prob_6_bsp//libucosii_bsp.a(alt_find_dev.o)
                0x000000000000e420                alt_find_dev
 .text          0x000000000000e4b0       0x34 /home/xix277/engr-ece/Winter_Sem_2022/CME332/asn_test/test_prob_6_bsp//libucosii_bsp.a(alt_icache_flush_all.o)
                0x000000000000e4b0                alt_icache_flush_all
 .text          0x000000000000e4e4      0x12c /home/xix277/engr-ece/Winter_Sem_2022/CME332/asn_test/test_prob_6_bsp//libucosii_bsp.a(alt_io_redirect.o)
                0x000000000000e594                alt_io_redirect
 .text          0x000000000000e610      0x180 /home/xix277/engr-ece/Winter_Sem_2022/CME332/asn_test/test_prob_6_bsp//libucosii_bsp.a(alt_irq_register.o)
                0x000000000000e610                alt_irq_register
 .text          0x000000000000e790        0x0 /home/xix277/engr-ece/Winter_Sem_2022/CME332/asn_test/test_prob_6_bsp//libucosii_bsp.a(alt_irq_vars.o)
 .text          0x000000000000e790      0x248 /home/xix277/engr-ece/Winter_Sem_2022/CME332/asn_test/test_prob_6_bsp//libucosii_bsp.a(alt_open.o)
                0x000000000000e884                open
 .text          0x000000000000e9d8      0x1ac /home/xix277/engr-ece/Winter_Sem_2022/CME332/asn_test/test_prob_6_bsp//libucosii_bsp.a(alt_tick.o)
                0x000000000000e9d8                alt_alarm_stop
                0x000000000000ea7c                alt_tick
 .text          0x000000000000eb84       0x24 /home/xix277/engr-ece/Winter_Sem_2022/CME332/asn_test/test_prob_6_bsp//libucosii_bsp.a(altera_nios2_gen2_irq.o)
                0x000000000000eb84                altera_nios2_gen2_irq_init
 .text          0x000000000000eba8       0xd0 /home/xix277/engr-ece/Winter_Sem_2022/CME332/asn_test/test_prob_6_bsp//libucosii_bsp.a(os_cpu_a.o)
                0x000000000000eba8                OSCtxSw
                0x000000000000eba8                OSIntCtxSw
                0x000000000000ec34                OSStartHighRdy
                0x000000000000ec54                OSStartTsk
 .text          0x000000000000ec78      0x278 /home/xix277/engr-ece/Winter_Sem_2022/CME332/asn_test/test_prob_6_bsp//libucosii_bsp.a(os_cpu_c.o)
                0x000000000000ec78                OSTaskStkInit
                0x000000000000edc4                OSTaskCreateHook
                0x000000000000ede8                OSTaskDelHook
                0x000000000000ee0c                OSTaskSwHook
                0x000000000000ee2c                OSTaskStatHook
                0x000000000000ee4c                OSTimeTickHook
                0x000000000000ee6c                OSInitHookBegin
                0x000000000000ee8c                OSInitHookEnd
                0x000000000000eeac                OSTaskIdleHook
                0x000000000000eecc                OSTCBInitHook
 .text          0x000000000000eef0      0x108 /home/xix277/engr-ece/Winter_Sem_2022/CME332/asn_test/test_prob_6_bsp//libucosii_bsp.a(alt_find_file.o)
                0x000000000000eef0                alt_find_file
 .text          0x000000000000eff8       0xd8 /home/xix277/engr-ece/Winter_Sem_2022/CME332/asn_test/test_prob_6_bsp//libucosii_bsp.a(alt_get_fd.o)
                0x000000000000eff8                alt_get_fd
 .text          0x000000000000f0d0       0x90 /home/xix277/engr-ece/Winter_Sem_2022/CME332/asn_test/test_prob_6_bsp//libucosii_bsp.a(alt_icache_flush.o)
                0x000000000000f0d0                alt_icache_flush
 .text          0x000000000000f160        0x0 /home/xix277/engr-ece/Winter_Sem_2022/CME332/asn_test/test_prob_6_bsp//libucosii_bsp.a(alt_irq_entry.o)
 .text          0x000000000000f160        0x0 /home/xix277/engr-ece/Winter_Sem_2022/CME332/asn_test/test_prob_6_bsp//libucosii_bsp.a(alt_irq_handler.o)
 .text          0x000000000000f160        0x0 /home/xix277/engr-ece/Winter_Sem_2022/CME332/asn_test/test_prob_6_bsp//libucosii_bsp.a(alt_exception_entry.o)
 .text          0x000000000000f160       0x98 /home/xix277/engr-ece/Winter_Sem_2022/CME332/asn_test/test_prob_6_bsp//libucosii_bsp.a(alt_instruction_exception_entry.o)
                0x000000000000f160                alt_exception_cause_generated_bad_addr
 .text          0x000000000000f1f8        0x0 /opt/intelFPGA/20.1.1/nios2eds/bin/gnu/H-x86_64-pc-linux-gnu/bin/../lib/gcc/nios2-elf/10.1.1/../../../../../H-x86_64-pc-linux-gnu/nios2-elf/lib/mhw-mulx/libc.a(lib_a-atexit.o)
 .text.atexit   0x000000000000f1f8       0x14 /opt/intelFPGA/20.1.1/nios2eds/bin/gnu/H-x86_64-pc-linux-gnu/bin/../lib/gcc/nios2-elf/10.1.1/../../../../../H-x86_64-pc-linux-gnu/nios2-elf/lib/mhw-mulx/libc.a(lib_a-atexit.o)
                0x000000000000f1f8                atexit
 .text          0x000000000000f20c        0x0 /opt/intelFPGA/20.1.1/nios2eds/bin/gnu/H-x86_64-pc-linux-gnu/bin/../lib/gcc/nios2-elf/10.1.1/../../../../../H-x86_64-pc-linux-gnu/nios2-elf/lib/mhw-mulx/libc.a(lib_a-exit.o)
 .text.exit     0x000000000000f20c       0x34 /opt/intelFPGA/20.1.1/nios2eds/bin/gnu/H-x86_64-pc-linux-gnu/bin/../lib/gcc/nios2-elf/10.1.1/../../../../../H-x86_64-pc-linux-gnu/nios2-elf/lib/mhw-mulx/libc.a(lib_a-exit.o)
                0x000000000000f20c                exit
 .text          0x000000000000f240        0x0 /opt/intelFPGA/20.1.1/nios2eds/bin/gnu/H-x86_64-pc-linux-gnu/bin/../lib/gcc/nios2-elf/10.1.1/../../../../../H-x86_64-pc-linux-gnu/nios2-elf/lib/mhw-mulx/libc.a(lib_a-memcmp.o)
 .text.memcmp   0x000000000000f240       0x78 /opt/intelFPGA/20.1.1/nios2eds/bin/gnu/H-x86_64-pc-linux-gnu/bin/../lib/gcc/nios2-elf/10.1.1/../../../../../H-x86_64-pc-linux-gnu/nios2-elf/lib/mhw-mulx/libc.a(lib_a-memcmp.o)
                0x000000000000f240                memcmp
 .text          0x000000000000f2b8        0x0 /opt/intelFPGA/20.1.1/nios2eds/bin/gnu/H-x86_64-pc-linux-gnu/bin/../lib/gcc/nios2-elf/10.1.1/../../../../../H-x86_64-pc-linux-gnu/nios2-elf/lib/mhw-mulx/libc.a(lib_a-__atexit.o)
 .text.__register_exitproc
                0x000000000000f2b8       0x90 /opt/intelFPGA/20.1.1/nios2eds/bin/gnu/H-x86_64-pc-linux-gnu/bin/../lib/gcc/nios2-elf/10.1.1/../../../../../H-x86_64-pc-linux-gnu/nios2-elf/lib/mhw-mulx/libc.a(lib_a-__atexit.o)
                0x000000000000f2b8                __register_exitproc
 .text          0x000000000000f348        0x0 /opt/intelFPGA/20.1.1/nios2eds/bin/gnu/H-x86_64-pc-linux-gnu/bin/../lib/gcc/nios2-elf/10.1.1/../../../../../H-x86_64-pc-linux-gnu/nios2-elf/lib/mhw-mulx/libc.a(lib_a-__call_atexit.o)
 .text.__call_exitprocs
                0x000000000000f348      0x120 /opt/intelFPGA/20.1.1/nios2eds/bin/gnu/H-x86_64-pc-linux-gnu/bin/../lib/gcc/nios2-elf/10.1.1/../../../../../H-x86_64-pc-linux-gnu/nios2-elf/lib/mhw-mulx/libc.a(lib_a-__call_atexit.o)
                0x000000000000f348                __call_exitprocs
 .text          0x000000000000f468       0x38 /home/xix277/engr-ece/Winter_Sem_2022/CME332/asn_test/test_prob_6_bsp//libucosii_bsp.a(alt_exit.o)
                0x000000000000f468                _exit
 *(.gnu.warning.*)
 *(.fini)
                [!provide]                        PROVIDE (__etext = ABSOLUTE (.))
                [!provide]                        PROVIDE (_etext = ABSOLUTE (.))
                [!provide]                        PROVIDE (etext = ABSOLUTE (.))
 *(.eh_frame_hdr)
                0x000000000000f4a0                . = ALIGN (0x4)
                [!provide]                        PROVIDE (__preinit_array_start = ABSOLUTE (.))
 *(.preinit_array)
                [!provide]                        PROVIDE (__preinit_array_end = ABSOLUTE (.))
                [!provide]                        PROVIDE (__init_array_start = ABSOLUTE (.))
 *(.init_array)
                [!provide]                        PROVIDE (__init_array_end = ABSOLUTE (.))
                [!provide]                        PROVIDE (__fini_array_start = ABSOLUTE (.))
 *(.fini_array)
                [!provide]                        PROVIDE (__fini_array_end = ABSOLUTE (.))
 *(.eh_frame)
 *(.gcc_except_table .gcc_except_table.*)
 *(.dynamic)
                0x000000000000f4a0                PROVIDE (__CTOR_LIST__ = ABSOLUTE (.))
 *(.ctors)
 *(SORT_BY_NAME(.ctors.*))
                0x000000000000f4a0                PROVIDE (__CTOR_END__ = ABSOLUTE (.))
                0x000000000000f4a0                PROVIDE (__DTOR_LIST__ = ABSOLUTE (.))
 *(.dtors)
 *(SORT_BY_NAME(.dtors.*))
                0x000000000000f4a0                PROVIDE (__DTOR_END__ = ABSOLUTE (.))
 *(.jcr)
                0x000000000000f4a0                . = ALIGN (0x4)

.rodata         0x000000000000f4a0      0x2b4
                0x000000000000f4a0                PROVIDE (__ram_rodata_start = ABSOLUTE (.))
                0x000000000000f4a0                . = ALIGN (0x4)
 *(.rodata .rodata.* .gnu.linkonce.r.*)
 .rodata        0x000000000000f4a0       0x17 obj/default/hello_ucosii.o
 *fill*         0x000000000000f4b7        0x1 
 .rodata._puts_r.str1.4
                0x000000000000f4b8        0x2 /opt/intelFPGA/20.1.1/nios2eds/bin/gnu/H-x86_64-pc-linux-gnu/bin/../lib/gcc/nios2-elf/10.1.1/../../../../../H-x86_64-pc-linux-gnu/nios2-elf/lib/mhw-mulx/libc.a(lib_a-puts.o)
 *fill*         0x000000000000f4ba        0x2 
 .rodata        0x000000000000f4bc        0xa /home/xix277/engr-ece/Winter_Sem_2022/CME332/asn_test/test_prob_6_bsp//libucosii_bsp.a(alt_dev.o)
 *fill*         0x000000000000f4c6        0x2 
 .rodata        0x000000000000f4c8        0xf /home/xix277/engr-ece/Winter_Sem_2022/CME332/asn_test/test_prob_6_bsp//libucosii_bsp.a(alt_main.o)
 *fill*         0x000000000000f4d7        0x1 
 .rodata        0x000000000000f4d8      0x11e /home/xix277/engr-ece/Winter_Sem_2022/CME332/asn_test/test_prob_6_bsp//libucosii_bsp.a(os_core.o)
                0x000000000000f4d8                OSUnMapTbl
 *fill*         0x000000000000f5f6        0x2 
 .rodata        0x000000000000f5f8      0x159 /home/xix277/engr-ece/Winter_Sem_2022/CME332/asn_test/test_prob_6_bsp//libucosii_bsp.a(alt_sys_init.o)
 *(.rodata1)
                0x000000000000f754                . = ALIGN (0x4)
 *fill*         0x000000000000f751        0x3 
                0x000000000000f754                PROVIDE (__ram_rodata_end = ABSOLUTE (.))
                0x000000000000f4a0                PROVIDE (__flash_rodata_start = LOADADDR (.rodata))

.rwdata         0x000000000000f754     0x1e00 load address 0x0000000000011554
                0x000000000000f754                PROVIDE (__ram_rwdata_start = ABSOLUTE (.))
                0x000000000000f754                . = ALIGN (0x4)
 *(.got.plt)
 *(.got)
 *(.data1)
 *(.data .data.* .gnu.linkonce.d.*)
 .data          0x000000000000f754        0x0 /home/xix277/engr-ece/Winter_Sem_2022/CME332/asn_test/test_prob_6_bsp//obj/HAL/src/crt0.o
 .data          0x000000000000f754        0x0 obj/default/hello_ucosii.o
 .data          0x000000000000f754        0x0 /opt/intelFPGA/20.1.1/nios2eds/bin/gnu/H-x86_64-pc-linux-gnu/bin/../lib/gcc/nios2-elf/10.1.1/../../../../../H-x86_64-pc-linux-gnu/nios2-elf/lib/mhw-mulx/libc.a(lib_a-puts.o)
 .data          0x000000000000f754        0x0 /opt/intelFPGA/20.1.1/nios2eds/bin/gnu/H-x86_64-pc-linux-gnu/bin/../lib/gcc/nios2-elf/10.1.1/../../../../../H-x86_64-pc-linux-gnu/nios2-elf/lib/mhw-mulx/libc.a(lib_a-strlen.o)
 .data          0x000000000000f754        0x0 /opt/intelFPGA/20.1.1/nios2eds/bin/gnu/H-x86_64-pc-linux-gnu/bin/../lib/gcc/nios2-elf/10.1.1/../../../../../H-x86_64-pc-linux-gnu/nios2-elf/lib/mhw-mulx/libc.a(lib_a-findfp.o)
 .data          0x000000000000f754        0x0 /opt/intelFPGA/20.1.1/nios2eds/bin/gnu/H-x86_64-pc-linux-gnu/bin/../lib/gcc/nios2-elf/10.1.1/../../../../../H-x86_64-pc-linux-gnu/nios2-elf/lib/mhw-mulx/libc.a(lib_a-fvwrite.o)
 .data          0x000000000000f754        0x0 /opt/intelFPGA/20.1.1/nios2eds/bin/gnu/H-x86_64-pc-linux-gnu/bin/../lib/gcc/nios2-elf/10.1.1/../../../../../H-x86_64-pc-linux-gnu/nios2-elf/lib/mhw-mulx/libc.a(lib_a-fwalk.o)
 .data          0x000000000000f754        0x0 /opt/intelFPGA/20.1.1/nios2eds/bin/gnu/H-x86_64-pc-linux-gnu/bin/../lib/gcc/nios2-elf/10.1.1/../../../../../H-x86_64-pc-linux-gnu/nios2-elf/lib/mhw-mulx/libc.a(lib_a-impure.o)
 .data.impure_data
                0x000000000000f754      0x424 /opt/intelFPGA/20.1.1/nios2eds/bin/gnu/H-x86_64-pc-linux-gnu/bin/../lib/gcc/nios2-elf/10.1.1/../../../../../H-x86_64-pc-linux-gnu/nios2-elf/lib/mhw-mulx/libc.a(lib_a-impure.o)
 .data          0x000000000000fb78        0x0 /opt/intelFPGA/20.1.1/nios2eds/bin/gnu/H-x86_64-pc-linux-gnu/bin/../lib/gcc/nios2-elf/10.1.1/../../../../../H-x86_64-pc-linux-gnu/nios2-elf/lib/mhw-mulx/libc.a(lib_a-mallocr.o)
 .data.__malloc_av_
                0x000000000000fb78      0x408 /opt/intelFPGA/20.1.1/nios2eds/bin/gnu/H-x86_64-pc-linux-gnu/bin/../lib/gcc/nios2-elf/10.1.1/../../../../../H-x86_64-pc-linux-gnu/nios2-elf/lib/mhw-mulx/libc.a(lib_a-mallocr.o)
                0x000000000000fb78                __malloc_av_
 .data          0x000000000000ff80        0x0 /opt/intelFPGA/20.1.1/nios2eds/bin/gnu/H-x86_64-pc-linux-gnu/bin/../lib/gcc/nios2-elf/10.1.1/../../../../../H-x86_64-pc-linux-gnu/nios2-elf/lib/mhw-mulx/libc.a(lib_a-memchr.o)
 .data          0x000000000000ff80        0x0 /opt/intelFPGA/20.1.1/nios2eds/bin/gnu/H-x86_64-pc-linux-gnu/bin/../lib/gcc/nios2-elf/10.1.1/../../../../../H-x86_64-pc-linux-gnu/nios2-elf/lib/mhw-mulx/libc.a(lib_a-memcpy.o)
 .data          0x000000000000ff80        0x0 /opt/intelFPGA/20.1.1/nios2eds/bin/gnu/H-x86_64-pc-linux-gnu/bin/../lib/gcc/nios2-elf/10.1.1/../../../../../H-x86_64-pc-linux-gnu/nios2-elf/lib/mhw-mulx/libc.a(lib_a-memmove.o)
 .data          0x000000000000ff80        0x0 /opt/intelFPGA/20.1.1/nios2eds/bin/gnu/H-x86_64-pc-linux-gnu/bin/../lib/gcc/nios2-elf/10.1.1/../../../../../H-x86_64-pc-linux-gnu/nios2-elf/lib/mhw-mulx/libc.a(lib_a-memset.o)
 .data          0x000000000000ff80        0x0 /opt/intelFPGA/20.1.1/nios2eds/bin/gnu/H-x86_64-pc-linux-gnu/bin/../lib/gcc/nios2-elf/10.1.1/../../../../../H-x86_64-pc-linux-gnu/nios2-elf/lib/mhw-mulx/libc.a(lib_a-reallocr.o)
 .data          0x000000000000ff80        0x0 /opt/intelFPGA/20.1.1/nios2eds/bin/gnu/H-x86_64-pc-linux-gnu/bin/../lib/gcc/nios2-elf/10.1.1/../../../../../H-x86_64-pc-linux-gnu/nios2-elf/lib/mhw-mulx/libc.a(lib_a-sbrkr.o)
 .data          0x000000000000ff80        0x0 /opt/intelFPGA/20.1.1/nios2eds/bin/gnu/H-x86_64-pc-linux-gnu/bin/../lib/gcc/nios2-elf/10.1.1/../../../../../H-x86_64-pc-linux-gnu/nios2-elf/lib/mhw-mulx/libc.a(lib_a-stdio.o)
 .data          0x000000000000ff80        0x0 /opt/intelFPGA/20.1.1/nios2eds/bin/gnu/H-x86_64-pc-linux-gnu/bin/../lib/gcc/nios2-elf/10.1.1/../../../../../H-x86_64-pc-linux-gnu/nios2-elf/lib/mhw-mulx/libc.a(lib_a-writer.o)
 .data          0x000000000000ff80        0x0 /opt/intelFPGA/20.1.1/nios2eds/bin/gnu/H-x86_64-pc-linux-gnu/bin/../lib/gcc/nios2-elf/10.1.1/../../../../../H-x86_64-pc-linux-gnu/nios2-elf/lib/mhw-mulx/libc.a(lib_a-wsetup.o)
 .data          0x000000000000ff80        0x0 /opt/intelFPGA/20.1.1/nios2eds/bin/gnu/H-x86_64-pc-linux-gnu/bin/../lib/gcc/nios2-elf/10.1.1/../../../../../H-x86_64-pc-linux-gnu/nios2-elf/lib/mhw-mulx/libc.a(closer.o)
 .data          0x000000000000ff80        0x0 /opt/intelFPGA/20.1.1/nios2eds/bin/gnu/H-x86_64-pc-linux-gnu/bin/../lib/gcc/nios2-elf/10.1.1/../../../../../H-x86_64-pc-linux-gnu/nios2-elf/lib/mhw-mulx/libc.a(lib_a-fclose.o)
 .data          0x000000000000ff80        0x0 /opt/intelFPGA/20.1.1/nios2eds/bin/gnu/H-x86_64-pc-linux-gnu/bin/../lib/gcc/nios2-elf/10.1.1/../../../../../H-x86_64-pc-linux-gnu/nios2-elf/lib/mhw-mulx/libc.a(lib_a-fflush.o)
 .data          0x000000000000ff80        0x0 /opt/intelFPGA/20.1.1/nios2eds/bin/gnu/H-x86_64-pc-linux-gnu/bin/../lib/gcc/nios2-elf/10.1.1/../../../../../H-x86_64-pc-linux-gnu/nios2-elf/lib/mhw-mulx/libc.a(lib_a-freer.o)
 .data          0x000000000000ff80        0x0 /opt/intelFPGA/20.1.1/nios2eds/bin/gnu/H-x86_64-pc-linux-gnu/bin/../lib/gcc/nios2-elf/10.1.1/../../../../../H-x86_64-pc-linux-gnu/nios2-elf/lib/mhw-mulx/libc.a(lib_a-int_errno.o)
 .data          0x000000000000ff80        0x0 /opt/intelFPGA/20.1.1/nios2eds/bin/gnu/H-x86_64-pc-linux-gnu/bin/../lib/gcc/nios2-elf/10.1.1/../../../../../H-x86_64-pc-linux-gnu/nios2-elf/lib/mhw-mulx/libc.a(lib_a-lseekr.o)
 .data          0x000000000000ff80        0x0 /opt/intelFPGA/20.1.1/nios2eds/bin/gnu/H-x86_64-pc-linux-gnu/bin/../lib/gcc/nios2-elf/10.1.1/../../../../../H-x86_64-pc-linux-gnu/nios2-elf/lib/mhw-mulx/libc.a(lib_a-makebuf.o)
 .data          0x000000000000ff80        0x0 /opt/intelFPGA/20.1.1/nios2eds/bin/gnu/H-x86_64-pc-linux-gnu/bin/../lib/gcc/nios2-elf/10.1.1/../../../../../H-x86_64-pc-linux-gnu/nios2-elf/lib/mhw-mulx/libc.a(lib_a-readr.o)
 .data          0x000000000000ff80        0x0 /opt/intelFPGA/20.1.1/nios2eds/bin/gnu/H-x86_64-pc-linux-gnu/bin/../lib/gcc/nios2-elf/10.1.1/../../../../../H-x86_64-pc-linux-gnu/nios2-elf/lib/mhw-mulx/libc.a(lib_a-fstatr.o)
 .data          0x000000000000ff80        0x0 /opt/intelFPGA/20.1.1/nios2eds/bin/gnu/H-x86_64-pc-linux-gnu/bin/../lib/gcc/nios2-elf/10.1.1/../../../../../H-x86_64-pc-linux-gnu/nios2-elf/lib/mhw-mulx/libc.a(lib_a-isattyr.o)
 .data          0x000000000000ff80        0x0 /opt/intelFPGA/20.1.1/nios2eds/bin/gnu/H-x86_64-pc-linux-gnu/bin/../lib/gcc/nios2-elf/10.1.1/mhw-mulx/libgcc.a(lib2-divmod.o)
 .data          0x000000000000ff80        0x0 /home/xix277/engr-ece/Winter_Sem_2022/CME332/asn_test/test_prob_6_bsp//libucosii_bsp.a(alt_close.o)
 .data          0x000000000000ff80      0x1a8 /home/xix277/engr-ece/Winter_Sem_2022/CME332/asn_test/test_prob_6_bsp//libucosii_bsp.a(alt_dev.o)
                0x000000000000ff80                alt_dev_null
                0x000000000000ffa8                alt_fd_list
 .data          0x0000000000010128        0x0 /home/xix277/engr-ece/Winter_Sem_2022/CME332/asn_test/test_prob_6_bsp//libucosii_bsp.a(alt_errno.o)
 .data          0x0000000000010128        0x0 /home/xix277/engr-ece/Winter_Sem_2022/CME332/asn_test/test_prob_6_bsp//libucosii_bsp.a(alt_fstat.o)
 .data          0x0000000000010128        0x0 /home/xix277/engr-ece/Winter_Sem_2022/CME332/asn_test/test_prob_6_bsp//libucosii_bsp.a(alt_isatty.o)
 .data          0x0000000000010128        0x0 /home/xix277/engr-ece/Winter_Sem_2022/CME332/asn_test/test_prob_6_bsp//libucosii_bsp.a(alt_load.o)
 .data          0x0000000000010128        0x0 /home/xix277/engr-ece/Winter_Sem_2022/CME332/asn_test/test_prob_6_bsp//libucosii_bsp.a(alt_lseek.o)
 .data          0x0000000000010128        0x0 /home/xix277/engr-ece/Winter_Sem_2022/CME332/asn_test/test_prob_6_bsp//libucosii_bsp.a(alt_main.o)
 .data          0x0000000000010128        0x0 /home/xix277/engr-ece/Winter_Sem_2022/CME332/asn_test/test_prob_6_bsp//libucosii_bsp.a(alt_read.o)
 .data          0x0000000000010128        0x0 /home/xix277/engr-ece/Winter_Sem_2022/CME332/asn_test/test_prob_6_bsp//libucosii_bsp.a(alt_release_fd.o)
 .data          0x0000000000010128        0x0 /home/xix277/engr-ece/Winter_Sem_2022/CME332/asn_test/test_prob_6_bsp//libucosii_bsp.a(alt_sbrk.o)
 .data          0x0000000000010128        0x0 /home/xix277/engr-ece/Winter_Sem_2022/CME332/asn_test/test_prob_6_bsp//libucosii_bsp.a(alt_write.o)
 .data          0x0000000000010128        0x0 /home/xix277/engr-ece/Winter_Sem_2022/CME332/asn_test/test_prob_6_bsp//libucosii_bsp.a(alt_env_lock.o)
 .data          0x0000000000010128        0x0 /home/xix277/engr-ece/Winter_Sem_2022/CME332/asn_test/test_prob_6_bsp//libucosii_bsp.a(alt_malloc_lock.o)
 .data          0x0000000000010128        0x0 /home/xix277/engr-ece/Winter_Sem_2022/CME332/asn_test/test_prob_6_bsp//libucosii_bsp.a(os_core.o)
 .data          0x0000000000010128        0x0 /home/xix277/engr-ece/Winter_Sem_2022/CME332/asn_test/test_prob_6_bsp//libucosii_bsp.a(os_dbg.o)
 .data          0x0000000000010128        0x0 /home/xix277/engr-ece/Winter_Sem_2022/CME332/asn_test/test_prob_6_bsp//libucosii_bsp.a(os_flag.o)
 .data          0x0000000000010128        0x0 /home/xix277/engr-ece/Winter_Sem_2022/CME332/asn_test/test_prob_6_bsp//libucosii_bsp.a(os_mem.o)
 .data          0x0000000000010128        0x0 /home/xix277/engr-ece/Winter_Sem_2022/CME332/asn_test/test_prob_6_bsp//libucosii_bsp.a(os_q.o)
 .data          0x0000000000010128        0x0 /home/xix277/engr-ece/Winter_Sem_2022/CME332/asn_test/test_prob_6_bsp//libucosii_bsp.a(os_sem.o)
 .data          0x0000000000010128        0x0 /home/xix277/engr-ece/Winter_Sem_2022/CME332/asn_test/test_prob_6_bsp//libucosii_bsp.a(os_task.o)
 .data          0x0000000000010128        0x0 /home/xix277/engr-ece/Winter_Sem_2022/CME332/asn_test/test_prob_6_bsp//libucosii_bsp.a(os_time.o)
 .data          0x0000000000010128     0x1378 /home/xix277/engr-ece/Winter_Sem_2022/CME332/asn_test/test_prob_6_bsp//libucosii_bsp.a(alt_sys_init.o)
 .data          0x00000000000114a0        0x0 /home/xix277/engr-ece/Winter_Sem_2022/CME332/asn_test/test_prob_6_bsp//libucosii_bsp.a(altera_avalon_jtag_uart_fd.o)
 .data          0x00000000000114a0        0x0 /home/xix277/engr-ece/Winter_Sem_2022/CME332/asn_test/test_prob_6_bsp//libucosii_bsp.a(altera_avalon_jtag_uart_init.o)
 .data          0x00000000000114a0        0x0 /home/xix277/engr-ece/Winter_Sem_2022/CME332/asn_test/test_prob_6_bsp//libucosii_bsp.a(altera_avalon_jtag_uart_ioctl.o)
 .data          0x00000000000114a0        0x0 /home/xix277/engr-ece/Winter_Sem_2022/CME332/asn_test/test_prob_6_bsp//libucosii_bsp.a(altera_avalon_jtag_uart_read.o)
 .data          0x00000000000114a0        0x0 /home/xix277/engr-ece/Winter_Sem_2022/CME332/asn_test/test_prob_6_bsp//libucosii_bsp.a(altera_avalon_jtag_uart_write.o)
 .data          0x00000000000114a0        0x0 /home/xix277/engr-ece/Winter_Sem_2022/CME332/asn_test/test_prob_6_bsp//libucosii_bsp.a(altera_avalon_timer_sc.o)
 .data          0x00000000000114a0        0x0 /home/xix277/engr-ece/Winter_Sem_2022/CME332/asn_test/test_prob_6_bsp//libucosii_bsp.a(altera_up_avalon_character_lcd.o)
 .data          0x00000000000114a0        0x0 /home/xix277/engr-ece/Winter_Sem_2022/CME332/asn_test/test_prob_6_bsp//libucosii_bsp.a(altera_up_avalon_irda.o)
 .data          0x00000000000114a0        0x0 /home/xix277/engr-ece/Winter_Sem_2022/CME332/asn_test/test_prob_6_bsp//libucosii_bsp.a(altera_up_avalon_ps2.o)
 .data          0x00000000000114a0        0x0 /home/xix277/engr-ece/Winter_Sem_2022/CME332/asn_test/test_prob_6_bsp//libucosii_bsp.a(altera_up_avalon_rs232.o)
 .data          0x00000000000114a0        0x0 /home/xix277/engr-ece/Winter_Sem_2022/CME332/asn_test/test_prob_6_bsp//libucosii_bsp.a(alt_alarm_start.o)
 .data          0x00000000000114a0        0x0 /home/xix277/engr-ece/Winter_Sem_2022/CME332/asn_test/test_prob_6_bsp//libucosii_bsp.a(alt_dcache_flush_all.o)
 .data          0x00000000000114a0        0x0 /home/xix277/engr-ece/Winter_Sem_2022/CME332/asn_test/test_prob_6_bsp//libucosii_bsp.a(alt_dev_llist_insert.o)
 .data          0x00000000000114a0        0x0 /home/xix277/engr-ece/Winter_Sem_2022/CME332/asn_test/test_prob_6_bsp//libucosii_bsp.a(alt_do_ctors.o)
 .data          0x00000000000114a0        0x0 /home/xix277/engr-ece/Winter_Sem_2022/CME332/asn_test/test_prob_6_bsp//libucosii_bsp.a(alt_do_dtors.o)
 .data          0x00000000000114a0        0x0 /home/xix277/engr-ece/Winter_Sem_2022/CME332/asn_test/test_prob_6_bsp//libucosii_bsp.a(alt_find_dev.o)
 .data          0x00000000000114a0        0x0 /home/xix277/engr-ece/Winter_Sem_2022/CME332/asn_test/test_prob_6_bsp//libucosii_bsp.a(alt_icache_flush_all.o)
 .data          0x00000000000114a0        0x0 /home/xix277/engr-ece/Winter_Sem_2022/CME332/asn_test/test_prob_6_bsp//libucosii_bsp.a(alt_io_redirect.o)
 .data          0x00000000000114a0        0x0 /home/xix277/engr-ece/Winter_Sem_2022/CME332/asn_test/test_prob_6_bsp//libucosii_bsp.a(alt_irq_register.o)
 .data          0x00000000000114a0        0x0 /home/xix277/engr-ece/Winter_Sem_2022/CME332/asn_test/test_prob_6_bsp//libucosii_bsp.a(alt_irq_vars.o)
 .data          0x00000000000114a0        0x0 /home/xix277/engr-ece/Winter_Sem_2022/CME332/asn_test/test_prob_6_bsp//libucosii_bsp.a(alt_open.o)
 .data          0x00000000000114a0        0x0 /home/xix277/engr-ece/Winter_Sem_2022/CME332/asn_test/test_prob_6_bsp//libucosii_bsp.a(alt_tick.o)
 .data          0x00000000000114a0        0x0 /home/xix277/engr-ece/Winter_Sem_2022/CME332/asn_test/test_prob_6_bsp//libucosii_bsp.a(altera_nios2_gen2_irq.o)
 .data          0x00000000000114a0        0x0 /home/xix277/engr-ece/Winter_Sem_2022/CME332/asn_test/test_prob_6_bsp//libucosii_bsp.a(os_cpu_a.o)
 .data          0x00000000000114a0        0x0 /home/xix277/engr-ece/Winter_Sem_2022/CME332/asn_test/test_prob_6_bsp//libucosii_bsp.a(os_cpu_c.o)
 .data          0x00000000000114a0        0x0 /home/xix277/engr-ece/Winter_Sem_2022/CME332/asn_test/test_prob_6_bsp//libucosii_bsp.a(alt_find_file.o)
 .data          0x00000000000114a0        0x0 /home/xix277/engr-ece/Winter_Sem_2022/CME332/asn_test/test_prob_6_bsp//libucosii_bsp.a(alt_get_fd.o)
 .data          0x00000000000114a0        0x0 /home/xix277/engr-ece/Winter_Sem_2022/CME332/asn_test/test_prob_6_bsp//libucosii_bsp.a(alt_icache_flush.o)
 .data          0x00000000000114a0        0x0 /home/xix277/engr-ece/Winter_Sem_2022/CME332/asn_test/test_prob_6_bsp//libucosii_bsp.a(alt_irq_entry.o)
 .data          0x00000000000114a0        0x0 /home/xix277/engr-ece/Winter_Sem_2022/CME332/asn_test/test_prob_6_bsp//libucosii_bsp.a(alt_irq_handler.o)
 .data          0x00000000000114a0        0x0 /home/xix277/engr-ece/Winter_Sem_2022/CME332/asn_test/test_prob_6_bsp//libucosii_bsp.a(alt_exception_entry.o)
 .data          0x00000000000114a0        0x0 /home/xix277/engr-ece/Winter_Sem_2022/CME332/asn_test/test_prob_6_bsp//libucosii_bsp.a(alt_instruction_exception_entry.o)
 .data          0x00000000000114a0        0x0 /opt/intelFPGA/20.1.1/nios2eds/bin/gnu/H-x86_64-pc-linux-gnu/bin/../lib/gcc/nios2-elf/10.1.1/../../../../../H-x86_64-pc-linux-gnu/nios2-elf/lib/mhw-mulx/libc.a(lib_a-atexit.o)
 .data          0x00000000000114a0        0x0 /opt/intelFPGA/20.1.1/nios2eds/bin/gnu/H-x86_64-pc-linux-gnu/bin/../lib/gcc/nios2-elf/10.1.1/../../../../../H-x86_64-pc-linux-gnu/nios2-elf/lib/mhw-mulx/libc.a(lib_a-exit.o)
 .data          0x00000000000114a0        0x0 /opt/intelFPGA/20.1.1/nios2eds/bin/gnu/H-x86_64-pc-linux-gnu/bin/../lib/gcc/nios2-elf/10.1.1/../../../../../H-x86_64-pc-linux-gnu/nios2-elf/lib/mhw-mulx/libc.a(lib_a-memcmp.o)
 .data          0x00000000000114a0        0x0 /opt/intelFPGA/20.1.1/nios2eds/bin/gnu/H-x86_64-pc-linux-gnu/bin/../lib/gcc/nios2-elf/10.1.1/../../../../../H-x86_64-pc-linux-gnu/nios2-elf/lib/mhw-mulx/libc.a(lib_a-__atexit.o)
 .data          0x00000000000114a0        0x0 /opt/intelFPGA/20.1.1/nios2eds/bin/gnu/H-x86_64-pc-linux-gnu/bin/../lib/gcc/nios2-elf/10.1.1/../../../../../H-x86_64-pc-linux-gnu/nios2-elf/lib/mhw-mulx/libc.a(lib_a-__call_atexit.o)
 .data          0x00000000000114a0        0x0 /home/xix277/engr-ece/Winter_Sem_2022/CME332/asn_test/test_prob_6_bsp//libucosii_bsp.a(alt_exit.o)
                0x00000000000194a0                _gp = ABSOLUTE ((. + 0x8000))
                [!provide]                        PROVIDE (gp = _gp)
 *(.rwdata .rwdata.*)
 *(.sdata .sdata.* .gnu.linkonce.s.*)
 .sdata._global_impure_ptr
                0x00000000000114a0        0x4 /opt/intelFPGA/20.1.1/nios2eds/bin/gnu/H-x86_64-pc-linux-gnu/bin/../lib/gcc/nios2-elf/10.1.1/../../../../../H-x86_64-pc-linux-gnu/nios2-elf/lib/mhw-mulx/libc.a(lib_a-impure.o)
                0x00000000000114a0                _global_impure_ptr
 .sdata._impure_ptr
                0x00000000000114a4        0x4 /opt/intelFPGA/20.1.1/nios2eds/bin/gnu/H-x86_64-pc-linux-gnu/bin/../lib/gcc/nios2-elf/10.1.1/../../../../../H-x86_64-pc-linux-gnu/nios2-elf/lib/mhw-mulx/libc.a(lib_a-impure.o)
                0x00000000000114a4                _impure_ptr
 .sdata.__malloc_sbrk_base
                0x00000000000114a8        0x4 /opt/intelFPGA/20.1.1/nios2eds/bin/gnu/H-x86_64-pc-linux-gnu/bin/../lib/gcc/nios2-elf/10.1.1/../../../../../H-x86_64-pc-linux-gnu/nios2-elf/lib/mhw-mulx/libc.a(lib_a-mallocr.o)
                0x00000000000114a8                __malloc_sbrk_base
 .sdata.__malloc_trim_threshold
                0x00000000000114ac        0x4 /opt/intelFPGA/20.1.1/nios2eds/bin/gnu/H-x86_64-pc-linux-gnu/bin/../lib/gcc/nios2-elf/10.1.1/../../../../../H-x86_64-pc-linux-gnu/nios2-elf/lib/mhw-mulx/libc.a(lib_a-mallocr.o)
                0x00000000000114ac                __malloc_trim_threshold
 .sdata         0x00000000000114b0       0x14 /home/xix277/engr-ece/Winter_Sem_2022/CME332/asn_test/test_prob_6_bsp//libucosii_bsp.a(alt_dev.o)
                0x00000000000114b0                alt_fs_list
                0x00000000000114b8                alt_dev_list
                0x00000000000114c0                alt_max_fd
 .sdata         0x00000000000114c4        0x4 /home/xix277/engr-ece/Winter_Sem_2022/CME332/asn_test/test_prob_6_bsp//libucosii_bsp.a(alt_errno.o)
                0x00000000000114c4                alt_errno
 .sdata         0x00000000000114c8        0x4 /home/xix277/engr-ece/Winter_Sem_2022/CME332/asn_test/test_prob_6_bsp//libucosii_bsp.a(alt_sbrk.o)
 .sdata         0x00000000000114cc        0x4 /home/xix277/engr-ece/Winter_Sem_2022/CME332/asn_test/test_prob_6_bsp//libucosii_bsp.a(alt_env_lock.o)
 .sdata         0x00000000000114d0        0x4 /home/xix277/engr-ece/Winter_Sem_2022/CME332/asn_test/test_prob_6_bsp//libucosii_bsp.a(alt_malloc_lock.o)
 .sdata         0x00000000000114d4       0x72 /home/xix277/engr-ece/Winter_Sem_2022/CME332/asn_test/test_prob_6_bsp//libucosii_bsp.a(os_dbg.o)
                0x00000000000114d4                OSDebugEn
                0x00000000000114d8                OSEndiannessTest
                0x00000000000114dc                OSEventEn
                0x00000000000114de                OSEventMax
                0x00000000000114e0                OSEventNameSize
                0x00000000000114e2                OSEventSize
                0x00000000000114e4                OSEventTblSize
                0x00000000000114e6                OSEventMultiEn
                0x00000000000114e8                OSFlagEn
                0x00000000000114ea                OSFlagGrpSize
                0x00000000000114ec                OSFlagNodeSize
                0x00000000000114ee                OSFlagWidth
                0x00000000000114f0                OSFlagMax
                0x00000000000114f2                OSFlagNameSize
                0x00000000000114f4                OSLowestPrio
                0x00000000000114f6                OSMboxEn
                0x00000000000114f8                OSMemEn
                0x00000000000114fa                OSMemMax
                0x00000000000114fc                OSMemNameSize
                0x00000000000114fe                OSMemSize
                0x0000000000011500                OSMemTblSize
                0x0000000000011502                OSMutexEn
                0x0000000000011504                OSPtrSize
                0x0000000000011506                OSQEn
                0x0000000000011508                OSQMax
                0x000000000001150a                OSQSize
                0x000000000001150c                OSRdyTblSize
                0x000000000001150e                OSSemEn
                0x0000000000011510                OSStkWidth
                0x0000000000011512                OSTaskCreateEn
                0x0000000000011514                OSTaskCreateExtEn
                0x0000000000011516                OSTaskDelEn
                0x0000000000011518                OSTaskIdleStkSize
                0x000000000001151a                OSTaskProfileEn
                0x000000000001151c                OSTaskMax
                0x000000000001151e                OSTaskNameSize
                0x0000000000011520                OSTaskStatEn
                0x0000000000011522                OSTaskStatStkSize
                0x0000000000011524                OSTaskStatStkChkEn
                0x0000000000011526                OSTaskSwHookEn
                0x0000000000011528                OSTCBPrioTblMax
                0x000000000001152a                OSTCBSize
                0x000000000001152c                OSTicksPerSec
                0x000000000001152e                OSTimeTickHookEn
                0x0000000000011530                OSVersionNbr
                0x0000000000011532                OSTmrEn
                0x0000000000011534                OSTmrCfgMax
                0x0000000000011536                OSTmrCfgNameSize
                0x0000000000011538                OSTmrCfgWheelSize
                0x000000000001153a                OSTmrCfgTicksPerSec
                0x000000000001153c                OSTmrSize
                0x000000000001153e                OSTmrTblSize
                0x0000000000011540                OSTmrWheelSize
                0x0000000000011542                OSTmrWheelTblSize
                0x0000000000011544                OSDataSize
 *fill*         0x0000000000011546        0x2 
 .sdata         0x0000000000011548        0x4 /home/xix277/engr-ece/Winter_Sem_2022/CME332/asn_test/test_prob_6_bsp//libucosii_bsp.a(alt_irq_vars.o)
                0x0000000000011548                alt_priority_mask
 .sdata         0x000000000001154c        0x8 /home/xix277/engr-ece/Winter_Sem_2022/CME332/asn_test/test_prob_6_bsp//libucosii_bsp.a(alt_tick.o)
                0x000000000001154c                alt_alarm_list
 *(.sdata2 .sdata2.* .gnu.linkonce.s2.*)
                0x0000000000011554                . = ALIGN (0x4)
                0x0000000000011554                _edata = ABSOLUTE (.)
                [!provide]                        PROVIDE (edata = ABSOLUTE (.))
                0x0000000000011554                PROVIDE (__ram_rwdata_end = ABSOLUTE (.))
                0x0000000000011554                PROVIDE (__flash_rwdata_start = LOADADDR (.rwdata))

.bss            0x0000000000013354     0x73d4
                0x0000000000013354                __bss_start = ABSOLUTE (.)
                [!provide]                        PROVIDE (__sbss_start = ABSOLUTE (.))
                [!provide]                        PROVIDE (___sbss_start = ABSOLUTE (.))
 *(.dynsbss)
 *(.sbss .sbss.* .gnu.linkonce.sb.*)
 .sbss.__malloc_max_total_mem
                0x0000000000013354        0x4 /opt/intelFPGA/20.1.1/nios2eds/bin/gnu/H-x86_64-pc-linux-gnu/bin/../lib/gcc/nios2-elf/10.1.1/../../../../../H-x86_64-pc-linux-gnu/nios2-elf/lib/mhw-mulx/libc.a(lib_a-mallocr.o)
                0x0000000000013354                __malloc_max_total_mem
 .sbss.__malloc_max_sbrked_mem
                0x0000000000013358        0x4 /opt/intelFPGA/20.1.1/nios2eds/bin/gnu/H-x86_64-pc-linux-gnu/bin/../lib/gcc/nios2-elf/10.1.1/../../../../../H-x86_64-pc-linux-gnu/nios2-elf/lib/mhw-mulx/libc.a(lib_a-mallocr.o)
                0x0000000000013358                __malloc_max_sbrked_mem
 .sbss.__malloc_top_pad
                0x000000000001335c        0x4 /opt/intelFPGA/20.1.1/nios2eds/bin/gnu/H-x86_64-pc-linux-gnu/bin/../lib/gcc/nios2-elf/10.1.1/../../../../../H-x86_64-pc-linux-gnu/nios2-elf/lib/mhw-mulx/libc.a(lib_a-mallocr.o)
                0x000000000001335c                __malloc_top_pad
 .sbss.errno    0x0000000000013360        0x4 /opt/intelFPGA/20.1.1/nios2eds/bin/gnu/H-x86_64-pc-linux-gnu/bin/../lib/gcc/nios2-elf/10.1.1/../../../../../H-x86_64-pc-linux-gnu/nios2-elf/lib/mhw-mulx/libc.a(lib_a-int_errno.o)
                0x0000000000013360                errno
 .sbss          0x0000000000013364        0x4 /home/xix277/engr-ece/Winter_Sem_2022/CME332/asn_test/test_prob_6_bsp//libucosii_bsp.a(alt_dev.o)
                0x0000000000013364                alt_fd_list_lock
 .sbss          0x0000000000013368        0xc /home/xix277/engr-ece/Winter_Sem_2022/CME332/asn_test/test_prob_6_bsp//libucosii_bsp.a(alt_main.o)
                0x0000000000013368                alt_argc
                0x000000000001336c                alt_argv
                0x0000000000013370                alt_envp
 .sbss          0x0000000000013374        0x8 /home/xix277/engr-ece/Winter_Sem_2022/CME332/asn_test/test_prob_6_bsp//libucosii_bsp.a(alt_env_lock.o)
                0x0000000000013374                alt_envsem
 .sbss          0x000000000001337c        0x8 /home/xix277/engr-ece/Winter_Sem_2022/CME332/asn_test/test_prob_6_bsp//libucosii_bsp.a(alt_malloc_lock.o)
                0x000000000001337c                alt_heapsem
 .sbss          0x0000000000013384       0x48 /home/xix277/engr-ece/Winter_Sem_2022/CME332/asn_test/test_prob_6_bsp//libucosii_bsp.a(os_core.o)
                0x0000000000013384                OSCtxSwCtr
                0x0000000000013388                OSEventFreeList
                0x000000000001338c                OSFlagFreeList
                0x0000000000013390                OSCPUUsage
                0x0000000000013394                OSIdleCtrMax
                0x0000000000013398                OSIdleCtrRun
                0x000000000001339c                OSStatRdy
                0x000000000001339d                OSIntNesting
                0x000000000001339e                OSLockNesting
                0x000000000001339f                OSPrioCur
                0x00000000000133a0                OSPrioHighRdy
                0x00000000000133a1                OSRdyGrp
                0x00000000000133a2                OSRdyTbl
                0x00000000000133a5                OSRunning
                0x00000000000133a6                OSTaskCtr
                0x00000000000133a8                OSIdleCtr
                0x00000000000133ac                OSTCBCur
                0x00000000000133b0                OSTCBFreeList
                0x00000000000133b4                OSTCBHighRdy
                0x00000000000133b8                OSTCBList
                0x00000000000133bc                OSTickStepState
                0x00000000000133c0                OSMemFreeList
                0x00000000000133c4                OSQFreeList
                0x00000000000133c8                OSTime
 .sbss          0x00000000000133cc        0x4 /home/xix277/engr-ece/Winter_Sem_2022/CME332/asn_test/test_prob_6_bsp//libucosii_bsp.a(alt_irq_vars.o)
                0x00000000000133cc                alt_irq_active
 .sbss          0x00000000000133d0        0x8 /home/xix277/engr-ece/Winter_Sem_2022/CME332/asn_test/test_prob_6_bsp//libucosii_bsp.a(alt_tick.o)
                0x00000000000133d0                _alt_tick_rate
                0x00000000000133d4                _alt_nticks
 .sbss          0x00000000000133d8        0x4 /home/xix277/engr-ece/Winter_Sem_2022/CME332/asn_test/test_prob_6_bsp//libucosii_bsp.a(alt_instruction_exception_entry.o)
                0x00000000000133d8                alt_instruction_exception_handler
 *(.sbss2 .sbss2.* .gnu.linkonce.sb2.*)
 *(.scommon)
                [!provide]                        PROVIDE (__sbss_end = ABSOLUTE (.))
                [!provide]                        PROVIDE (___sbss_end = ABSOLUTE (.))
 *(.dynbss)
 *(.bss .bss.* .gnu.linkonce.b.*)
 .bss           0x00000000000133dc        0x0 /home/xix277/engr-ece/Winter_Sem_2022/CME332/asn_test/test_prob_6_bsp//obj/HAL/src/crt0.o
 .bss           0x00000000000133dc     0x4000 obj/default/hello_ucosii.o
                0x00000000000133dc                TestTaskStkA
                0x00000000000143dc                TestTaskStkB
                0x00000000000153dc                TestTaskStkC
                0x00000000000163dc                TestTaskStkD
 .bss           0x00000000000173dc        0x0 /opt/intelFPGA/20.1.1/nios2eds/bin/gnu/H-x86_64-pc-linux-gnu/bin/../lib/gcc/nios2-elf/10.1.1/../../../../../H-x86_64-pc-linux-gnu/nios2-elf/lib/mhw-mulx/libc.a(lib_a-puts.o)
 .bss           0x00000000000173dc        0x0 /opt/intelFPGA/20.1.1/nios2eds/bin/gnu/H-x86_64-pc-linux-gnu/bin/../lib/gcc/nios2-elf/10.1.1/../../../../../H-x86_64-pc-linux-gnu/nios2-elf/lib/mhw-mulx/libc.a(lib_a-strlen.o)
 .bss           0x00000000000173dc        0x0 /opt/intelFPGA/20.1.1/nios2eds/bin/gnu/H-x86_64-pc-linux-gnu/bin/../lib/gcc/nios2-elf/10.1.1/../../../../../H-x86_64-pc-linux-gnu/nios2-elf/lib/mhw-mulx/libc.a(lib_a-findfp.o)
 .bss           0x00000000000173dc        0x0 /opt/intelFPGA/20.1.1/nios2eds/bin/gnu/H-x86_64-pc-linux-gnu/bin/../lib/gcc/nios2-elf/10.1.1/../../../../../H-x86_64-pc-linux-gnu/nios2-elf/lib/mhw-mulx/libc.a(lib_a-fvwrite.o)
 .bss           0x00000000000173dc        0x0 /opt/intelFPGA/20.1.1/nios2eds/bin/gnu/H-x86_64-pc-linux-gnu/bin/../lib/gcc/nios2-elf/10.1.1/../../../../../H-x86_64-pc-linux-gnu/nios2-elf/lib/mhw-mulx/libc.a(lib_a-fwalk.o)
 .bss           0x00000000000173dc        0x0 /opt/intelFPGA/20.1.1/nios2eds/bin/gnu/H-x86_64-pc-linux-gnu/bin/../lib/gcc/nios2-elf/10.1.1/../../../../../H-x86_64-pc-linux-gnu/nios2-elf/lib/mhw-mulx/libc.a(lib_a-impure.o)
 .bss           0x00000000000173dc        0x0 /opt/intelFPGA/20.1.1/nios2eds/bin/gnu/H-x86_64-pc-linux-gnu/bin/../lib/gcc/nios2-elf/10.1.1/../../../../../H-x86_64-pc-linux-gnu/nios2-elf/lib/mhw-mulx/libc.a(lib_a-mallocr.o)
 .bss.__malloc_current_mallinfo
                0x00000000000173dc       0x28 /opt/intelFPGA/20.1.1/nios2eds/bin/gnu/H-x86_64-pc-linux-gnu/bin/../lib/gcc/nios2-elf/10.1.1/../../../../../H-x86_64-pc-linux-gnu/nios2-elf/lib/mhw-mulx/libc.a(lib_a-mallocr.o)
                0x00000000000173dc                __malloc_current_mallinfo
 .bss           0x0000000000017404        0x0 /opt/intelFPGA/20.1.1/nios2eds/bin/gnu/H-x86_64-pc-linux-gnu/bin/../lib/gcc/nios2-elf/10.1.1/../../../../../H-x86_64-pc-linux-gnu/nios2-elf/lib/mhw-mulx/libc.a(lib_a-memchr.o)
 .bss           0x0000000000017404        0x0 /opt/intelFPGA/20.1.1/nios2eds/bin/gnu/H-x86_64-pc-linux-gnu/bin/../lib/gcc/nios2-elf/10.1.1/../../../../../H-x86_64-pc-linux-gnu/nios2-elf/lib/mhw-mulx/libc.a(lib_a-memcpy.o)
 .bss           0x0000000000017404        0x0 /opt/intelFPGA/20.1.1/nios2eds/bin/gnu/H-x86_64-pc-linux-gnu/bin/../lib/gcc/nios2-elf/10.1.1/../../../../../H-x86_64-pc-linux-gnu/nios2-elf/lib/mhw-mulx/libc.a(lib_a-memmove.o)
 .bss           0x0000000000017404        0x0 /opt/intelFPGA/20.1.1/nios2eds/bin/gnu/H-x86_64-pc-linux-gnu/bin/../lib/gcc/nios2-elf/10.1.1/../../../../../H-x86_64-pc-linux-gnu/nios2-elf/lib/mhw-mulx/libc.a(lib_a-memset.o)
 .bss           0x0000000000017404        0x0 /opt/intelFPGA/20.1.1/nios2eds/bin/gnu/H-x86_64-pc-linux-gnu/bin/../lib/gcc/nios2-elf/10.1.1/../../../../../H-x86_64-pc-linux-gnu/nios2-elf/lib/mhw-mulx/libc.a(lib_a-reallocr.o)
 .bss           0x0000000000017404        0x0 /opt/intelFPGA/20.1.1/nios2eds/bin/gnu/H-x86_64-pc-linux-gnu/bin/../lib/gcc/nios2-elf/10.1.1/../../../../../H-x86_64-pc-linux-gnu/nios2-elf/lib/mhw-mulx/libc.a(lib_a-sbrkr.o)
 .bss           0x0000000000017404        0x0 /opt/intelFPGA/20.1.1/nios2eds/bin/gnu/H-x86_64-pc-linux-gnu/bin/../lib/gcc/nios2-elf/10.1.1/../../../../../H-x86_64-pc-linux-gnu/nios2-elf/lib/mhw-mulx/libc.a(lib_a-stdio.o)
 .bss           0x0000000000017404        0x0 /opt/intelFPGA/20.1.1/nios2eds/bin/gnu/H-x86_64-pc-linux-gnu/bin/../lib/gcc/nios2-elf/10.1.1/../../../../../H-x86_64-pc-linux-gnu/nios2-elf/lib/mhw-mulx/libc.a(lib_a-writer.o)
 .bss           0x0000000000017404        0x0 /opt/intelFPGA/20.1.1/nios2eds/bin/gnu/H-x86_64-pc-linux-gnu/bin/../lib/gcc/nios2-elf/10.1.1/../../../../../H-x86_64-pc-linux-gnu/nios2-elf/lib/mhw-mulx/libc.a(lib_a-wsetup.o)
 .bss           0x0000000000017404        0x0 /opt/intelFPGA/20.1.1/nios2eds/bin/gnu/H-x86_64-pc-linux-gnu/bin/../lib/gcc/nios2-elf/10.1.1/../../../../../H-x86_64-pc-linux-gnu/nios2-elf/lib/mhw-mulx/libc.a(closer.o)
 .bss           0x0000000000017404        0x0 /opt/intelFPGA/20.1.1/nios2eds/bin/gnu/H-x86_64-pc-linux-gnu/bin/../lib/gcc/nios2-elf/10.1.1/../../../../../H-x86_64-pc-linux-gnu/nios2-elf/lib/mhw-mulx/libc.a(lib_a-fclose.o)
 .bss           0x0000000000017404        0x0 /opt/intelFPGA/20.1.1/nios2eds/bin/gnu/H-x86_64-pc-linux-gnu/bin/../lib/gcc/nios2-elf/10.1.1/../../../../../H-x86_64-pc-linux-gnu/nios2-elf/lib/mhw-mulx/libc.a(lib_a-fflush.o)
 .bss           0x0000000000017404        0x0 /opt/intelFPGA/20.1.1/nios2eds/bin/gnu/H-x86_64-pc-linux-gnu/bin/../lib/gcc/nios2-elf/10.1.1/../../../../../H-x86_64-pc-linux-gnu/nios2-elf/lib/mhw-mulx/libc.a(lib_a-freer.o)
 .bss           0x0000000000017404        0x0 /opt/intelFPGA/20.1.1/nios2eds/bin/gnu/H-x86_64-pc-linux-gnu/bin/../lib/gcc/nios2-elf/10.1.1/../../../../../H-x86_64-pc-linux-gnu/nios2-elf/lib/mhw-mulx/libc.a(lib_a-int_errno.o)
 .bss           0x0000000000017404        0x0 /opt/intelFPGA/20.1.1/nios2eds/bin/gnu/H-x86_64-pc-linux-gnu/bin/../lib/gcc/nios2-elf/10.1.1/../../../../../H-x86_64-pc-linux-gnu/nios2-elf/lib/mhw-mulx/libc.a(lib_a-lseekr.o)
 .bss           0x0000000000017404        0x0 /opt/intelFPGA/20.1.1/nios2eds/bin/gnu/H-x86_64-pc-linux-gnu/bin/../lib/gcc/nios2-elf/10.1.1/../../../../../H-x86_64-pc-linux-gnu/nios2-elf/lib/mhw-mulx/libc.a(lib_a-makebuf.o)
 .bss           0x0000000000017404        0x0 /opt/intelFPGA/20.1.1/nios2eds/bin/gnu/H-x86_64-pc-linux-gnu/bin/../lib/gcc/nios2-elf/10.1.1/../../../../../H-x86_64-pc-linux-gnu/nios2-elf/lib/mhw-mulx/libc.a(lib_a-readr.o)
 .bss           0x0000000000017404        0x0 /opt/intelFPGA/20.1.1/nios2eds/bin/gnu/H-x86_64-pc-linux-gnu/bin/../lib/gcc/nios2-elf/10.1.1/../../../../../H-x86_64-pc-linux-gnu/nios2-elf/lib/mhw-mulx/libc.a(lib_a-fstatr.o)
 .bss           0x0000000000017404        0x0 /opt/intelFPGA/20.1.1/nios2eds/bin/gnu/H-x86_64-pc-linux-gnu/bin/../lib/gcc/nios2-elf/10.1.1/../../../../../H-x86_64-pc-linux-gnu/nios2-elf/lib/mhw-mulx/libc.a(lib_a-isattyr.o)
 .bss           0x0000000000017404        0x0 /opt/intelFPGA/20.1.1/nios2eds/bin/gnu/H-x86_64-pc-linux-gnu/bin/../lib/gcc/nios2-elf/10.1.1/mhw-mulx/libgcc.a(lib2-divmod.o)
 .bss           0x0000000000017404        0x0 /home/xix277/engr-ece/Winter_Sem_2022/CME332/asn_test/test_prob_6_bsp//libucosii_bsp.a(alt_close.o)
 .bss           0x0000000000017404        0x0 /home/xix277/engr-ece/Winter_Sem_2022/CME332/asn_test/test_prob_6_bsp//libucosii_bsp.a(alt_dev.o)
 .bss           0x0000000000017404        0x0 /home/xix277/engr-ece/Winter_Sem_2022/CME332/asn_test/test_prob_6_bsp//libucosii_bsp.a(alt_errno.o)
 .bss           0x0000000000017404        0x0 /home/xix277/engr-ece/Winter_Sem_2022/CME332/asn_test/test_prob_6_bsp//libucosii_bsp.a(alt_fstat.o)
 .bss           0x0000000000017404        0x0 /home/xix277/engr-ece/Winter_Sem_2022/CME332/asn_test/test_prob_6_bsp//libucosii_bsp.a(alt_isatty.o)
 .bss           0x0000000000017404        0x0 /home/xix277/engr-ece/Winter_Sem_2022/CME332/asn_test/test_prob_6_bsp//libucosii_bsp.a(alt_load.o)
 .bss           0x0000000000017404        0x0 /home/xix277/engr-ece/Winter_Sem_2022/CME332/asn_test/test_prob_6_bsp//libucosii_bsp.a(alt_lseek.o)
 .bss           0x0000000000017404        0x0 /home/xix277/engr-ece/Winter_Sem_2022/CME332/asn_test/test_prob_6_bsp//libucosii_bsp.a(alt_main.o)
 .bss           0x0000000000017404        0x0 /home/xix277/engr-ece/Winter_Sem_2022/CME332/asn_test/test_prob_6_bsp//libucosii_bsp.a(alt_read.o)
 .bss           0x0000000000017404        0x0 /home/xix277/engr-ece/Winter_Sem_2022/CME332/asn_test/test_prob_6_bsp//libucosii_bsp.a(alt_release_fd.o)
 .bss           0x0000000000017404        0x0 /home/xix277/engr-ece/Winter_Sem_2022/CME332/asn_test/test_prob_6_bsp//libucosii_bsp.a(alt_sbrk.o)
 .bss           0x0000000000017404        0x0 /home/xix277/engr-ece/Winter_Sem_2022/CME332/asn_test/test_prob_6_bsp//libucosii_bsp.a(alt_write.o)
 .bss           0x0000000000017404        0x0 /home/xix277/engr-ece/Winter_Sem_2022/CME332/asn_test/test_prob_6_bsp//libucosii_bsp.a(alt_env_lock.o)
 .bss           0x0000000000017404        0x0 /home/xix277/engr-ece/Winter_Sem_2022/CME332/asn_test/test_prob_6_bsp//libucosii_bsp.a(alt_malloc_lock.o)
 .bss           0x0000000000017404     0x3224 /home/xix277/engr-ece/Winter_Sem_2022/CME332/asn_test/test_prob_6_bsp//libucosii_bsp.a(os_core.o)
                0x0000000000017404                OSEventTbl
                0x0000000000017f44                OSFlagTbl
                0x00000000000182b4                OSTaskStatStk
                0x0000000000018ab4                OSTaskIdleStk
                0x00000000000192b4                OSTCBPrioTbl
                0x0000000000019308                OSTCBTbl
                0x0000000000019818                OSMemTbl
                0x000000000001a448                OSQTbl
 .bss           0x000000000001a628        0x0 /home/xix277/engr-ece/Winter_Sem_2022/CME332/asn_test/test_prob_6_bsp//libucosii_bsp.a(os_dbg.o)
 .bss           0x000000000001a628        0x0 /home/xix277/engr-ece/Winter_Sem_2022/CME332/asn_test/test_prob_6_bsp//libucosii_bsp.a(os_flag.o)
 .bss           0x000000000001a628        0x0 /home/xix277/engr-ece/Winter_Sem_2022/CME332/asn_test/test_prob_6_bsp//libucosii_bsp.a(os_mem.o)
 .bss           0x000000000001a628        0x0 /home/xix277/engr-ece/Winter_Sem_2022/CME332/asn_test/test_prob_6_bsp//libucosii_bsp.a(os_q.o)
 .bss           0x000000000001a628        0x0 /home/xix277/engr-ece/Winter_Sem_2022/CME332/asn_test/test_prob_6_bsp//libucosii_bsp.a(os_sem.o)
 .bss           0x000000000001a628        0x0 /home/xix277/engr-ece/Winter_Sem_2022/CME332/asn_test/test_prob_6_bsp//libucosii_bsp.a(os_task.o)
 .bss           0x000000000001a628        0x0 /home/xix277/engr-ece/Winter_Sem_2022/CME332/asn_test/test_prob_6_bsp//libucosii_bsp.a(os_time.o)
 .bss           0x000000000001a628        0x0 /home/xix277/engr-ece/Winter_Sem_2022/CME332/asn_test/test_prob_6_bsp//libucosii_bsp.a(alt_sys_init.o)
 .bss           0x000000000001a628        0x0 /home/xix277/engr-ece/Winter_Sem_2022/CME332/asn_test/test_prob_6_bsp//libucosii_bsp.a(altera_avalon_jtag_uart_fd.o)
 .bss           0x000000000001a628        0x0 /home/xix277/engr-ece/Winter_Sem_2022/CME332/asn_test/test_prob_6_bsp//libucosii_bsp.a(altera_avalon_jtag_uart_init.o)
 .bss           0x000000000001a628        0x0 /home/xix277/engr-ece/Winter_Sem_2022/CME332/asn_test/test_prob_6_bsp//libucosii_bsp.a(altera_avalon_jtag_uart_ioctl.o)
 .bss           0x000000000001a628        0x0 /home/xix277/engr-ece/Winter_Sem_2022/CME332/asn_test/test_prob_6_bsp//libucosii_bsp.a(altera_avalon_jtag_uart_read.o)
 .bss           0x000000000001a628        0x0 /home/xix277/engr-ece/Winter_Sem_2022/CME332/asn_test/test_prob_6_bsp//libucosii_bsp.a(altera_avalon_jtag_uart_write.o)
 .bss           0x000000000001a628        0x0 /home/xix277/engr-ece/Winter_Sem_2022/CME332/asn_test/test_prob_6_bsp//libucosii_bsp.a(altera_avalon_timer_sc.o)
 .bss           0x000000000001a628        0x0 /home/xix277/engr-ece/Winter_Sem_2022/CME332/asn_test/test_prob_6_bsp//libucosii_bsp.a(altera_up_avalon_character_lcd.o)
 .bss           0x000000000001a628        0x0 /home/xix277/engr-ece/Winter_Sem_2022/CME332/asn_test/test_prob_6_bsp//libucosii_bsp.a(altera_up_avalon_irda.o)
 .bss           0x000000000001a628        0x0 /home/xix277/engr-ece/Winter_Sem_2022/CME332/asn_test/test_prob_6_bsp//libucosii_bsp.a(altera_up_avalon_ps2.o)
 .bss           0x000000000001a628        0x0 /home/xix277/engr-ece/Winter_Sem_2022/CME332/asn_test/test_prob_6_bsp//libucosii_bsp.a(altera_up_avalon_rs232.o)
 .bss           0x000000000001a628        0x0 /home/xix277/engr-ece/Winter_Sem_2022/CME332/asn_test/test_prob_6_bsp//libucosii_bsp.a(alt_alarm_start.o)
 .bss           0x000000000001a628        0x0 /home/xix277/engr-ece/Winter_Sem_2022/CME332/asn_test/test_prob_6_bsp//libucosii_bsp.a(alt_dcache_flush_all.o)
 .bss           0x000000000001a628        0x0 /home/xix277/engr-ece/Winter_Sem_2022/CME332/asn_test/test_prob_6_bsp//libucosii_bsp.a(alt_dev_llist_insert.o)
 .bss           0x000000000001a628        0x0 /home/xix277/engr-ece/Winter_Sem_2022/CME332/asn_test/test_prob_6_bsp//libucosii_bsp.a(alt_do_ctors.o)
 .bss           0x000000000001a628        0x0 /home/xix277/engr-ece/Winter_Sem_2022/CME332/asn_test/test_prob_6_bsp//libucosii_bsp.a(alt_do_dtors.o)
 .bss           0x000000000001a628        0x0 /home/xix277/engr-ece/Winter_Sem_2022/CME332/asn_test/test_prob_6_bsp//libucosii_bsp.a(alt_find_dev.o)
 .bss           0x000000000001a628        0x0 /home/xix277/engr-ece/Winter_Sem_2022/CME332/asn_test/test_prob_6_bsp//libucosii_bsp.a(alt_icache_flush_all.o)
 .bss           0x000000000001a628        0x0 /home/xix277/engr-ece/Winter_Sem_2022/CME332/asn_test/test_prob_6_bsp//libucosii_bsp.a(alt_io_redirect.o)
 .bss           0x000000000001a628        0x0 /home/xix277/engr-ece/Winter_Sem_2022/CME332/asn_test/test_prob_6_bsp//libucosii_bsp.a(alt_irq_register.o)
 .bss           0x000000000001a628        0x0 /home/xix277/engr-ece/Winter_Sem_2022/CME332/asn_test/test_prob_6_bsp//libucosii_bsp.a(alt_irq_vars.o)
 .bss           0x000000000001a628        0x0 /home/xix277/engr-ece/Winter_Sem_2022/CME332/asn_test/test_prob_6_bsp//libucosii_bsp.a(alt_open.o)
 .bss           0x000000000001a628        0x0 /home/xix277/engr-ece/Winter_Sem_2022/CME332/asn_test/test_prob_6_bsp//libucosii_bsp.a(alt_tick.o)
 .bss           0x000000000001a628        0x0 /home/xix277/engr-ece/Winter_Sem_2022/CME332/asn_test/test_prob_6_bsp//libucosii_bsp.a(altera_nios2_gen2_irq.o)
 .bss           0x000000000001a628        0x0 /home/xix277/engr-ece/Winter_Sem_2022/CME332/asn_test/test_prob_6_bsp//libucosii_bsp.a(os_cpu_a.o)
 .bss           0x000000000001a628        0x0 /home/xix277/engr-ece/Winter_Sem_2022/CME332/asn_test/test_prob_6_bsp//libucosii_bsp.a(os_cpu_c.o)
 .bss           0x000000000001a628        0x0 /home/xix277/engr-ece/Winter_Sem_2022/CME332/asn_test/test_prob_6_bsp//libucosii_bsp.a(alt_find_file.o)
 .bss           0x000000000001a628        0x0 /home/xix277/engr-ece/Winter_Sem_2022/CME332/asn_test/test_prob_6_bsp//libucosii_bsp.a(alt_get_fd.o)
 .bss           0x000000000001a628        0x0 /home/xix277/engr-ece/Winter_Sem_2022/CME332/asn_test/test_prob_6_bsp//libucosii_bsp.a(alt_icache_flush.o)
 .bss           0x000000000001a628        0x0 /home/xix277/engr-ece/Winter_Sem_2022/CME332/asn_test/test_prob_6_bsp//libucosii_bsp.a(alt_irq_entry.o)
 .bss           0x000000000001a628      0x100 /home/xix277/engr-ece/Winter_Sem_2022/CME332/asn_test/test_prob_6_bsp//libucosii_bsp.a(alt_irq_handler.o)
                0x000000000001a628                alt_irq
 .bss           0x000000000001a728        0x0 /home/xix277/engr-ece/Winter_Sem_2022/CME332/asn_test/test_prob_6_bsp//libucosii_bsp.a(alt_exception_entry.o)
 .bss           0x000000000001a728        0x0 /home/xix277/engr-ece/Winter_Sem_2022/CME332/asn_test/test_prob_6_bsp//libucosii_bsp.a(alt_instruction_exception_entry.o)
 .bss           0x000000000001a728        0x0 /opt/intelFPGA/20.1.1/nios2eds/bin/gnu/H-x86_64-pc-linux-gnu/bin/../lib/gcc/nios2-elf/10.1.1/../../../../../H-x86_64-pc-linux-gnu/nios2-elf/lib/mhw-mulx/libc.a(lib_a-atexit.o)
 .bss           0x000000000001a728        0x0 /opt/intelFPGA/20.1.1/nios2eds/bin/gnu/H-x86_64-pc-linux-gnu/bin/../lib/gcc/nios2-elf/10.1.1/../../../../../H-x86_64-pc-linux-gnu/nios2-elf/lib/mhw-mulx/libc.a(lib_a-exit.o)
 .bss           0x000000000001a728        0x0 /opt/intelFPGA/20.1.1/nios2eds/bin/gnu/H-x86_64-pc-linux-gnu/bin/../lib/gcc/nios2-elf/10.1.1/../../../../../H-x86_64-pc-linux-gnu/nios2-elf/lib/mhw-mulx/libc.a(lib_a-memcmp.o)
 .bss           0x000000000001a728        0x0 /opt/intelFPGA/20.1.1/nios2eds/bin/gnu/H-x86_64-pc-linux-gnu/bin/../lib/gcc/nios2-elf/10.1.1/../../../../../H-x86_64-pc-linux-gnu/nios2-elf/lib/mhw-mulx/libc.a(lib_a-__atexit.o)
 .bss           0x000000000001a728        0x0 /opt/intelFPGA/20.1.1/nios2eds/bin/gnu/H-x86_64-pc-linux-gnu/bin/../lib/gcc/nios2-elf/10.1.1/../../../../../H-x86_64-pc-linux-gnu/nios2-elf/lib/mhw-mulx/libc.a(lib_a-__call_atexit.o)
 .bss           0x000000000001a728        0x0 /home/xix277/engr-ece/Winter_Sem_2022/CME332/asn_test/test_prob_6_bsp//libucosii_bsp.a(alt_exit.o)
 *(COMMON)
                0x000000000001a728                . = ALIGN (0x4)
                0x000000000001a728                __bss_end = ABSOLUTE (.)

.SDRAM          0x000000000001a728        0x0
                [!provide]                        PROVIDE (_alt_partition_SDRAM_start = ABSOLUTE (.))
 *(.SDRAM .SDRAM. SDRAM.*)
                0x000000000001a728                . = ALIGN (0x4)
                [!provide]                        PROVIDE (_alt_partition_SDRAM_end = ABSOLUTE (.))
                0x000000000001a728                _end = ABSOLUTE (.)
                0x000000000001a728                end = ABSOLUTE (.)
                0x000000000001a728                __alt_stack_base = ABSOLUTE (.)
                [!provide]                        PROVIDE (_alt_partition_SDRAM_load_addr = LOADADDR (.SDRAM))

.VGA_Subsystem_Char_Buf_Subsystem_Onchip_SRAM
                0x0000000009000000        0x0 load address 0x000000000001a728
                [!provide]                        PROVIDE (_alt_partition_VGA_Subsystem_Char_Buf_Subsystem_Onchip_SRAM_start = ABSOLUTE (.))
 *(.VGA_Subsystem_Char_Buf_Subsystem_Onchip_SRAM .VGA_Subsystem_Char_Buf_Subsystem_Onchip_SRAM. VGA_Subsystem_Char_Buf_Subsystem_Onchip_SRAM.*)
                0x0000000009000000                . = ALIGN (0x4)
                [!provide]                        PROVIDE (_alt_partition_VGA_Subsystem_Char_Buf_Subsystem_Onchip_SRAM_end = ABSOLUTE (.))
                [!provide]                        PROVIDE (_alt_partition_VGA_Subsystem_Char_Buf_Subsystem_Onchip_SRAM_load_addr = LOADADDR (.VGA_Subsystem_Char_Buf_Subsystem_Onchip_SRAM))

.stab
 *(.stab)

.stabstr
 *(.stabstr)

.stab.excl
 *(.stab.excl)

.stab.exclstr
 *(.stab.exclstr)

.stab.index
 *(.stab.index)

.stab.indexstr
 *(.stab.indexstr)

.comment        0x0000000000000000       0x2d
 *(.comment)
 .comment       0x0000000000000000       0x2d obj/default/hello_ucosii.o
                                         0x2e (size before relaxing)
 .comment       0x000000000000002d       0x2e /opt/intelFPGA/20.1.1/nios2eds/bin/gnu/H-x86_64-pc-linux-gnu/bin/../lib/gcc/nios2-elf/10.1.1/../../../../../H-x86_64-pc-linux-gnu/nios2-elf/lib/mhw-mulx/libc.a(lib_a-puts.o)
 .comment       0x000000000000002d       0x2e /opt/intelFPGA/20.1.1/nios2eds/bin/gnu/H-x86_64-pc-linux-gnu/bin/../lib/gcc/nios2-elf/10.1.1/../../../../../H-x86_64-pc-linux-gnu/nios2-elf/lib/mhw-mulx/libc.a(lib_a-strlen.o)
 .comment       0x000000000000002d       0x2e /opt/intelFPGA/20.1.1/nios2eds/bin/gnu/H-x86_64-pc-linux-gnu/bin/../lib/gcc/nios2-elf/10.1.1/../../../../../H-x86_64-pc-linux-gnu/nios2-elf/lib/mhw-mulx/libc.a(lib_a-findfp.o)
 .comment       0x000000000000002d       0x2e /opt/intelFPGA/20.1.1/nios2eds/bin/gnu/H-x86_64-pc-linux-gnu/bin/../lib/gcc/nios2-elf/10.1.1/../../../../../H-x86_64-pc-linux-gnu/nios2-elf/lib/mhw-mulx/libc.a(lib_a-fvwrite.o)
 .comment       0x000000000000002d       0x2e /opt/intelFPGA/20.1.1/nios2eds/bin/gnu/H-x86_64-pc-linux-gnu/bin/../lib/gcc/nios2-elf/10.1.1/../../../../../H-x86_64-pc-linux-gnu/nios2-elf/lib/mhw-mulx/libc.a(lib_a-fwalk.o)
 .comment       0x000000000000002d       0x2e /opt/intelFPGA/20.1.1/nios2eds/bin/gnu/H-x86_64-pc-linux-gnu/bin/../lib/gcc/nios2-elf/10.1.1/../../../../../H-x86_64-pc-linux-gnu/nios2-elf/lib/mhw-mulx/libc.a(lib_a-impure.o)
 .comment       0x000000000000002d       0x2e /opt/intelFPGA/20.1.1/nios2eds/bin/gnu/H-x86_64-pc-linux-gnu/bin/../lib/gcc/nios2-elf/10.1.1/../../../../../H-x86_64-pc-linux-gnu/nios2-elf/lib/mhw-mulx/libc.a(lib_a-mallocr.o)
 .comment       0x000000000000002d       0x2e /opt/intelFPGA/20.1.1/nios2eds/bin/gnu/H-x86_64-pc-linux-gnu/bin/../lib/gcc/nios2-elf/10.1.1/../../../../../H-x86_64-pc-linux-gnu/nios2-elf/lib/mhw-mulx/libc.a(lib_a-memchr.o)
 .comment       0x000000000000002d       0x2e /opt/intelFPGA/20.1.1/nios2eds/bin/gnu/H-x86_64-pc-linux-gnu/bin/../lib/gcc/nios2-elf/10.1.1/../../../../../H-x86_64-pc-linux-gnu/nios2-elf/lib/mhw-mulx/libc.a(lib_a-memcpy.o)
 .comment       0x000000000000002d       0x2e /opt/intelFPGA/20.1.1/nios2eds/bin/gnu/H-x86_64-pc-linux-gnu/bin/../lib/gcc/nios2-elf/10.1.1/../../../../../H-x86_64-pc-linux-gnu/nios2-elf/lib/mhw-mulx/libc.a(lib_a-memmove.o)
 .comment       0x000000000000002d       0x2e /opt/intelFPGA/20.1.1/nios2eds/bin/gnu/H-x86_64-pc-linux-gnu/bin/../lib/gcc/nios2-elf/10.1.1/../../../../../H-x86_64-pc-linux-gnu/nios2-elf/lib/mhw-mulx/libc.a(lib_a-memset.o)
 .comment       0x000000000000002d       0x2e /opt/intelFPGA/20.1.1/nios2eds/bin/gnu/H-x86_64-pc-linux-gnu/bin/../lib/gcc/nios2-elf/10.1.1/../../../../../H-x86_64-pc-linux-gnu/nios2-elf/lib/mhw-mulx/libc.a(lib_a-reallocr.o)
 .comment       0x000000000000002d       0x2e /opt/intelFPGA/20.1.1/nios2eds/bin/gnu/H-x86_64-pc-linux-gnu/bin/../lib/gcc/nios2-elf/10.1.1/../../../../../H-x86_64-pc-linux-gnu/nios2-elf/lib/mhw-mulx/libc.a(lib_a-sbrkr.o)
 .comment       0x000000000000002d       0x2e /opt/intelFPGA/20.1.1/nios2eds/bin/gnu/H-x86_64-pc-linux-gnu/bin/../lib/gcc/nios2-elf/10.1.1/../../../../../H-x86_64-pc-linux-gnu/nios2-elf/lib/mhw-mulx/libc.a(lib_a-stdio.o)
 .comment       0x000000000000002d       0x2e /opt/intelFPGA/20.1.1/nios2eds/bin/gnu/H-x86_64-pc-linux-gnu/bin/../lib/gcc/nios2-elf/10.1.1/../../../../../H-x86_64-pc-linux-gnu/nios2-elf/lib/mhw-mulx/libc.a(lib_a-writer.o)
 .comment       0x000000000000002d       0x2e /opt/intelFPGA/20.1.1/nios2eds/bin/gnu/H-x86_64-pc-linux-gnu/bin/../lib/gcc/nios2-elf/10.1.1/../../../../../H-x86_64-pc-linux-gnu/nios2-elf/lib/mhw-mulx/libc.a(lib_a-wsetup.o)
 .comment       0x000000000000002d       0x2e /opt/intelFPGA/20.1.1/nios2eds/bin/gnu/H-x86_64-pc-linux-gnu/bin/../lib/gcc/nios2-elf/10.1.1/../../../../../H-x86_64-pc-linux-gnu/nios2-elf/lib/mhw-mulx/libc.a(closer.o)
 .comment       0x000000000000002d       0x2e /opt/intelFPGA/20.1.1/nios2eds/bin/gnu/H-x86_64-pc-linux-gnu/bin/../lib/gcc/nios2-elf/10.1.1/../../../../../H-x86_64-pc-linux-gnu/nios2-elf/lib/mhw-mulx/libc.a(lib_a-fclose.o)
 .comment       0x000000000000002d       0x2e /opt/intelFPGA/20.1.1/nios2eds/bin/gnu/H-x86_64-pc-linux-gnu/bin/../lib/gcc/nios2-elf/10.1.1/../../../../../H-x86_64-pc-linux-gnu/nios2-elf/lib/mhw-mulx/libc.a(lib_a-fflush.o)
 .comment       0x000000000000002d       0x2e /opt/intelFPGA/20.1.1/nios2eds/bin/gnu/H-x86_64-pc-linux-gnu/bin/../lib/gcc/nios2-elf/10.1.1/../../../../../H-x86_64-pc-linux-gnu/nios2-elf/lib/mhw-mulx/libc.a(lib_a-freer.o)
 .comment       0x000000000000002d       0x2e /opt/intelFPGA/20.1.1/nios2eds/bin/gnu/H-x86_64-pc-linux-gnu/bin/../lib/gcc/nios2-elf/10.1.1/../../../../../H-x86_64-pc-linux-gnu/nios2-elf/lib/mhw-mulx/libc.a(lib_a-int_errno.o)
 .comment       0x000000000000002d       0x2e /opt/intelFPGA/20.1.1/nios2eds/bin/gnu/H-x86_64-pc-linux-gnu/bin/../lib/gcc/nios2-elf/10.1.1/../../../../../H-x86_64-pc-linux-gnu/nios2-elf/lib/mhw-mulx/libc.a(lib_a-lseekr.o)
 .comment       0x000000000000002d       0x2e /opt/intelFPGA/20.1.1/nios2eds/bin/gnu/H-x86_64-pc-linux-gnu/bin/../lib/gcc/nios2-elf/10.1.1/../../../../../H-x86_64-pc-linux-gnu/nios2-elf/lib/mhw-mulx/libc.a(lib_a-makebuf.o)
 .comment       0x000000000000002d       0x2e /opt/intelFPGA/20.1.1/nios2eds/bin/gnu/H-x86_64-pc-linux-gnu/bin/../lib/gcc/nios2-elf/10.1.1/../../../../../H-x86_64-pc-linux-gnu/nios2-elf/lib/mhw-mulx/libc.a(lib_a-readr.o)
 .comment       0x000000000000002d       0x2e /opt/intelFPGA/20.1.1/nios2eds/bin/gnu/H-x86_64-pc-linux-gnu/bin/../lib/gcc/nios2-elf/10.1.1/../../../../../H-x86_64-pc-linux-gnu/nios2-elf/lib/mhw-mulx/libc.a(lib_a-fstatr.o)
 .comment       0x000000000000002d       0x2e /opt/intelFPGA/20.1.1/nios2eds/bin/gnu/H-x86_64-pc-linux-gnu/bin/../lib/gcc/nios2-elf/10.1.1/../../../../../H-x86_64-pc-linux-gnu/nios2-elf/lib/mhw-mulx/libc.a(lib_a-isattyr.o)
 .comment       0x000000000000002d       0x2e /opt/intelFPGA/20.1.1/nios2eds/bin/gnu/H-x86_64-pc-linux-gnu/bin/../lib/gcc/nios2-elf/10.1.1/mhw-mulx/libgcc.a(lib2-divmod.o)
 .comment       0x000000000000002d       0x2e /home/xix277/engr-ece/Winter_Sem_2022/CME332/asn_test/test_prob_6_bsp//libucosii_bsp.a(alt_close.o)
 .comment       0x000000000000002d       0x2e /home/xix277/engr-ece/Winter_Sem_2022/CME332/asn_test/test_prob_6_bsp//libucosii_bsp.a(alt_dev.o)
 .comment       0x000000000000002d       0x2e /home/xix277/engr-ece/Winter_Sem_2022/CME332/asn_test/test_prob_6_bsp//libucosii_bsp.a(alt_errno.o)
 .comment       0x000000000000002d       0x2e /home/xix277/engr-ece/Winter_Sem_2022/CME332/asn_test/test_prob_6_bsp//libucosii_bsp.a(alt_fstat.o)
 .comment       0x000000000000002d       0x2e /home/xix277/engr-ece/Winter_Sem_2022/CME332/asn_test/test_prob_6_bsp//libucosii_bsp.a(alt_isatty.o)
 .comment       0x000000000000002d       0x2e /home/xix277/engr-ece/Winter_Sem_2022/CME332/asn_test/test_prob_6_bsp//libucosii_bsp.a(alt_load.o)
 .comment       0x000000000000002d       0x2e /home/xix277/engr-ece/Winter_Sem_2022/CME332/asn_test/test_prob_6_bsp//libucosii_bsp.a(alt_lseek.o)
 .comment       0x000000000000002d       0x2e /home/xix277/engr-ece/Winter_Sem_2022/CME332/asn_test/test_prob_6_bsp//libucosii_bsp.a(alt_main.o)
 .comment       0x000000000000002d       0x2e /home/xix277/engr-ece/Winter_Sem_2022/CME332/asn_test/test_prob_6_bsp//libucosii_bsp.a(alt_read.o)
 .comment       0x000000000000002d       0x2e /home/xix277/engr-ece/Winter_Sem_2022/CME332/asn_test/test_prob_6_bsp//libucosii_bsp.a(alt_release_fd.o)
 .comment       0x000000000000002d       0x2e /home/xix277/engr-ece/Winter_Sem_2022/CME332/asn_test/test_prob_6_bsp//libucosii_bsp.a(alt_sbrk.o)
 .comment       0x000000000000002d       0x2e /home/xix277/engr-ece/Winter_Sem_2022/CME332/asn_test/test_prob_6_bsp//libucosii_bsp.a(alt_write.o)
 .comment       0x000000000000002d       0x2e /home/xix277/engr-ece/Winter_Sem_2022/CME332/asn_test/test_prob_6_bsp//libucosii_bsp.a(alt_env_lock.o)
 .comment       0x000000000000002d       0x2e /home/xix277/engr-ece/Winter_Sem_2022/CME332/asn_test/test_prob_6_bsp//libucosii_bsp.a(alt_malloc_lock.o)
 .comment       0x000000000000002d       0x2e /home/xix277/engr-ece/Winter_Sem_2022/CME332/asn_test/test_prob_6_bsp//libucosii_bsp.a(os_core.o)
 .comment       0x000000000000002d       0x2e /home/xix277/engr-ece/Winter_Sem_2022/CME332/asn_test/test_prob_6_bsp//libucosii_bsp.a(os_dbg.o)
 .comment       0x000000000000002d       0x2e /home/xix277/engr-ece/Winter_Sem_2022/CME332/asn_test/test_prob_6_bsp//libucosii_bsp.a(os_flag.o)
 .comment       0x000000000000002d       0x2e /home/xix277/engr-ece/Winter_Sem_2022/CME332/asn_test/test_prob_6_bsp//libucosii_bsp.a(os_mem.o)
 .comment       0x000000000000002d       0x2e /home/xix277/engr-ece/Winter_Sem_2022/CME332/asn_test/test_prob_6_bsp//libucosii_bsp.a(os_q.o)
 .comment       0x000000000000002d       0x2e /home/xix277/engr-ece/Winter_Sem_2022/CME332/asn_test/test_prob_6_bsp//libucosii_bsp.a(os_sem.o)
 .comment       0x000000000000002d       0x2e /home/xix277/engr-ece/Winter_Sem_2022/CME332/asn_test/test_prob_6_bsp//libucosii_bsp.a(os_task.o)
 .comment       0x000000000000002d       0x2e /home/xix277/engr-ece/Winter_Sem_2022/CME332/asn_test/test_prob_6_bsp//libucosii_bsp.a(os_time.o)
 .comment       0x000000000000002d       0x2e /home/xix277/engr-ece/Winter_Sem_2022/CME332/asn_test/test_prob_6_bsp//libucosii_bsp.a(alt_sys_init.o)
 .comment       0x000000000000002d       0x2e /home/xix277/engr-ece/Winter_Sem_2022/CME332/asn_test/test_prob_6_bsp//libucosii_bsp.a(altera_avalon_jtag_uart_fd.o)
 .comment       0x000000000000002d       0x2e /home/xix277/engr-ece/Winter_Sem_2022/CME332/asn_test/test_prob_6_bsp//libucosii_bsp.a(altera_avalon_jtag_uart_init.o)
 .comment       0x000000000000002d       0x2e /home/xix277/engr-ece/Winter_Sem_2022/CME332/asn_test/test_prob_6_bsp//libucosii_bsp.a(altera_avalon_jtag_uart_ioctl.o)
 .comment       0x000000000000002d       0x2e /home/xix277/engr-ece/Winter_Sem_2022/CME332/asn_test/test_prob_6_bsp//libucosii_bsp.a(altera_avalon_jtag_uart_read.o)
 .comment       0x000000000000002d       0x2e /home/xix277/engr-ece/Winter_Sem_2022/CME332/asn_test/test_prob_6_bsp//libucosii_bsp.a(altera_avalon_jtag_uart_write.o)
 .comment       0x000000000000002d       0x2e /home/xix277/engr-ece/Winter_Sem_2022/CME332/asn_test/test_prob_6_bsp//libucosii_bsp.a(altera_avalon_timer_sc.o)
 .comment       0x000000000000002d       0x2e /home/xix277/engr-ece/Winter_Sem_2022/CME332/asn_test/test_prob_6_bsp//libucosii_bsp.a(altera_up_avalon_character_lcd.o)
 .comment       0x000000000000002d       0x2e /home/xix277/engr-ece/Winter_Sem_2022/CME332/asn_test/test_prob_6_bsp//libucosii_bsp.a(altera_up_avalon_irda.o)
 .comment       0x000000000000002d       0x2e /home/xix277/engr-ece/Winter_Sem_2022/CME332/asn_test/test_prob_6_bsp//libucosii_bsp.a(altera_up_avalon_ps2.o)
 .comment       0x000000000000002d       0x2e /home/xix277/engr-ece/Winter_Sem_2022/CME332/asn_test/test_prob_6_bsp//libucosii_bsp.a(altera_up_avalon_rs232.o)
 .comment       0x000000000000002d       0x2e /home/xix277/engr-ece/Winter_Sem_2022/CME332/asn_test/test_prob_6_bsp//libucosii_bsp.a(alt_alarm_start.o)
 .comment       0x000000000000002d       0x2e /home/xix277/engr-ece/Winter_Sem_2022/CME332/asn_test/test_prob_6_bsp//libucosii_bsp.a(alt_dcache_flush_all.o)
 .comment       0x000000000000002d       0x2e /home/xix277/engr-ece/Winter_Sem_2022/CME332/asn_test/test_prob_6_bsp//libucosii_bsp.a(alt_dev_llist_insert.o)
 .comment       0x000000000000002d       0x2e /home/xix277/engr-ece/Winter_Sem_2022/CME332/asn_test/test_prob_6_bsp//libucosii_bsp.a(alt_do_ctors.o)
 .comment       0x000000000000002d       0x2e /home/xix277/engr-ece/Winter_Sem_2022/CME332/asn_test/test_prob_6_bsp//libucosii_bsp.a(alt_do_dtors.o)
 .comment       0x000000000000002d       0x2e /home/xix277/engr-ece/Winter_Sem_2022/CME332/asn_test/test_prob_6_bsp//libucosii_bsp.a(alt_find_dev.o)
 .comment       0x000000000000002d       0x2e /home/xix277/engr-ece/Winter_Sem_2022/CME332/asn_test/test_prob_6_bsp//libucosii_bsp.a(alt_icache_flush_all.o)
 .comment       0x000000000000002d       0x2e /home/xix277/engr-ece/Winter_Sem_2022/CME332/asn_test/test_prob_6_bsp//libucosii_bsp.a(alt_io_redirect.o)
 .comment       0x000000000000002d       0x2e /home/xix277/engr-ece/Winter_Sem_2022/CME332/asn_test/test_prob_6_bsp//libucosii_bsp.a(alt_irq_register.o)
 .comment       0x000000000000002d       0x2e /home/xix277/engr-ece/Winter_Sem_2022/CME332/asn_test/test_prob_6_bsp//libucosii_bsp.a(alt_irq_vars.o)
 .comment       0x000000000000002d       0x2e /home/xix277/engr-ece/Winter_Sem_2022/CME332/asn_test/test_prob_6_bsp//libucosii_bsp.a(alt_open.o)
 .comment       0x000000000000002d       0x2e /home/xix277/engr-ece/Winter_Sem_2022/CME332/asn_test/test_prob_6_bsp//libucosii_bsp.a(alt_tick.o)
 .comment       0x000000000000002d       0x2e /home/xix277/engr-ece/Winter_Sem_2022/CME332/asn_test/test_prob_6_bsp//libucosii_bsp.a(altera_nios2_gen2_irq.o)
 .comment       0x000000000000002d       0x2e /home/xix277/engr-ece/Winter_Sem_2022/CME332/asn_test/test_prob_6_bsp//libucosii_bsp.a(os_cpu_c.o)
 .comment       0x000000000000002d       0x2e /home/xix277/engr-ece/Winter_Sem_2022/CME332/asn_test/test_prob_6_bsp//libucosii_bsp.a(alt_find_file.o)
 .comment       0x000000000000002d       0x2e /home/xix277/engr-ece/Winter_Sem_2022/CME332/asn_test/test_prob_6_bsp//libucosii_bsp.a(alt_get_fd.o)
 .comment       0x000000000000002d       0x2e /home/xix277/engr-ece/Winter_Sem_2022/CME332/asn_test/test_prob_6_bsp//libucosii_bsp.a(alt_icache_flush.o)
 .comment       0x000000000000002d       0x2e /home/xix277/engr-ece/Winter_Sem_2022/CME332/asn_test/test_prob_6_bsp//libucosii_bsp.a(alt_irq_handler.o)
 .comment       0x000000000000002d       0x2e /home/xix277/engr-ece/Winter_Sem_2022/CME332/asn_test/test_prob_6_bsp//libucosii_bsp.a(alt_instruction_exception_entry.o)
 .comment       0x000000000000002d       0x2e /opt/intelFPGA/20.1.1/nios2eds/bin/gnu/H-x86_64-pc-linux-gnu/bin/../lib/gcc/nios2-elf/10.1.1/../../../../../H-x86_64-pc-linux-gnu/nios2-elf/lib/mhw-mulx/libc.a(lib_a-atexit.o)
 .comment       0x000000000000002d       0x2e /opt/intelFPGA/20.1.1/nios2eds/bin/gnu/H-x86_64-pc-linux-gnu/bin/../lib/gcc/nios2-elf/10.1.1/../../../../../H-x86_64-pc-linux-gnu/nios2-elf/lib/mhw-mulx/libc.a(lib_a-exit.o)
 .comment       0x000000000000002d       0x2e /opt/intelFPGA/20.1.1/nios2eds/bin/gnu/H-x86_64-pc-linux-gnu/bin/../lib/gcc/nios2-elf/10.1.1/../../../../../H-x86_64-pc-linux-gnu/nios2-elf/lib/mhw-mulx/libc.a(lib_a-memcmp.o)
 .comment       0x000000000000002d       0x2e /opt/intelFPGA/20.1.1/nios2eds/bin/gnu/H-x86_64-pc-linux-gnu/bin/../lib/gcc/nios2-elf/10.1.1/../../../../../H-x86_64-pc-linux-gnu/nios2-elf/lib/mhw-mulx/libc.a(lib_a-__atexit.o)
 .comment       0x000000000000002d       0x2e /opt/intelFPGA/20.1.1/nios2eds/bin/gnu/H-x86_64-pc-linux-gnu/bin/../lib/gcc/nios2-elf/10.1.1/../../../../../H-x86_64-pc-linux-gnu/nios2-elf/lib/mhw-mulx/libc.a(lib_a-__call_atexit.o)
 .comment       0x000000000000002d       0x2e /home/xix277/engr-ece/Winter_Sem_2022/CME332/asn_test/test_prob_6_bsp//libucosii_bsp.a(alt_exit.o)

.debug
 *(.debug)

.line
 *(.line)

.debug_srcinfo
 *(.debug_srcinfo)

.debug_sfnames
 *(.debug_sfnames)

.debug_aranges  0x0000000000000000      0xc00
 *(.debug_aranges)
 .debug_aranges
                0x0000000000000000       0x28 /home/xix277/engr-ece/Winter_Sem_2022/CME332/asn_test/test_prob_6_bsp//obj/HAL/src/crt0.o
 .debug_aranges
                0x0000000000000028       0x20 obj/default/hello_ucosii.o
 .debug_aranges
                0x0000000000000048       0x28 /opt/intelFPGA/20.1.1/nios2eds/bin/gnu/H-x86_64-pc-linux-gnu/bin/../lib/gcc/nios2-elf/10.1.1/../../../../../H-x86_64-pc-linux-gnu/nios2-elf/lib/mhw-mulx/libc.a(lib_a-puts.o)
 .debug_aranges
                0x0000000000000070       0x20 /opt/intelFPGA/20.1.1/nios2eds/bin/gnu/H-x86_64-pc-linux-gnu/bin/../lib/gcc/nios2-elf/10.1.1/../../../../../H-x86_64-pc-linux-gnu/nios2-elf/lib/mhw-mulx/libc.a(lib_a-strlen.o)
 .debug_aranges
                0x0000000000000090       0x68 /opt/intelFPGA/20.1.1/nios2eds/bin/gnu/H-x86_64-pc-linux-gnu/bin/../lib/gcc/nios2-elf/10.1.1/../../../../../H-x86_64-pc-linux-gnu/nios2-elf/lib/mhw-mulx/libc.a(lib_a-findfp.o)
 .debug_aranges
                0x00000000000000f8       0x20 /opt/intelFPGA/20.1.1/nios2eds/bin/gnu/H-x86_64-pc-linux-gnu/bin/../lib/gcc/nios2-elf/10.1.1/../../../../../H-x86_64-pc-linux-gnu/nios2-elf/lib/mhw-mulx/libc.a(lib_a-fvwrite.o)
 .debug_aranges
                0x0000000000000118       0x28 /opt/intelFPGA/20.1.1/nios2eds/bin/gnu/H-x86_64-pc-linux-gnu/bin/../lib/gcc/nios2-elf/10.1.1/../../../../../H-x86_64-pc-linux-gnu/nios2-elf/lib/mhw-mulx/libc.a(lib_a-fwalk.o)
 .debug_aranges
                0x0000000000000140       0x18 /opt/intelFPGA/20.1.1/nios2eds/bin/gnu/H-x86_64-pc-linux-gnu/bin/../lib/gcc/nios2-elf/10.1.1/../../../../../H-x86_64-pc-linux-gnu/nios2-elf/lib/mhw-mulx/libc.a(lib_a-impure.o)
 .debug_aranges
                0x0000000000000158       0x20 /opt/intelFPGA/20.1.1/nios2eds/bin/gnu/H-x86_64-pc-linux-gnu/bin/../lib/gcc/nios2-elf/10.1.1/../../../../../H-x86_64-pc-linux-gnu/nios2-elf/lib/mhw-mulx/libc.a(lib_a-mallocr.o)
 .debug_aranges
                0x0000000000000178       0x20 /opt/intelFPGA/20.1.1/nios2eds/bin/gnu/H-x86_64-pc-linux-gnu/bin/../lib/gcc/nios2-elf/10.1.1/../../../../../H-x86_64-pc-linux-gnu/nios2-elf/lib/mhw-mulx/libc.a(lib_a-memchr.o)
 .debug_aranges
                0x0000000000000198       0x20 /opt/intelFPGA/20.1.1/nios2eds/bin/gnu/H-x86_64-pc-linux-gnu/bin/../lib/gcc/nios2-elf/10.1.1/../../../../../H-x86_64-pc-linux-gnu/nios2-elf/lib/mhw-mulx/libc.a(lib_a-memcpy.o)
 .debug_aranges
                0x00000000000001b8       0x20 /opt/intelFPGA/20.1.1/nios2eds/bin/gnu/H-x86_64-pc-linux-gnu/bin/../lib/gcc/nios2-elf/10.1.1/../../../../../H-x86_64-pc-linux-gnu/nios2-elf/lib/mhw-mulx/libc.a(lib_a-memmove.o)
 .debug_aranges
                0x00000000000001d8       0x20 /opt/intelFPGA/20.1.1/nios2eds/bin/gnu/H-x86_64-pc-linux-gnu/bin/../lib/gcc/nios2-elf/10.1.1/../../../../../H-x86_64-pc-linux-gnu/nios2-elf/lib/mhw-mulx/libc.a(lib_a-memset.o)
 .debug_aranges
                0x00000000000001f8       0x20 /opt/intelFPGA/20.1.1/nios2eds/bin/gnu/H-x86_64-pc-linux-gnu/bin/../lib/gcc/nios2-elf/10.1.1/../../../../../H-x86_64-pc-linux-gnu/nios2-elf/lib/mhw-mulx/libc.a(lib_a-reallocr.o)
 .debug_aranges
                0x0000000000000218       0x20 /opt/intelFPGA/20.1.1/nios2eds/bin/gnu/H-x86_64-pc-linux-gnu/bin/../lib/gcc/nios2-elf/10.1.1/../../../../../H-x86_64-pc-linux-gnu/nios2-elf/lib/mhw-mulx/libc.a(lib_a-sbrkr.o)
 .debug_aranges
                0x0000000000000238       0x40 /opt/intelFPGA/20.1.1/nios2eds/bin/gnu/H-x86_64-pc-linux-gnu/bin/../lib/gcc/nios2-elf/10.1.1/../../../../../H-x86_64-pc-linux-gnu/nios2-elf/lib/mhw-mulx/libc.a(lib_a-stdio.o)
 .debug_aranges
                0x0000000000000278       0x20 /opt/intelFPGA/20.1.1/nios2eds/bin/gnu/H-x86_64-pc-linux-gnu/bin/../lib/gcc/nios2-elf/10.1.1/../../../../../H-x86_64-pc-linux-gnu/nios2-elf/lib/mhw-mulx/libc.a(lib_a-writer.o)
 .debug_aranges
                0x0000000000000298       0x20 /opt/intelFPGA/20.1.1/nios2eds/bin/gnu/H-x86_64-pc-linux-gnu/bin/../lib/gcc/nios2-elf/10.1.1/../../../../../H-x86_64-pc-linux-gnu/nios2-elf/lib/mhw-mulx/libc.a(lib_a-wsetup.o)
 .debug_aranges
                0x00000000000002b8       0x20 /opt/intelFPGA/20.1.1/nios2eds/bin/gnu/H-x86_64-pc-linux-gnu/bin/../lib/gcc/nios2-elf/10.1.1/../../../../../H-x86_64-pc-linux-gnu/nios2-elf/lib/mhw-mulx/libc.a(closer.o)
 .debug_aranges
                0x00000000000002d8       0x30 /opt/intelFPGA/20.1.1/nios2eds/bin/gnu/H-x86_64-pc-linux-gnu/bin/../lib/gcc/nios2-elf/10.1.1/../../../../../H-x86_64-pc-linux-gnu/nios2-elf/lib/mhw-mulx/libc.a(lib_a-fclose.o)
 .debug_aranges
                0x0000000000000308       0x30 /opt/intelFPGA/20.1.1/nios2eds/bin/gnu/H-x86_64-pc-linux-gnu/bin/../lib/gcc/nios2-elf/10.1.1/../../../../../H-x86_64-pc-linux-gnu/nios2-elf/lib/mhw-mulx/libc.a(lib_a-fflush.o)
 .debug_aranges
                0x0000000000000338       0x28 /opt/intelFPGA/20.1.1/nios2eds/bin/gnu/H-x86_64-pc-linux-gnu/bin/../lib/gcc/nios2-elf/10.1.1/../../../../../H-x86_64-pc-linux-gnu/nios2-elf/lib/mhw-mulx/libc.a(lib_a-freer.o)
 .debug_aranges
                0x0000000000000360       0x18 /opt/intelFPGA/20.1.1/nios2eds/bin/gnu/H-x86_64-pc-linux-gnu/bin/../lib/gcc/nios2-elf/10.1.1/../../../../../H-x86_64-pc-linux-gnu/nios2-elf/lib/mhw-mulx/libc.a(lib_a-int_errno.o)
 .debug_aranges
                0x0000000000000378       0x20 /opt/intelFPGA/20.1.1/nios2eds/bin/gnu/H-x86_64-pc-linux-gnu/bin/../lib/gcc/nios2-elf/10.1.1/../../../../../H-x86_64-pc-linux-gnu/nios2-elf/lib/mhw-mulx/libc.a(lib_a-lseekr.o)
 .debug_aranges
                0x0000000000000398       0x28 /opt/intelFPGA/20.1.1/nios2eds/bin/gnu/H-x86_64-pc-linux-gnu/bin/../lib/gcc/nios2-elf/10.1.1/../../../../../H-x86_64-pc-linux-gnu/nios2-elf/lib/mhw-mulx/libc.a(lib_a-makebuf.o)
 .debug_aranges
                0x00000000000003c0       0x20 /opt/intelFPGA/20.1.1/nios2eds/bin/gnu/H-x86_64-pc-linux-gnu/bin/../lib/gcc/nios2-elf/10.1.1/../../../../../H-x86_64-pc-linux-gnu/nios2-elf/lib/mhw-mulx/libc.a(lib_a-readr.o)
 .debug_aranges
                0x00000000000003e0       0x20 /opt/intelFPGA/20.1.1/nios2eds/bin/gnu/H-x86_64-pc-linux-gnu/bin/../lib/gcc/nios2-elf/10.1.1/../../../../../H-x86_64-pc-linux-gnu/nios2-elf/lib/mhw-mulx/libc.a(lib_a-fstatr.o)
 .debug_aranges
                0x0000000000000400       0x20 /opt/intelFPGA/20.1.1/nios2eds/bin/gnu/H-x86_64-pc-linux-gnu/bin/../lib/gcc/nios2-elf/10.1.1/../../../../../H-x86_64-pc-linux-gnu/nios2-elf/lib/mhw-mulx/libc.a(lib_a-isattyr.o)
 .debug_aranges
                0x0000000000000420       0x20 /opt/intelFPGA/20.1.1/nios2eds/bin/gnu/H-x86_64-pc-linux-gnu/bin/../lib/gcc/nios2-elf/10.1.1/mhw-mulx/libgcc.a(lib2-divmod.o)
 .debug_aranges
                0x0000000000000440       0x20 /home/xix277/engr-ece/Winter_Sem_2022/CME332/asn_test/test_prob_6_bsp//libucosii_bsp.a(alt_close.o)
 .debug_aranges
                0x0000000000000460       0x20 /home/xix277/engr-ece/Winter_Sem_2022/CME332/asn_test/test_prob_6_bsp//libucosii_bsp.a(alt_dev.o)
 .debug_aranges
                0x0000000000000480       0x18 /home/xix277/engr-ece/Winter_Sem_2022/CME332/asn_test/test_prob_6_bsp//libucosii_bsp.a(alt_errno.o)
 .debug_aranges
                0x0000000000000498       0x20 /home/xix277/engr-ece/Winter_Sem_2022/CME332/asn_test/test_prob_6_bsp//libucosii_bsp.a(alt_fstat.o)
 .debug_aranges
                0x00000000000004b8       0x20 /home/xix277/engr-ece/Winter_Sem_2022/CME332/asn_test/test_prob_6_bsp//libucosii_bsp.a(alt_isatty.o)
 .debug_aranges
                0x00000000000004d8       0x20 /home/xix277/engr-ece/Winter_Sem_2022/CME332/asn_test/test_prob_6_bsp//libucosii_bsp.a(alt_load.o)
 .debug_aranges
                0x00000000000004f8       0x20 /home/xix277/engr-ece/Winter_Sem_2022/CME332/asn_test/test_prob_6_bsp//libucosii_bsp.a(alt_lseek.o)
 .debug_aranges
                0x0000000000000518       0x20 /home/xix277/engr-ece/Winter_Sem_2022/CME332/asn_test/test_prob_6_bsp//libucosii_bsp.a(alt_main.o)
 .debug_aranges
                0x0000000000000538       0x20 /home/xix277/engr-ece/Winter_Sem_2022/CME332/asn_test/test_prob_6_bsp//libucosii_bsp.a(alt_read.o)
 .debug_aranges
                0x0000000000000558       0x20 /home/xix277/engr-ece/Winter_Sem_2022/CME332/asn_test/test_prob_6_bsp//libucosii_bsp.a(alt_release_fd.o)
 .debug_aranges
                0x0000000000000578       0x20 /home/xix277/engr-ece/Winter_Sem_2022/CME332/asn_test/test_prob_6_bsp//libucosii_bsp.a(alt_sbrk.o)
 .debug_aranges
                0x0000000000000598       0x20 /home/xix277/engr-ece/Winter_Sem_2022/CME332/asn_test/test_prob_6_bsp//libucosii_bsp.a(alt_write.o)
 .debug_aranges
                0x00000000000005b8       0x20 /home/xix277/engr-ece/Winter_Sem_2022/CME332/asn_test/test_prob_6_bsp//libucosii_bsp.a(alt_env_lock.o)
 .debug_aranges
                0x00000000000005d8       0x20 /home/xix277/engr-ece/Winter_Sem_2022/CME332/asn_test/test_prob_6_bsp//libucosii_bsp.a(alt_malloc_lock.o)
 .debug_aranges
                0x00000000000005f8       0x20 /home/xix277/engr-ece/Winter_Sem_2022/CME332/asn_test/test_prob_6_bsp//libucosii_bsp.a(os_core.o)
 .debug_aranges
                0x0000000000000618       0x20 /home/xix277/engr-ece/Winter_Sem_2022/CME332/asn_test/test_prob_6_bsp//libucosii_bsp.a(os_dbg.o)
 .debug_aranges
                0x0000000000000638       0x20 /home/xix277/engr-ece/Winter_Sem_2022/CME332/asn_test/test_prob_6_bsp//libucosii_bsp.a(os_flag.o)
 .debug_aranges
                0x0000000000000658       0x20 /home/xix277/engr-ece/Winter_Sem_2022/CME332/asn_test/test_prob_6_bsp//libucosii_bsp.a(os_mem.o)
 .debug_aranges
                0x0000000000000678       0x20 /home/xix277/engr-ece/Winter_Sem_2022/CME332/asn_test/test_prob_6_bsp//libucosii_bsp.a(os_q.o)
 .debug_aranges
                0x0000000000000698       0x20 /home/xix277/engr-ece/Winter_Sem_2022/CME332/asn_test/test_prob_6_bsp//libucosii_bsp.a(os_sem.o)
 .debug_aranges
                0x00000000000006b8       0x20 /home/xix277/engr-ece/Winter_Sem_2022/CME332/asn_test/test_prob_6_bsp//libucosii_bsp.a(os_task.o)
 .debug_aranges
                0x00000000000006d8       0x20 /home/xix277/engr-ece/Winter_Sem_2022/CME332/asn_test/test_prob_6_bsp//libucosii_bsp.a(os_time.o)
 .debug_aranges
                0x00000000000006f8       0x20 /home/xix277/engr-ece/Winter_Sem_2022/CME332/asn_test/test_prob_6_bsp//libucosii_bsp.a(alt_sys_init.o)
 .debug_aranges
                0x0000000000000718       0x20 /home/xix277/engr-ece/Winter_Sem_2022/CME332/asn_test/test_prob_6_bsp//libucosii_bsp.a(altera_avalon_jtag_uart_fd.o)
 .debug_aranges
                0x0000000000000738       0x20 /home/xix277/engr-ece/Winter_Sem_2022/CME332/asn_test/test_prob_6_bsp//libucosii_bsp.a(altera_avalon_jtag_uart_init.o)
 .debug_aranges
                0x0000000000000758       0x20 /home/xix277/engr-ece/Winter_Sem_2022/CME332/asn_test/test_prob_6_bsp//libucosii_bsp.a(altera_avalon_jtag_uart_ioctl.o)
 .debug_aranges
                0x0000000000000778       0x20 /home/xix277/engr-ece/Winter_Sem_2022/CME332/asn_test/test_prob_6_bsp//libucosii_bsp.a(altera_avalon_jtag_uart_read.o)
 .debug_aranges
                0x0000000000000798       0x20 /home/xix277/engr-ece/Winter_Sem_2022/CME332/asn_test/test_prob_6_bsp//libucosii_bsp.a(altera_avalon_jtag_uart_write.o)
 .debug_aranges
                0x00000000000007b8       0x20 /home/xix277/engr-ece/Winter_Sem_2022/CME332/asn_test/test_prob_6_bsp//libucosii_bsp.a(altera_avalon_timer_sc.o)
 .debug_aranges
                0x00000000000007d8       0x20 /home/xix277/engr-ece/Winter_Sem_2022/CME332/asn_test/test_prob_6_bsp//libucosii_bsp.a(altera_up_avalon_character_lcd.o)
 .debug_aranges
                0x00000000000007f8       0x20 /home/xix277/engr-ece/Winter_Sem_2022/CME332/asn_test/test_prob_6_bsp//libucosii_bsp.a(altera_up_avalon_irda.o)
 .debug_aranges
                0x0000000000000818       0x20 /home/xix277/engr-ece/Winter_Sem_2022/CME332/asn_test/test_prob_6_bsp//libucosii_bsp.a(altera_up_avalon_ps2.o)
 .debug_aranges
                0x0000000000000838       0x20 /home/xix277/engr-ece/Winter_Sem_2022/CME332/asn_test/test_prob_6_bsp//libucosii_bsp.a(altera_up_avalon_rs232.o)
 .debug_aranges
                0x0000000000000858       0x20 /home/xix277/engr-ece/Winter_Sem_2022/CME332/asn_test/test_prob_6_bsp//libucosii_bsp.a(alt_alarm_start.o)
 .debug_aranges
                0x0000000000000878       0x20 /home/xix277/engr-ece/Winter_Sem_2022/CME332/asn_test/test_prob_6_bsp//libucosii_bsp.a(alt_dcache_flush_all.o)
 .debug_aranges
                0x0000000000000898       0x20 /home/xix277/engr-ece/Winter_Sem_2022/CME332/asn_test/test_prob_6_bsp//libucosii_bsp.a(alt_dev_llist_insert.o)
 .debug_aranges
                0x00000000000008b8       0x20 /home/xix277/engr-ece/Winter_Sem_2022/CME332/asn_test/test_prob_6_bsp//libucosii_bsp.a(alt_do_ctors.o)
 .debug_aranges
                0x00000000000008d8       0x20 /home/xix277/engr-ece/Winter_Sem_2022/CME332/asn_test/test_prob_6_bsp//libucosii_bsp.a(alt_do_dtors.o)
 .debug_aranges
                0x00000000000008f8       0x20 /home/xix277/engr-ece/Winter_Sem_2022/CME332/asn_test/test_prob_6_bsp//libucosii_bsp.a(alt_find_dev.o)
 .debug_aranges
                0x0000000000000918       0x20 /home/xix277/engr-ece/Winter_Sem_2022/CME332/asn_test/test_prob_6_bsp//libucosii_bsp.a(alt_icache_flush_all.o)
 .debug_aranges
                0x0000000000000938       0x20 /home/xix277/engr-ece/Winter_Sem_2022/CME332/asn_test/test_prob_6_bsp//libucosii_bsp.a(alt_io_redirect.o)
 .debug_aranges
                0x0000000000000958       0x20 /home/xix277/engr-ece/Winter_Sem_2022/CME332/asn_test/test_prob_6_bsp//libucosii_bsp.a(alt_irq_register.o)
 .debug_aranges
                0x0000000000000978       0x18 /home/xix277/engr-ece/Winter_Sem_2022/CME332/asn_test/test_prob_6_bsp//libucosii_bsp.a(alt_irq_vars.o)
 .debug_aranges
                0x0000000000000990       0x20 /home/xix277/engr-ece/Winter_Sem_2022/CME332/asn_test/test_prob_6_bsp//libucosii_bsp.a(alt_open.o)
 .debug_aranges
                0x00000000000009b0       0x20 /home/xix277/engr-ece/Winter_Sem_2022/CME332/asn_test/test_prob_6_bsp//libucosii_bsp.a(alt_tick.o)
 .debug_aranges
                0x00000000000009d0       0x20 /home/xix277/engr-ece/Winter_Sem_2022/CME332/asn_test/test_prob_6_bsp//libucosii_bsp.a(altera_nios2_gen2_irq.o)
 .debug_aranges
                0x00000000000009f0       0x20 /home/xix277/engr-ece/Winter_Sem_2022/CME332/asn_test/test_prob_6_bsp//libucosii_bsp.a(os_cpu_a.o)
 .debug_aranges
                0x0000000000000a10       0x20 /home/xix277/engr-ece/Winter_Sem_2022/CME332/asn_test/test_prob_6_bsp//libucosii_bsp.a(os_cpu_c.o)
 .debug_aranges
                0x0000000000000a30       0x20 /home/xix277/engr-ece/Winter_Sem_2022/CME332/asn_test/test_prob_6_bsp//libucosii_bsp.a(alt_find_file.o)
 .debug_aranges
                0x0000000000000a50       0x20 /home/xix277/engr-ece/Winter_Sem_2022/CME332/asn_test/test_prob_6_bsp//libucosii_bsp.a(alt_get_fd.o)
 .debug_aranges
                0x0000000000000a70       0x20 /home/xix277/engr-ece/Winter_Sem_2022/CME332/asn_test/test_prob_6_bsp//libucosii_bsp.a(alt_icache_flush.o)
 .debug_aranges
                0x0000000000000a90       0x30 /home/xix277/engr-ece/Winter_Sem_2022/CME332/asn_test/test_prob_6_bsp//libucosii_bsp.a(alt_irq_entry.o)
 .debug_aranges
                0x0000000000000ac0       0x20 /home/xix277/engr-ece/Winter_Sem_2022/CME332/asn_test/test_prob_6_bsp//libucosii_bsp.a(alt_irq_handler.o)
 .debug_aranges
                0x0000000000000ae0       0x38 /home/xix277/engr-ece/Winter_Sem_2022/CME332/asn_test/test_prob_6_bsp//libucosii_bsp.a(alt_exception_entry.o)
 .debug_aranges
                0x0000000000000b18       0x28 /home/xix277/engr-ece/Winter_Sem_2022/CME332/asn_test/test_prob_6_bsp//libucosii_bsp.a(alt_instruction_exception_entry.o)
 .debug_aranges
                0x0000000000000b40       0x20 /opt/intelFPGA/20.1.1/nios2eds/bin/gnu/H-x86_64-pc-linux-gnu/bin/../lib/gcc/nios2-elf/10.1.1/../../../../../H-x86_64-pc-linux-gnu/nios2-elf/lib/mhw-mulx/libc.a(lib_a-atexit.o)
 .debug_aranges
                0x0000000000000b60       0x20 /opt/intelFPGA/20.1.1/nios2eds/bin/gnu/H-x86_64-pc-linux-gnu/bin/../lib/gcc/nios2-elf/10.1.1/../../../../../H-x86_64-pc-linux-gnu/nios2-elf/lib/mhw-mulx/libc.a(lib_a-exit.o)
 .debug_aranges
                0x0000000000000b80       0x20 /opt/intelFPGA/20.1.1/nios2eds/bin/gnu/H-x86_64-pc-linux-gnu/bin/../lib/gcc/nios2-elf/10.1.1/../../../../../H-x86_64-pc-linux-gnu/nios2-elf/lib/mhw-mulx/libc.a(lib_a-memcmp.o)
 .debug_aranges
                0x0000000000000ba0       0x20 /opt/intelFPGA/20.1.1/nios2eds/bin/gnu/H-x86_64-pc-linux-gnu/bin/../lib/gcc/nios2-elf/10.1.1/../../../../../H-x86_64-pc-linux-gnu/nios2-elf/lib/mhw-mulx/libc.a(lib_a-__atexit.o)
 .debug_aranges
                0x0000000000000bc0       0x20 /opt/intelFPGA/20.1.1/nios2eds/bin/gnu/H-x86_64-pc-linux-gnu/bin/../lib/gcc/nios2-elf/10.1.1/../../../../../H-x86_64-pc-linux-gnu/nios2-elf/lib/mhw-mulx/libc.a(lib_a-__call_atexit.o)
 .debug_aranges
                0x0000000000000be0       0x20 /home/xix277/engr-ece/Winter_Sem_2022/CME332/asn_test/test_prob_6_bsp//libucosii_bsp.a(alt_exit.o)

.debug_pubnames
 *(.debug_pubnames)

.debug_info     0x0000000000000000    0x22cdc
 *(.debug_info .gnu.linkonce.wi.*)
 .debug_info    0x0000000000000000       0x22 /home/xix277/engr-ece/Winter_Sem_2022/CME332/asn_test/test_prob_6_bsp//obj/HAL/src/crt0.o
 .debug_info    0x0000000000000022      0x19d obj/default/hello_ucosii.o
 .debug_info    0x00000000000001bf      0xae3 /opt/intelFPGA/20.1.1/nios2eds/bin/gnu/H-x86_64-pc-linux-gnu/bin/../lib/gcc/nios2-elf/10.1.1/../../../../../H-x86_64-pc-linux-gnu/nios2-elf/lib/mhw-mulx/libc.a(lib_a-puts.o)
 .debug_info    0x0000000000000ca2       0xee /opt/intelFPGA/20.1.1/nios2eds/bin/gnu/H-x86_64-pc-linux-gnu/bin/../lib/gcc/nios2-elf/10.1.1/../../../../../H-x86_64-pc-linux-gnu/nios2-elf/lib/mhw-mulx/libc.a(lib_a-strlen.o)
 .debug_info    0x0000000000000d90      0xee9 /opt/intelFPGA/20.1.1/nios2eds/bin/gnu/H-x86_64-pc-linux-gnu/bin/../lib/gcc/nios2-elf/10.1.1/../../../../../H-x86_64-pc-linux-gnu/nios2-elf/lib/mhw-mulx/libc.a(lib_a-findfp.o)
 .debug_info    0x0000000000001c79      0xca0 /opt/intelFPGA/20.1.1/nios2eds/bin/gnu/H-x86_64-pc-linux-gnu/bin/../lib/gcc/nios2-elf/10.1.1/../../../../../H-x86_64-pc-linux-gnu/nios2-elf/lib/mhw-mulx/libc.a(lib_a-fvwrite.o)
 .debug_info    0x0000000000002919      0xa6d /opt/intelFPGA/20.1.1/nios2eds/bin/gnu/H-x86_64-pc-linux-gnu/bin/../lib/gcc/nios2-elf/10.1.1/../../../../../H-x86_64-pc-linux-gnu/nios2-elf/lib/mhw-mulx/libc.a(lib_a-fwalk.o)
 .debug_info    0x0000000000003386      0x931 /opt/intelFPGA/20.1.1/nios2eds/bin/gnu/H-x86_64-pc-linux-gnu/bin/../lib/gcc/nios2-elf/10.1.1/../../../../../H-x86_64-pc-linux-gnu/nios2-elf/lib/mhw-mulx/libc.a(lib_a-impure.o)
 .debug_info    0x0000000000003cb7      0xe9a /opt/intelFPGA/20.1.1/nios2eds/bin/gnu/H-x86_64-pc-linux-gnu/bin/../lib/gcc/nios2-elf/10.1.1/../../../../../H-x86_64-pc-linux-gnu/nios2-elf/lib/mhw-mulx/libc.a(lib_a-mallocr.o)
 .debug_info    0x0000000000004b51      0x155 /opt/intelFPGA/20.1.1/nios2eds/bin/gnu/H-x86_64-pc-linux-gnu/bin/../lib/gcc/nios2-elf/10.1.1/../../../../../H-x86_64-pc-linux-gnu/nios2-elf/lib/mhw-mulx/libc.a(lib_a-memchr.o)
 .debug_info    0x0000000000004ca6      0x162 /opt/intelFPGA/20.1.1/nios2eds/bin/gnu/H-x86_64-pc-linux-gnu/bin/../lib/gcc/nios2-elf/10.1.1/../../../../../H-x86_64-pc-linux-gnu/nios2-elf/lib/mhw-mulx/libc.a(lib_a-memcpy.o)
 .debug_info    0x0000000000004e08      0x158 /opt/intelFPGA/20.1.1/nios2eds/bin/gnu/H-x86_64-pc-linux-gnu/bin/../lib/gcc/nios2-elf/10.1.1/../../../../../H-x86_64-pc-linux-gnu/nios2-elf/lib/mhw-mulx/libc.a(lib_a-memmove.o)
 .debug_info    0x0000000000004f60      0x13d /opt/intelFPGA/20.1.1/nios2eds/bin/gnu/H-x86_64-pc-linux-gnu/bin/../lib/gcc/nios2-elf/10.1.1/../../../../../H-x86_64-pc-linux-gnu/nios2-elf/lib/mhw-mulx/libc.a(lib_a-memset.o)
 .debug_info    0x000000000000509d      0xd8d /opt/intelFPGA/20.1.1/nios2eds/bin/gnu/H-x86_64-pc-linux-gnu/bin/../lib/gcc/nios2-elf/10.1.1/../../../../../H-x86_64-pc-linux-gnu/nios2-elf/lib/mhw-mulx/libc.a(lib_a-reallocr.o)
 .debug_info    0x0000000000005e2a      0x994 /opt/intelFPGA/20.1.1/nios2eds/bin/gnu/H-x86_64-pc-linux-gnu/bin/../lib/gcc/nios2-elf/10.1.1/../../../../../H-x86_64-pc-linux-gnu/nios2-elf/lib/mhw-mulx/libc.a(lib_a-sbrkr.o)
 .debug_info    0x00000000000067be      0xc23 /opt/intelFPGA/20.1.1/nios2eds/bin/gnu/H-x86_64-pc-linux-gnu/bin/../lib/gcc/nios2-elf/10.1.1/../../../../../H-x86_64-pc-linux-gnu/nios2-elf/lib/mhw-mulx/libc.a(lib_a-stdio.o)
 .debug_info    0x00000000000073e1      0x9c6 /opt/intelFPGA/20.1.1/nios2eds/bin/gnu/H-x86_64-pc-linux-gnu/bin/../lib/gcc/nios2-elf/10.1.1/../../../../../H-x86_64-pc-linux-gnu/nios2-elf/lib/mhw-mulx/libc.a(lib_a-writer.o)
 .debug_info    0x0000000000007da7      0x9c9 /opt/intelFPGA/20.1.1/nios2eds/bin/gnu/H-x86_64-pc-linux-gnu/bin/../lib/gcc/nios2-elf/10.1.1/../../../../../H-x86_64-pc-linux-gnu/nios2-elf/lib/mhw-mulx/libc.a(lib_a-wsetup.o)
 .debug_info    0x0000000000008770      0x971 /opt/intelFPGA/20.1.1/nios2eds/bin/gnu/H-x86_64-pc-linux-gnu/bin/../lib/gcc/nios2-elf/10.1.1/../../../../../H-x86_64-pc-linux-gnu/nios2-elf/lib/mhw-mulx/libc.a(closer.o)
 .debug_info    0x00000000000090e1      0xb4b /opt/intelFPGA/20.1.1/nios2eds/bin/gnu/H-x86_64-pc-linux-gnu/bin/../lib/gcc/nios2-elf/10.1.1/../../../../../H-x86_64-pc-linux-gnu/nios2-elf/lib/mhw-mulx/libc.a(lib_a-fclose.o)
 .debug_info    0x0000000000009c2c      0xbf6 /opt/intelFPGA/20.1.1/nios2eds/bin/gnu/H-x86_64-pc-linux-gnu/bin/../lib/gcc/nios2-elf/10.1.1/../../../../../H-x86_64-pc-linux-gnu/nios2-elf/lib/mhw-mulx/libc.a(lib_a-fflush.o)
 .debug_info    0x000000000000a822      0xced /opt/intelFPGA/20.1.1/nios2eds/bin/gnu/H-x86_64-pc-linux-gnu/bin/../lib/gcc/nios2-elf/10.1.1/../../../../../H-x86_64-pc-linux-gnu/nios2-elf/lib/mhw-mulx/libc.a(lib_a-freer.o)
 .debug_info    0x000000000000b50f       0x84 /opt/intelFPGA/20.1.1/nios2eds/bin/gnu/H-x86_64-pc-linux-gnu/bin/../lib/gcc/nios2-elf/10.1.1/../../../../../H-x86_64-pc-linux-gnu/nios2-elf/lib/mhw-mulx/libc.a(lib_a-int_errno.o)
 .debug_info    0x000000000000b593      0x9a7 /opt/intelFPGA/20.1.1/nios2eds/bin/gnu/H-x86_64-pc-linux-gnu/bin/../lib/gcc/nios2-elf/10.1.1/../../../../../H-x86_64-pc-linux-gnu/nios2-elf/lib/mhw-mulx/libc.a(lib_a-lseekr.o)
 .debug_info    0x000000000000bf3a      0xe0b /opt/intelFPGA/20.1.1/nios2eds/bin/gnu/H-x86_64-pc-linux-gnu/bin/../lib/gcc/nios2-elf/10.1.1/../../../../../H-x86_64-pc-linux-gnu/nios2-elf/lib/mhw-mulx/libc.a(lib_a-makebuf.o)
 .debug_info    0x000000000000cd45      0x9bf /opt/intelFPGA/20.1.1/nios2eds/bin/gnu/H-x86_64-pc-linux-gnu/bin/../lib/gcc/nios2-elf/10.1.1/../../../../../H-x86_64-pc-linux-gnu/nios2-elf/lib/mhw-mulx/libc.a(lib_a-readr.o)
 .debug_info    0x000000000000d704      0xb8a /opt/intelFPGA/20.1.1/nios2eds/bin/gnu/H-x86_64-pc-linux-gnu/bin/../lib/gcc/nios2-elf/10.1.1/../../../../../H-x86_64-pc-linux-gnu/nios2-elf/lib/mhw-mulx/libc.a(lib_a-fstatr.o)
 .debug_info    0x000000000000e28e      0x971 /opt/intelFPGA/20.1.1/nios2eds/bin/gnu/H-x86_64-pc-linux-gnu/bin/../lib/gcc/nios2-elf/10.1.1/../../../../../H-x86_64-pc-linux-gnu/nios2-elf/lib/mhw-mulx/libc.a(lib_a-isattyr.o)
 .debug_info    0x000000000000ebff      0x368 /opt/intelFPGA/20.1.1/nios2eds/bin/gnu/H-x86_64-pc-linux-gnu/bin/../lib/gcc/nios2-elf/10.1.1/mhw-mulx/libgcc.a(lib2-divmod.o)
 .debug_info    0x000000000000ef67      0x33a /home/xix277/engr-ece/Winter_Sem_2022/CME332/asn_test/test_prob_6_bsp//libucosii_bsp.a(alt_close.o)
 .debug_info    0x000000000000f2a1      0x652 /home/xix277/engr-ece/Winter_Sem_2022/CME332/asn_test/test_prob_6_bsp//libucosii_bsp.a(alt_dev.o)
 .debug_info    0x000000000000f8f3       0x9d /home/xix277/engr-ece/Winter_Sem_2022/CME332/asn_test/test_prob_6_bsp//libucosii_bsp.a(alt_errno.o)
 .debug_info    0x000000000000f990      0x538 /home/xix277/engr-ece/Winter_Sem_2022/CME332/asn_test/test_prob_6_bsp//libucosii_bsp.a(alt_fstat.o)
 .debug_info    0x000000000000fec8      0x53b /home/xix277/engr-ece/Winter_Sem_2022/CME332/asn_test/test_prob_6_bsp//libucosii_bsp.a(alt_isatty.o)
 .debug_info    0x0000000000010403      0x14d /home/xix277/engr-ece/Winter_Sem_2022/CME332/asn_test/test_prob_6_bsp//libucosii_bsp.a(alt_load.o)
 .debug_info    0x0000000000010550      0x37b /home/xix277/engr-ece/Winter_Sem_2022/CME332/asn_test/test_prob_6_bsp//libucosii_bsp.a(alt_lseek.o)
 .debug_info    0x00000000000108cb      0x211 /home/xix277/engr-ece/Winter_Sem_2022/CME332/asn_test/test_prob_6_bsp//libucosii_bsp.a(alt_main.o)
 .debug_info    0x0000000000010adc      0x563 /home/xix277/engr-ece/Winter_Sem_2022/CME332/asn_test/test_prob_6_bsp//libucosii_bsp.a(alt_read.o)
 .debug_info    0x000000000001103f      0x2d5 /home/xix277/engr-ece/Winter_Sem_2022/CME332/asn_test/test_prob_6_bsp//libucosii_bsp.a(alt_release_fd.o)
 .debug_info    0x0000000000011314      0x19c /home/xix277/engr-ece/Winter_Sem_2022/CME332/asn_test/test_prob_6_bsp//libucosii_bsp.a(alt_sbrk.o)
 .debug_info    0x00000000000114b0      0x56a /home/xix277/engr-ece/Winter_Sem_2022/CME332/asn_test/test_prob_6_bsp//libucosii_bsp.a(alt_write.o)
 .debug_info    0x0000000000011a1a      0xd00 /home/xix277/engr-ece/Winter_Sem_2022/CME332/asn_test/test_prob_6_bsp//libucosii_bsp.a(alt_env_lock.o)
 .debug_info    0x000000000001271a      0xe3e /home/xix277/engr-ece/Winter_Sem_2022/CME332/asn_test/test_prob_6_bsp//libucosii_bsp.a(alt_malloc_lock.o)
 .debug_info    0x0000000000013558     0x1614 /home/xix277/engr-ece/Winter_Sem_2022/CME332/asn_test/test_prob_6_bsp//libucosii_bsp.a(os_core.o)
 .debug_info    0x0000000000014b6c      0x4ac /home/xix277/engr-ece/Winter_Sem_2022/CME332/asn_test/test_prob_6_bsp//libucosii_bsp.a(os_dbg.o)
 .debug_info    0x0000000000015018      0xfc3 /home/xix277/engr-ece/Winter_Sem_2022/CME332/asn_test/test_prob_6_bsp//libucosii_bsp.a(os_flag.o)
 .debug_info    0x0000000000015fdb      0x65d /home/xix277/engr-ece/Winter_Sem_2022/CME332/asn_test/test_prob_6_bsp//libucosii_bsp.a(os_mem.o)
 .debug_info    0x0000000000016638      0xdae /home/xix277/engr-ece/Winter_Sem_2022/CME332/asn_test/test_prob_6_bsp//libucosii_bsp.a(os_q.o)
 .debug_info    0x00000000000173e6      0x9fd /home/xix277/engr-ece/Winter_Sem_2022/CME332/asn_test/test_prob_6_bsp//libucosii_bsp.a(os_sem.o)
 .debug_info    0x0000000000017de3     0x1127 /home/xix277/engr-ece/Winter_Sem_2022/CME332/asn_test/test_prob_6_bsp//libucosii_bsp.a(os_task.o)
 .debug_info    0x0000000000018f0a      0x6ef /home/xix277/engr-ece/Winter_Sem_2022/CME332/asn_test/test_prob_6_bsp//libucosii_bsp.a(os_time.o)
 .debug_info    0x00000000000195f9      0xb7c /home/xix277/engr-ece/Winter_Sem_2022/CME332/asn_test/test_prob_6_bsp//libucosii_bsp.a(alt_sys_init.o)
 .debug_info    0x000000000001a175      0x687 /home/xix277/engr-ece/Winter_Sem_2022/CME332/asn_test/test_prob_6_bsp//libucosii_bsp.a(altera_avalon_jtag_uart_fd.o)
 .debug_info    0x000000000001a7fc      0x6d0 /home/xix277/engr-ece/Winter_Sem_2022/CME332/asn_test/test_prob_6_bsp//libucosii_bsp.a(altera_avalon_jtag_uart_init.o)
 .debug_info    0x000000000001aecc      0x3bd /home/xix277/engr-ece/Winter_Sem_2022/CME332/asn_test/test_prob_6_bsp//libucosii_bsp.a(altera_avalon_jtag_uart_ioctl.o)
 .debug_info    0x000000000001b289      0x57f /home/xix277/engr-ece/Winter_Sem_2022/CME332/asn_test/test_prob_6_bsp//libucosii_bsp.a(altera_avalon_jtag_uart_read.o)
 .debug_info    0x000000000001b808      0x57d /home/xix277/engr-ece/Winter_Sem_2022/CME332/asn_test/test_prob_6_bsp//libucosii_bsp.a(altera_avalon_jtag_uart_write.o)
 .debug_info    0x000000000001bd85      0x1e3 /home/xix277/engr-ece/Winter_Sem_2022/CME332/asn_test/test_prob_6_bsp//libucosii_bsp.a(altera_avalon_timer_sc.o)
 .debug_info    0x000000000001bf68      0x628 /home/xix277/engr-ece/Winter_Sem_2022/CME332/asn_test/test_prob_6_bsp//libucosii_bsp.a(altera_up_avalon_character_lcd.o)
 .debug_info    0x000000000001c590      0x5ae /home/xix277/engr-ece/Winter_Sem_2022/CME332/asn_test/test_prob_6_bsp//libucosii_bsp.a(altera_up_avalon_irda.o)
 .debug_info    0x000000000001cb3e      0x840 /home/xix277/engr-ece/Winter_Sem_2022/CME332/asn_test/test_prob_6_bsp//libucosii_bsp.a(altera_up_avalon_ps2.o)
 .debug_info    0x000000000001d37e      0x5ae /home/xix277/engr-ece/Winter_Sem_2022/CME332/asn_test/test_prob_6_bsp//libucosii_bsp.a(altera_up_avalon_rs232.o)
 .debug_info    0x000000000001d92c      0x2dd /home/xix277/engr-ece/Winter_Sem_2022/CME332/asn_test/test_prob_6_bsp//libucosii_bsp.a(alt_alarm_start.o)
 .debug_info    0x000000000001dc09       0x8c /home/xix277/engr-ece/Winter_Sem_2022/CME332/asn_test/test_prob_6_bsp//libucosii_bsp.a(alt_dcache_flush_all.o)
 .debug_info    0x000000000001dc95      0x1b0 /home/xix277/engr-ece/Winter_Sem_2022/CME332/asn_test/test_prob_6_bsp//libucosii_bsp.a(alt_dev_llist_insert.o)
 .debug_info    0x000000000001de45       0x88 /home/xix277/engr-ece/Winter_Sem_2022/CME332/asn_test/test_prob_6_bsp//libucosii_bsp.a(alt_do_ctors.o)
 .debug_info    0x000000000001decd       0x88 /home/xix277/engr-ece/Winter_Sem_2022/CME332/asn_test/test_prob_6_bsp//libucosii_bsp.a(alt_do_dtors.o)
 .debug_info    0x000000000001df55      0x2fc /home/xix277/engr-ece/Winter_Sem_2022/CME332/asn_test/test_prob_6_bsp//libucosii_bsp.a(alt_find_dev.o)
 .debug_info    0x000000000001e251       0x8c /home/xix277/engr-ece/Winter_Sem_2022/CME332/asn_test/test_prob_6_bsp//libucosii_bsp.a(alt_icache_flush_all.o)
 .debug_info    0x000000000001e2dd      0x554 /home/xix277/engr-ece/Winter_Sem_2022/CME332/asn_test/test_prob_6_bsp//libucosii_bsp.a(alt_io_redirect.o)
 .debug_info    0x000000000001e831      0x305 /home/xix277/engr-ece/Winter_Sem_2022/CME332/asn_test/test_prob_6_bsp//libucosii_bsp.a(alt_irq_register.o)
 .debug_info    0x000000000001eb36       0x8b /home/xix277/engr-ece/Winter_Sem_2022/CME332/asn_test/test_prob_6_bsp//libucosii_bsp.a(alt_irq_vars.o)
 .debug_info    0x000000000001ebc1      0x3eb /home/xix277/engr-ece/Winter_Sem_2022/CME332/asn_test/test_prob_6_bsp//libucosii_bsp.a(alt_open.o)
 .debug_info    0x000000000001efac      0x2cb /home/xix277/engr-ece/Winter_Sem_2022/CME332/asn_test/test_prob_6_bsp//libucosii_bsp.a(alt_tick.o)
 .debug_info    0x000000000001f277       0x8c /home/xix277/engr-ece/Winter_Sem_2022/CME332/asn_test/test_prob_6_bsp//libucosii_bsp.a(altera_nios2_gen2_irq.o)
 .debug_info    0x000000000001f303       0x26 /home/xix277/engr-ece/Winter_Sem_2022/CME332/asn_test/test_prob_6_bsp//libucosii_bsp.a(os_cpu_a.o)
 .debug_info    0x000000000001f329      0xd96 /home/xix277/engr-ece/Winter_Sem_2022/CME332/asn_test/test_prob_6_bsp//libucosii_bsp.a(os_cpu_c.o)
 .debug_info    0x00000000000200bf      0x2f9 /home/xix277/engr-ece/Winter_Sem_2022/CME332/asn_test/test_prob_6_bsp//libucosii_bsp.a(alt_find_file.o)
 .debug_info    0x00000000000203b8      0x432 /home/xix277/engr-ece/Winter_Sem_2022/CME332/asn_test/test_prob_6_bsp//libucosii_bsp.a(alt_get_fd.o)
 .debug_info    0x00000000000207ea       0xdb /home/xix277/engr-ece/Winter_Sem_2022/CME332/asn_test/test_prob_6_bsp//libucosii_bsp.a(alt_icache_flush.o)
 .debug_info    0x00000000000208c5       0x22 /home/xix277/engr-ece/Winter_Sem_2022/CME332/asn_test/test_prob_6_bsp//libucosii_bsp.a(alt_irq_entry.o)
 .debug_info    0x00000000000208e7      0x188 /home/xix277/engr-ece/Winter_Sem_2022/CME332/asn_test/test_prob_6_bsp//libucosii_bsp.a(alt_irq_handler.o)
 .debug_info    0x0000000000020a6f       0x22 /home/xix277/engr-ece/Winter_Sem_2022/CME332/asn_test/test_prob_6_bsp//libucosii_bsp.a(alt_exception_entry.o)
 .debug_info    0x0000000000020a91      0x1f1 /home/xix277/engr-ece/Winter_Sem_2022/CME332/asn_test/test_prob_6_bsp//libucosii_bsp.a(alt_instruction_exception_entry.o)
 .debug_info    0x0000000000020c82      0x100 /opt/intelFPGA/20.1.1/nios2eds/bin/gnu/H-x86_64-pc-linux-gnu/bin/../lib/gcc/nios2-elf/10.1.1/../../../../../H-x86_64-pc-linux-gnu/nios2-elf/lib/mhw-mulx/libc.a(lib_a-atexit.o)
 .debug_info    0x0000000000020d82      0x970 /opt/intelFPGA/20.1.1/nios2eds/bin/gnu/H-x86_64-pc-linux-gnu/bin/../lib/gcc/nios2-elf/10.1.1/../../../../../H-x86_64-pc-linux-gnu/nios2-elf/lib/mhw-mulx/libc.a(lib_a-exit.o)
 .debug_info    0x00000000000216f2      0x138 /opt/intelFPGA/20.1.1/nios2eds/bin/gnu/H-x86_64-pc-linux-gnu/bin/../lib/gcc/nios2-elf/10.1.1/../../../../../H-x86_64-pc-linux-gnu/nios2-elf/lib/mhw-mulx/libc.a(lib_a-memcmp.o)
 .debug_info    0x000000000002182a      0x9b1 /opt/intelFPGA/20.1.1/nios2eds/bin/gnu/H-x86_64-pc-linux-gnu/bin/../lib/gcc/nios2-elf/10.1.1/../../../../../H-x86_64-pc-linux-gnu/nios2-elf/lib/mhw-mulx/libc.a(lib_a-__atexit.o)
 .debug_info    0x00000000000221db      0x9f9 /opt/intelFPGA/20.1.1/nios2eds/bin/gnu/H-x86_64-pc-linux-gnu/bin/../lib/gcc/nios2-elf/10.1.1/../../../../../H-x86_64-pc-linux-gnu/nios2-elf/lib/mhw-mulx/libc.a(lib_a-__call_atexit.o)
 .debug_info    0x0000000000022bd4      0x108 /home/xix277/engr-ece/Winter_Sem_2022/CME332/asn_test/test_prob_6_bsp//libucosii_bsp.a(alt_exit.o)

.debug_abbrev   0x0000000000000000     0x8aba
 *(.debug_abbrev)
 .debug_abbrev  0x0000000000000000       0x12 /home/xix277/engr-ece/Winter_Sem_2022/CME332/asn_test/test_prob_6_bsp//obj/HAL/src/crt0.o
 .debug_abbrev  0x0000000000000012       0xae obj/default/hello_ucosii.o
 .debug_abbrev  0x00000000000000c0      0x2a0 /opt/intelFPGA/20.1.1/nios2eds/bin/gnu/H-x86_64-pc-linux-gnu/bin/../lib/gcc/nios2-elf/10.1.1/../../../../../H-x86_64-pc-linux-gnu/nios2-elf/lib/mhw-mulx/libc.a(lib_a-puts.o)
 .debug_abbrev  0x0000000000000360       0x8f /opt/intelFPGA/20.1.1/nios2eds/bin/gnu/H-x86_64-pc-linux-gnu/bin/../lib/gcc/nios2-elf/10.1.1/../../../../../H-x86_64-pc-linux-gnu/nios2-elf/lib/mhw-mulx/libc.a(lib_a-strlen.o)
 .debug_abbrev  0x00000000000003ef      0x44c /opt/intelFPGA/20.1.1/nios2eds/bin/gnu/H-x86_64-pc-linux-gnu/bin/../lib/gcc/nios2-elf/10.1.1/../../../../../H-x86_64-pc-linux-gnu/nios2-elf/lib/mhw-mulx/libc.a(lib_a-findfp.o)
 .debug_abbrev  0x000000000000083b      0x295 /opt/intelFPGA/20.1.1/nios2eds/bin/gnu/H-x86_64-pc-linux-gnu/bin/../lib/gcc/nios2-elf/10.1.1/../../../../../H-x86_64-pc-linux-gnu/nios2-elf/lib/mhw-mulx/libc.a(lib_a-fvwrite.o)
 .debug_abbrev  0x0000000000000ad0      0x20f /opt/intelFPGA/20.1.1/nios2eds/bin/gnu/H-x86_64-pc-linux-gnu/bin/../lib/gcc/nios2-elf/10.1.1/../../../../../H-x86_64-pc-linux-gnu/nios2-elf/lib/mhw-mulx/libc.a(lib_a-fwalk.o)
 .debug_abbrev  0x0000000000000cdf      0x1c9 /opt/intelFPGA/20.1.1/nios2eds/bin/gnu/H-x86_64-pc-linux-gnu/bin/../lib/gcc/nios2-elf/10.1.1/../../../../../H-x86_64-pc-linux-gnu/nios2-elf/lib/mhw-mulx/libc.a(lib_a-impure.o)
 .debug_abbrev  0x0000000000000ea8      0x2f6 /opt/intelFPGA/20.1.1/nios2eds/bin/gnu/H-x86_64-pc-linux-gnu/bin/../lib/gcc/nios2-elf/10.1.1/../../../../../H-x86_64-pc-linux-gnu/nios2-elf/lib/mhw-mulx/libc.a(lib_a-mallocr.o)
 .debug_abbrev  0x000000000000119e       0xc3 /opt/intelFPGA/20.1.1/nios2eds/bin/gnu/H-x86_64-pc-linux-gnu/bin/../lib/gcc/nios2-elf/10.1.1/../../../../../H-x86_64-pc-linux-gnu/nios2-elf/lib/mhw-mulx/libc.a(lib_a-memchr.o)
 .debug_abbrev  0x0000000000001261       0xb6 /opt/intelFPGA/20.1.1/nios2eds/bin/gnu/H-x86_64-pc-linux-gnu/bin/../lib/gcc/nios2-elf/10.1.1/../../../../../H-x86_64-pc-linux-gnu/nios2-elf/lib/mhw-mulx/libc.a(lib_a-memcpy.o)
 .debug_abbrev  0x0000000000001317       0xaf /opt/intelFPGA/20.1.1/nios2eds/bin/gnu/H-x86_64-pc-linux-gnu/bin/../lib/gcc/nios2-elf/10.1.1/../../../../../H-x86_64-pc-linux-gnu/nios2-elf/lib/mhw-mulx/libc.a(lib_a-memmove.o)
 .debug_abbrev  0x00000000000013c6       0xb4 /opt/intelFPGA/20.1.1/nios2eds/bin/gnu/H-x86_64-pc-linux-gnu/bin/../lib/gcc/nios2-elf/10.1.1/../../../../../H-x86_64-pc-linux-gnu/nios2-elf/lib/mhw-mulx/libc.a(lib_a-memset.o)
 .debug_abbrev  0x000000000000147a      0x289 /opt/intelFPGA/20.1.1/nios2eds/bin/gnu/H-x86_64-pc-linux-gnu/bin/../lib/gcc/nios2-elf/10.1.1/../../../../../H-x86_64-pc-linux-gnu/nios2-elf/lib/mhw-mulx/libc.a(lib_a-reallocr.o)
 .debug_abbrev  0x0000000000001703      0x24e /opt/intelFPGA/20.1.1/nios2eds/bin/gnu/H-x86_64-pc-linux-gnu/bin/../lib/gcc/nios2-elf/10.1.1/../../../../../H-x86_64-pc-linux-gnu/nios2-elf/lib/mhw-mulx/libc.a(lib_a-sbrkr.o)
 .debug_abbrev  0x0000000000001951      0x273 /opt/intelFPGA/20.1.1/nios2eds/bin/gnu/H-x86_64-pc-linux-gnu/bin/../lib/gcc/nios2-elf/10.1.1/../../../../../H-x86_64-pc-linux-gnu/nios2-elf/lib/mhw-mulx/libc.a(lib_a-stdio.o)
 .debug_abbrev  0x0000000000001bc4      0x228 /opt/intelFPGA/20.1.1/nios2eds/bin/gnu/H-x86_64-pc-linux-gnu/bin/../lib/gcc/nios2-elf/10.1.1/../../../../../H-x86_64-pc-linux-gnu/nios2-elf/lib/mhw-mulx/libc.a(lib_a-writer.o)
 .debug_abbrev  0x0000000000001dec      0x257 /opt/intelFPGA/20.1.1/nios2eds/bin/gnu/H-x86_64-pc-linux-gnu/bin/../lib/gcc/nios2-elf/10.1.1/../../../../../H-x86_64-pc-linux-gnu/nios2-elf/lib/mhw-mulx/libc.a(lib_a-wsetup.o)
 .debug_abbrev  0x0000000000002043      0x223 /opt/intelFPGA/20.1.1/nios2eds/bin/gnu/H-x86_64-pc-linux-gnu/bin/../lib/gcc/nios2-elf/10.1.1/../../../../../H-x86_64-pc-linux-gnu/nios2-elf/lib/mhw-mulx/libc.a(closer.o)
 .debug_abbrev  0x0000000000002266      0x317 /opt/intelFPGA/20.1.1/nios2eds/bin/gnu/H-x86_64-pc-linux-gnu/bin/../lib/gcc/nios2-elf/10.1.1/../../../../../H-x86_64-pc-linux-gnu/nios2-elf/lib/mhw-mulx/libc.a(lib_a-fclose.o)
 .debug_abbrev  0x000000000000257d      0x344 /opt/intelFPGA/20.1.1/nios2eds/bin/gnu/H-x86_64-pc-linux-gnu/bin/../lib/gcc/nios2-elf/10.1.1/../../../../../H-x86_64-pc-linux-gnu/nios2-elf/lib/mhw-mulx/libc.a(lib_a-fflush.o)
 .debug_abbrev  0x00000000000028c1      0x2b1 /opt/intelFPGA/20.1.1/nios2eds/bin/gnu/H-x86_64-pc-linux-gnu/bin/../lib/gcc/nios2-elf/10.1.1/../../../../../H-x86_64-pc-linux-gnu/nios2-elf/lib/mhw-mulx/libc.a(lib_a-freer.o)
 .debug_abbrev  0x0000000000002b72       0x39 /opt/intelFPGA/20.1.1/nios2eds/bin/gnu/H-x86_64-pc-linux-gnu/bin/../lib/gcc/nios2-elf/10.1.1/../../../../../H-x86_64-pc-linux-gnu/nios2-elf/lib/mhw-mulx/libc.a(lib_a-int_errno.o)
 .debug_abbrev  0x0000000000002bab      0x237 /opt/intelFPGA/20.1.1/nios2eds/bin/gnu/H-x86_64-pc-linux-gnu/bin/../lib/gcc/nios2-elf/10.1.1/../../../../../H-x86_64-pc-linux-gnu/nios2-elf/lib/mhw-mulx/libc.a(lib_a-lseekr.o)
 .debug_abbrev  0x0000000000002de2      0x308 /opt/intelFPGA/20.1.1/nios2eds/bin/gnu/H-x86_64-pc-linux-gnu/bin/../lib/gcc/nios2-elf/10.1.1/../../../../../H-x86_64-pc-linux-gnu/nios2-elf/lib/mhw-mulx/libc.a(lib_a-makebuf.o)
 .debug_abbrev  0x00000000000030ea      0x223 /opt/intelFPGA/20.1.1/nios2eds/bin/gnu/H-x86_64-pc-linux-gnu/bin/../lib/gcc/nios2-elf/10.1.1/../../../../../H-x86_64-pc-linux-gnu/nios2-elf/lib/mhw-mulx/libc.a(lib_a-readr.o)
 .debug_abbrev  0x000000000000330d      0x237 /opt/intelFPGA/20.1.1/nios2eds/bin/gnu/H-x86_64-pc-linux-gnu/bin/../lib/gcc/nios2-elf/10.1.1/../../../../../H-x86_64-pc-linux-gnu/nios2-elf/lib/mhw-mulx/libc.a(lib_a-fstatr.o)
 .debug_abbrev  0x0000000000003544      0x223 /opt/intelFPGA/20.1.1/nios2eds/bin/gnu/H-x86_64-pc-linux-gnu/bin/../lib/gcc/nios2-elf/10.1.1/../../../../../H-x86_64-pc-linux-gnu/nios2-elf/lib/mhw-mulx/libc.a(lib_a-isattyr.o)
 .debug_abbrev  0x0000000000003767      0x103 /opt/intelFPGA/20.1.1/nios2eds/bin/gnu/H-x86_64-pc-linux-gnu/bin/../lib/gcc/nios2-elf/10.1.1/mhw-mulx/libgcc.a(lib2-divmod.o)
 .debug_abbrev  0x000000000000386a      0x133 /home/xix277/engr-ece/Winter_Sem_2022/CME332/asn_test/test_prob_6_bsp//libucosii_bsp.a(alt_close.o)
 .debug_abbrev  0x000000000000399d      0x155 /home/xix277/engr-ece/Winter_Sem_2022/CME332/asn_test/test_prob_6_bsp//libucosii_bsp.a(alt_dev.o)
 .debug_abbrev  0x0000000000003af2       0x5a /home/xix277/engr-ece/Winter_Sem_2022/CME332/asn_test/test_prob_6_bsp//libucosii_bsp.a(alt_errno.o)
 .debug_abbrev  0x0000000000003b4c      0x133 /home/xix277/engr-ece/Winter_Sem_2022/CME332/asn_test/test_prob_6_bsp//libucosii_bsp.a(alt_fstat.o)
 .debug_abbrev  0x0000000000003c7f      0x133 /home/xix277/engr-ece/Winter_Sem_2022/CME332/asn_test/test_prob_6_bsp//libucosii_bsp.a(alt_isatty.o)
 .debug_abbrev  0x0000000000003db2       0xab /home/xix277/engr-ece/Winter_Sem_2022/CME332/asn_test/test_prob_6_bsp//libucosii_bsp.a(alt_load.o)
 .debug_abbrev  0x0000000000003e5d      0x133 /home/xix277/engr-ece/Winter_Sem_2022/CME332/asn_test/test_prob_6_bsp//libucosii_bsp.a(alt_lseek.o)
 .debug_abbrev  0x0000000000003f90      0x12a /home/xix277/engr-ece/Winter_Sem_2022/CME332/asn_test/test_prob_6_bsp//libucosii_bsp.a(alt_main.o)
 .debug_abbrev  0x00000000000040ba      0x144 /home/xix277/engr-ece/Winter_Sem_2022/CME332/asn_test/test_prob_6_bsp//libucosii_bsp.a(alt_read.o)
 .debug_abbrev  0x00000000000041fe       0xea /home/xix277/engr-ece/Winter_Sem_2022/CME332/asn_test/test_prob_6_bsp//libucosii_bsp.a(alt_release_fd.o)
 .debug_abbrev  0x00000000000042e8      0x11d /home/xix277/engr-ece/Winter_Sem_2022/CME332/asn_test/test_prob_6_bsp//libucosii_bsp.a(alt_sbrk.o)
 .debug_abbrev  0x0000000000004405      0x149 /home/xix277/engr-ece/Winter_Sem_2022/CME332/asn_test/test_prob_6_bsp//libucosii_bsp.a(alt_write.o)
 .debug_abbrev  0x000000000000454e      0x21c /home/xix277/engr-ece/Winter_Sem_2022/CME332/asn_test/test_prob_6_bsp//libucosii_bsp.a(alt_env_lock.o)
 .debug_abbrev  0x000000000000476a      0x28f /home/xix277/engr-ece/Winter_Sem_2022/CME332/asn_test/test_prob_6_bsp//libucosii_bsp.a(alt_malloc_lock.o)
 .debug_abbrev  0x00000000000049f9      0x337 /home/xix277/engr-ece/Winter_Sem_2022/CME332/asn_test/test_prob_6_bsp//libucosii_bsp.a(os_core.o)
 .debug_abbrev  0x0000000000004d30       0x85 /home/xix277/engr-ece/Winter_Sem_2022/CME332/asn_test/test_prob_6_bsp//libucosii_bsp.a(os_dbg.o)
 .debug_abbrev  0x0000000000004db5      0x26b /home/xix277/engr-ece/Winter_Sem_2022/CME332/asn_test/test_prob_6_bsp//libucosii_bsp.a(os_flag.o)
 .debug_abbrev  0x0000000000005020      0x235 /home/xix277/engr-ece/Winter_Sem_2022/CME332/asn_test/test_prob_6_bsp//libucosii_bsp.a(os_mem.o)
 .debug_abbrev  0x0000000000005255      0x259 /home/xix277/engr-ece/Winter_Sem_2022/CME332/asn_test/test_prob_6_bsp//libucosii_bsp.a(os_q.o)
 .debug_abbrev  0x00000000000054ae      0x275 /home/xix277/engr-ece/Winter_Sem_2022/CME332/asn_test/test_prob_6_bsp//libucosii_bsp.a(os_sem.o)
 .debug_abbrev  0x0000000000005723      0x256 /home/xix277/engr-ece/Winter_Sem_2022/CME332/asn_test/test_prob_6_bsp//libucosii_bsp.a(os_task.o)
 .debug_abbrev  0x0000000000005979      0x21e /home/xix277/engr-ece/Winter_Sem_2022/CME332/asn_test/test_prob_6_bsp//libucosii_bsp.a(os_time.o)
 .debug_abbrev  0x0000000000005b97      0x208 /home/xix277/engr-ece/Winter_Sem_2022/CME332/asn_test/test_prob_6_bsp//libucosii_bsp.a(alt_sys_init.o)
 .debug_abbrev  0x0000000000005d9f      0x180 /home/xix277/engr-ece/Winter_Sem_2022/CME332/asn_test/test_prob_6_bsp//libucosii_bsp.a(altera_avalon_jtag_uart_fd.o)
 .debug_abbrev  0x0000000000005f1f      0x283 /home/xix277/engr-ece/Winter_Sem_2022/CME332/asn_test/test_prob_6_bsp//libucosii_bsp.a(altera_avalon_jtag_uart_init.o)
 .debug_abbrev  0x00000000000061a2      0x14c /home/xix277/engr-ece/Winter_Sem_2022/CME332/asn_test/test_prob_6_bsp//libucosii_bsp.a(altera_avalon_jtag_uart_ioctl.o)
 .debug_abbrev  0x00000000000062ee      0x235 /home/xix277/engr-ece/Winter_Sem_2022/CME332/asn_test/test_prob_6_bsp//libucosii_bsp.a(altera_avalon_jtag_uart_read.o)
 .debug_abbrev  0x0000000000006523      0x222 /home/xix277/engr-ece/Winter_Sem_2022/CME332/asn_test/test_prob_6_bsp//libucosii_bsp.a(altera_avalon_jtag_uart_write.o)
 .debug_abbrev  0x0000000000006745      0x14b /home/xix277/engr-ece/Winter_Sem_2022/CME332/asn_test/test_prob_6_bsp//libucosii_bsp.a(altera_avalon_timer_sc.o)
 .debug_abbrev  0x0000000000006890      0x167 /home/xix277/engr-ece/Winter_Sem_2022/CME332/asn_test/test_prob_6_bsp//libucosii_bsp.a(altera_up_avalon_character_lcd.o)
 .debug_abbrev  0x00000000000069f7      0x167 /home/xix277/engr-ece/Winter_Sem_2022/CME332/asn_test/test_prob_6_bsp//libucosii_bsp.a(altera_up_avalon_irda.o)
 .debug_abbrev  0x0000000000006b5e      0x1e1 /home/xix277/engr-ece/Winter_Sem_2022/CME332/asn_test/test_prob_6_bsp//libucosii_bsp.a(altera_up_avalon_ps2.o)
 .debug_abbrev  0x0000000000006d3f      0x167 /home/xix277/engr-ece/Winter_Sem_2022/CME332/asn_test/test_prob_6_bsp//libucosii_bsp.a(altera_up_avalon_rs232.o)
 .debug_abbrev  0x0000000000006ea6      0x188 /home/xix277/engr-ece/Winter_Sem_2022/CME332/asn_test/test_prob_6_bsp//libucosii_bsp.a(alt_alarm_start.o)
 .debug_abbrev  0x000000000000702e       0x44 /home/xix277/engr-ece/Winter_Sem_2022/CME332/asn_test/test_prob_6_bsp//libucosii_bsp.a(alt_dcache_flush_all.o)
 .debug_abbrev  0x0000000000007072      0x12a /home/xix277/engr-ece/Winter_Sem_2022/CME332/asn_test/test_prob_6_bsp//libucosii_bsp.a(alt_dev_llist_insert.o)
 .debug_abbrev  0x000000000000719c       0x81 /home/xix277/engr-ece/Winter_Sem_2022/CME332/asn_test/test_prob_6_bsp//libucosii_bsp.a(alt_do_ctors.o)
 .debug_abbrev  0x000000000000721d       0x81 /home/xix277/engr-ece/Winter_Sem_2022/CME332/asn_test/test_prob_6_bsp//libucosii_bsp.a(alt_do_dtors.o)
 .debug_abbrev  0x000000000000729e       0xed /home/xix277/engr-ece/Winter_Sem_2022/CME332/asn_test/test_prob_6_bsp//libucosii_bsp.a(alt_find_dev.o)
 .debug_abbrev  0x000000000000738b       0x44 /home/xix277/engr-ece/Winter_Sem_2022/CME332/asn_test/test_prob_6_bsp//libucosii_bsp.a(alt_icache_flush_all.o)
 .debug_abbrev  0x00000000000073cf      0x126 /home/xix277/engr-ece/Winter_Sem_2022/CME332/asn_test/test_prob_6_bsp//libucosii_bsp.a(alt_io_redirect.o)
 .debug_abbrev  0x00000000000074f5      0x1b0 /home/xix277/engr-ece/Winter_Sem_2022/CME332/asn_test/test_prob_6_bsp//libucosii_bsp.a(alt_irq_register.o)
 .debug_abbrev  0x00000000000076a5       0x44 /home/xix277/engr-ece/Winter_Sem_2022/CME332/asn_test/test_prob_6_bsp//libucosii_bsp.a(alt_irq_vars.o)
 .debug_abbrev  0x00000000000076e9      0x160 /home/xix277/engr-ece/Winter_Sem_2022/CME332/asn_test/test_prob_6_bsp//libucosii_bsp.a(alt_open.o)
 .debug_abbrev  0x0000000000007849      0x17a /home/xix277/engr-ece/Winter_Sem_2022/CME332/asn_test/test_prob_6_bsp//libucosii_bsp.a(alt_tick.o)
 .debug_abbrev  0x00000000000079c3       0x44 /home/xix277/engr-ece/Winter_Sem_2022/CME332/asn_test/test_prob_6_bsp//libucosii_bsp.a(altera_nios2_gen2_irq.o)
 .debug_abbrev  0x0000000000007a07       0x14 /home/xix277/engr-ece/Winter_Sem_2022/CME332/asn_test/test_prob_6_bsp//libucosii_bsp.a(os_cpu_a.o)
 .debug_abbrev  0x0000000000007a1b      0x24b /home/xix277/engr-ece/Winter_Sem_2022/CME332/asn_test/test_prob_6_bsp//libucosii_bsp.a(os_cpu_c.o)
 .debug_abbrev  0x0000000000007c66      0x100 /home/xix277/engr-ece/Winter_Sem_2022/CME332/asn_test/test_prob_6_bsp//libucosii_bsp.a(alt_find_file.o)
 .debug_abbrev  0x0000000000007d66      0x1ab /home/xix277/engr-ece/Winter_Sem_2022/CME332/asn_test/test_prob_6_bsp//libucosii_bsp.a(alt_get_fd.o)
 .debug_abbrev  0x0000000000007f11       0x96 /home/xix277/engr-ece/Winter_Sem_2022/CME332/asn_test/test_prob_6_bsp//libucosii_bsp.a(alt_icache_flush.o)
 .debug_abbrev  0x0000000000007fa7       0x12 /home/xix277/engr-ece/Winter_Sem_2022/CME332/asn_test/test_prob_6_bsp//libucosii_bsp.a(alt_irq_entry.o)
 .debug_abbrev  0x0000000000007fb9      0x12d /home/xix277/engr-ece/Winter_Sem_2022/CME332/asn_test/test_prob_6_bsp//libucosii_bsp.a(alt_irq_handler.o)
 .debug_abbrev  0x00000000000080e6       0x12 /home/xix277/engr-ece/Winter_Sem_2022/CME332/asn_test/test_prob_6_bsp//libucosii_bsp.a(alt_exception_entry.o)
 .debug_abbrev  0x00000000000080f8       0xea /home/xix277/engr-ece/Winter_Sem_2022/CME332/asn_test/test_prob_6_bsp//libucosii_bsp.a(alt_instruction_exception_entry.o)
 .debug_abbrev  0x00000000000081e2       0xb7 /opt/intelFPGA/20.1.1/nios2eds/bin/gnu/H-x86_64-pc-linux-gnu/bin/../lib/gcc/nios2-elf/10.1.1/../../../../../H-x86_64-pc-linux-gnu/nios2-elf/lib/mhw-mulx/libc.a(lib_a-atexit.o)
 .debug_abbrev  0x0000000000008299      0x21d /opt/intelFPGA/20.1.1/nios2eds/bin/gnu/H-x86_64-pc-linux-gnu/bin/../lib/gcc/nios2-elf/10.1.1/../../../../../H-x86_64-pc-linux-gnu/nios2-elf/lib/mhw-mulx/libc.a(lib_a-exit.o)
 .debug_abbrev  0x00000000000084b6       0x8d /opt/intelFPGA/20.1.1/nios2eds/bin/gnu/H-x86_64-pc-linux-gnu/bin/../lib/gcc/nios2-elf/10.1.1/../../../../../H-x86_64-pc-linux-gnu/nios2-elf/lib/mhw-mulx/libc.a(lib_a-memcmp.o)
 .debug_abbrev  0x0000000000008543      0x250 /opt/intelFPGA/20.1.1/nios2eds/bin/gnu/H-x86_64-pc-linux-gnu/bin/../lib/gcc/nios2-elf/10.1.1/../../../../../H-x86_64-pc-linux-gnu/nios2-elf/lib/mhw-mulx/libc.a(lib_a-__atexit.o)
 .debug_abbrev  0x0000000000008793      0x259 /opt/intelFPGA/20.1.1/nios2eds/bin/gnu/H-x86_64-pc-linux-gnu/bin/../lib/gcc/nios2-elf/10.1.1/../../../../../H-x86_64-pc-linux-gnu/nios2-elf/lib/mhw-mulx/libc.a(lib_a-__call_atexit.o)
 .debug_abbrev  0x00000000000089ec       0xce /home/xix277/engr-ece/Winter_Sem_2022/CME332/asn_test/test_prob_6_bsp//libucosii_bsp.a(alt_exit.o)

.debug_line     0x0000000000000000     0xdf1b
 *(.debug_line)
 .debug_line    0x0000000000000000       0x6c /home/xix277/engr-ece/Winter_Sem_2022/CME332/asn_test/test_prob_6_bsp//obj/HAL/src/crt0.o
 .debug_line    0x000000000000006c      0x110 obj/default/hello_ucosii.o
 .debug_line    0x000000000000017c      0x319 /opt/intelFPGA/20.1.1/nios2eds/bin/gnu/H-x86_64-pc-linux-gnu/bin/../lib/gcc/nios2-elf/10.1.1/../../../../../H-x86_64-pc-linux-gnu/nios2-elf/lib/mhw-mulx/libc.a(lib_a-puts.o)
 .debug_line    0x0000000000000495      0x1db /opt/intelFPGA/20.1.1/nios2eds/bin/gnu/H-x86_64-pc-linux-gnu/bin/../lib/gcc/nios2-elf/10.1.1/../../../../../H-x86_64-pc-linux-gnu/nios2-elf/lib/mhw-mulx/libc.a(lib_a-strlen.o)
 .debug_line    0x0000000000000670      0x69c /opt/intelFPGA/20.1.1/nios2eds/bin/gnu/H-x86_64-pc-linux-gnu/bin/../lib/gcc/nios2-elf/10.1.1/../../../../../H-x86_64-pc-linux-gnu/nios2-elf/lib/mhw-mulx/libc.a(lib_a-findfp.o)
 .debug_line    0x0000000000000d0c      0x70d /opt/intelFPGA/20.1.1/nios2eds/bin/gnu/H-x86_64-pc-linux-gnu/bin/../lib/gcc/nios2-elf/10.1.1/../../../../../H-x86_64-pc-linux-gnu/nios2-elf/lib/mhw-mulx/libc.a(lib_a-fvwrite.o)
 .debug_line    0x0000000000001419      0x369 /opt/intelFPGA/20.1.1/nios2eds/bin/gnu/H-x86_64-pc-linux-gnu/bin/../lib/gcc/nios2-elf/10.1.1/../../../../../H-x86_64-pc-linux-gnu/nios2-elf/lib/mhw-mulx/libc.a(lib_a-fwalk.o)
 .debug_line    0x0000000000001782      0x167 /opt/intelFPGA/20.1.1/nios2eds/bin/gnu/H-x86_64-pc-linux-gnu/bin/../lib/gcc/nios2-elf/10.1.1/../../../../../H-x86_64-pc-linux-gnu/nios2-elf/lib/mhw-mulx/libc.a(lib_a-impure.o)
 .debug_line    0x00000000000018e9      0x97b /opt/intelFPGA/20.1.1/nios2eds/bin/gnu/H-x86_64-pc-linux-gnu/bin/../lib/gcc/nios2-elf/10.1.1/../../../../../H-x86_64-pc-linux-gnu/nios2-elf/lib/mhw-mulx/libc.a(lib_a-mallocr.o)
 .debug_line    0x0000000000002264      0x224 /opt/intelFPGA/20.1.1/nios2eds/bin/gnu/H-x86_64-pc-linux-gnu/bin/../lib/gcc/nios2-elf/10.1.1/../../../../../H-x86_64-pc-linux-gnu/nios2-elf/lib/mhw-mulx/libc.a(lib_a-memchr.o)
 .debug_line    0x0000000000002488      0x238 /opt/intelFPGA/20.1.1/nios2eds/bin/gnu/H-x86_64-pc-linux-gnu/bin/../lib/gcc/nios2-elf/10.1.1/../../../../../H-x86_64-pc-linux-gnu/nios2-elf/lib/mhw-mulx/libc.a(lib_a-memcpy.o)
 .debug_line    0x00000000000026c0      0x26e /opt/intelFPGA/20.1.1/nios2eds/bin/gnu/H-x86_64-pc-linux-gnu/bin/../lib/gcc/nios2-elf/10.1.1/../../../../../H-x86_64-pc-linux-gnu/nios2-elf/lib/mhw-mulx/libc.a(lib_a-memmove.o)
 .debug_line    0x000000000000292e      0x259 /opt/intelFPGA/20.1.1/nios2eds/bin/gnu/H-x86_64-pc-linux-gnu/bin/../lib/gcc/nios2-elf/10.1.1/../../../../../H-x86_64-pc-linux-gnu/nios2-elf/lib/mhw-mulx/libc.a(lib_a-memset.o)
 .debug_line    0x0000000000002b87      0x78a /opt/intelFPGA/20.1.1/nios2eds/bin/gnu/H-x86_64-pc-linux-gnu/bin/../lib/gcc/nios2-elf/10.1.1/../../../../../H-x86_64-pc-linux-gnu/nios2-elf/lib/mhw-mulx/libc.a(lib_a-reallocr.o)
 .debug_line    0x0000000000003311      0x22b /opt/intelFPGA/20.1.1/nios2eds/bin/gnu/H-x86_64-pc-linux-gnu/bin/../lib/gcc/nios2-elf/10.1.1/../../../../../H-x86_64-pc-linux-gnu/nios2-elf/lib/mhw-mulx/libc.a(lib_a-sbrkr.o)
 .debug_line    0x000000000000353c      0x339 /opt/intelFPGA/20.1.1/nios2eds/bin/gnu/H-x86_64-pc-linux-gnu/bin/../lib/gcc/nios2-elf/10.1.1/../../../../../H-x86_64-pc-linux-gnu/nios2-elf/lib/mhw-mulx/libc.a(lib_a-stdio.o)
 .debug_line    0x0000000000003875      0x238 /opt/intelFPGA/20.1.1/nios2eds/bin/gnu/H-x86_64-pc-linux-gnu/bin/../lib/gcc/nios2-elf/10.1.1/../../../../../H-x86_64-pc-linux-gnu/nios2-elf/lib/mhw-mulx/libc.a(lib_a-writer.o)
 .debug_line    0x0000000000003aad      0x3c1 /opt/intelFPGA/20.1.1/nios2eds/bin/gnu/H-x86_64-pc-linux-gnu/bin/../lib/gcc/nios2-elf/10.1.1/../../../../../H-x86_64-pc-linux-gnu/nios2-elf/lib/mhw-mulx/libc.a(lib_a-wsetup.o)
 .debug_line    0x0000000000003e6e      0x237 /opt/intelFPGA/20.1.1/nios2eds/bin/gnu/H-x86_64-pc-linux-gnu/bin/../lib/gcc/nios2-elf/10.1.1/../../../../../H-x86_64-pc-linux-gnu/nios2-elf/lib/mhw-mulx/libc.a(closer.o)
 .debug_line    0x00000000000040a5      0x390 /opt/intelFPGA/20.1.1/nios2eds/bin/gnu/H-x86_64-pc-linux-gnu/bin/../lib/gcc/nios2-elf/10.1.1/../../../../../H-x86_64-pc-linux-gnu/nios2-elf/lib/mhw-mulx/libc.a(lib_a-fclose.o)
 .debug_line    0x0000000000004435      0x567 /opt/intelFPGA/20.1.1/nios2eds/bin/gnu/H-x86_64-pc-linux-gnu/bin/../lib/gcc/nios2-elf/10.1.1/../../../../../H-x86_64-pc-linux-gnu/nios2-elf/lib/mhw-mulx/libc.a(lib_a-fflush.o)
 .debug_line    0x000000000000499c      0x5cb /opt/intelFPGA/20.1.1/nios2eds/bin/gnu/H-x86_64-pc-linux-gnu/bin/../lib/gcc/nios2-elf/10.1.1/../../../../../H-x86_64-pc-linux-gnu/nios2-elf/lib/mhw-mulx/libc.a(lib_a-freer.o)
 .debug_line    0x0000000000004f67       0x61 /opt/intelFPGA/20.1.1/nios2eds/bin/gnu/H-x86_64-pc-linux-gnu/bin/../lib/gcc/nios2-elf/10.1.1/../../../../../H-x86_64-pc-linux-gnu/nios2-elf/lib/mhw-mulx/libc.a(lib_a-int_errno.o)
 .debug_line    0x0000000000004fc8      0x238 /opt/intelFPGA/20.1.1/nios2eds/bin/gnu/H-x86_64-pc-linux-gnu/bin/../lib/gcc/nios2-elf/10.1.1/../../../../../H-x86_64-pc-linux-gnu/nios2-elf/lib/mhw-mulx/libc.a(lib_a-lseekr.o)
 .debug_line    0x0000000000005200      0x4e7 /opt/intelFPGA/20.1.1/nios2eds/bin/gnu/H-x86_64-pc-linux-gnu/bin/../lib/gcc/nios2-elf/10.1.1/../../../../../H-x86_64-pc-linux-gnu/nios2-elf/lib/mhw-mulx/libc.a(lib_a-makebuf.o)
 .debug_line    0x00000000000056e7      0x237 /opt/intelFPGA/20.1.1/nios2eds/bin/gnu/H-x86_64-pc-linux-gnu/bin/../lib/gcc/nios2-elf/10.1.1/../../../../../H-x86_64-pc-linux-gnu/nios2-elf/lib/mhw-mulx/libc.a(lib_a-readr.o)
 .debug_line    0x000000000000591e      0x2dd /opt/intelFPGA/20.1.1/nios2eds/bin/gnu/H-x86_64-pc-linux-gnu/bin/../lib/gcc/nios2-elf/10.1.1/../../../../../H-x86_64-pc-linux-gnu/nios2-elf/lib/mhw-mulx/libc.a(lib_a-fstatr.o)
 .debug_line    0x0000000000005bfb      0x238 /opt/intelFPGA/20.1.1/nios2eds/bin/gnu/H-x86_64-pc-linux-gnu/bin/../lib/gcc/nios2-elf/10.1.1/../../../../../H-x86_64-pc-linux-gnu/nios2-elf/lib/mhw-mulx/libc.a(lib_a-isattyr.o)
 .debug_line    0x0000000000005e33      0x306 /opt/intelFPGA/20.1.1/nios2eds/bin/gnu/H-x86_64-pc-linux-gnu/bin/../lib/gcc/nios2-elf/10.1.1/mhw-mulx/libgcc.a(lib2-divmod.o)
 .debug_line    0x0000000000006139      0x1b0 /home/xix277/engr-ece/Winter_Sem_2022/CME332/asn_test/test_prob_6_bsp//libucosii_bsp.a(alt_close.o)
 .debug_line    0x00000000000062e9      0x1cd /home/xix277/engr-ece/Winter_Sem_2022/CME332/asn_test/test_prob_6_bsp//libucosii_bsp.a(alt_dev.o)
 .debug_line    0x00000000000064b6       0x51 /home/xix277/engr-ece/Winter_Sem_2022/CME332/asn_test/test_prob_6_bsp//libucosii_bsp.a(alt_errno.o)
 .debug_line    0x0000000000006507      0x21c /home/xix277/engr-ece/Winter_Sem_2022/CME332/asn_test/test_prob_6_bsp//libucosii_bsp.a(alt_fstat.o)
 .debug_line    0x0000000000006723      0x21e /home/xix277/engr-ece/Winter_Sem_2022/CME332/asn_test/test_prob_6_bsp//libucosii_bsp.a(alt_isatty.o)
 .debug_line    0x0000000000006941       0xa6 /home/xix277/engr-ece/Winter_Sem_2022/CME332/asn_test/test_prob_6_bsp//libucosii_bsp.a(alt_load.o)
 .debug_line    0x00000000000069e7      0x1a1 /home/xix277/engr-ece/Winter_Sem_2022/CME332/asn_test/test_prob_6_bsp//libucosii_bsp.a(alt_lseek.o)
 .debug_line    0x0000000000006b88      0x109 /home/xix277/engr-ece/Winter_Sem_2022/CME332/asn_test/test_prob_6_bsp//libucosii_bsp.a(alt_main.o)
 .debug_line    0x0000000000006c91      0x2b7 /home/xix277/engr-ece/Winter_Sem_2022/CME332/asn_test/test_prob_6_bsp//libucosii_bsp.a(alt_read.o)
 .debug_line    0x0000000000006f48       0xb6 /home/xix277/engr-ece/Winter_Sem_2022/CME332/asn_test/test_prob_6_bsp//libucosii_bsp.a(alt_release_fd.o)
 .debug_line    0x0000000000006ffe      0x113 /home/xix277/engr-ece/Winter_Sem_2022/CME332/asn_test/test_prob_6_bsp//libucosii_bsp.a(alt_sbrk.o)
 .debug_line    0x0000000000007111      0x2ba /home/xix277/engr-ece/Winter_Sem_2022/CME332/asn_test/test_prob_6_bsp//libucosii_bsp.a(alt_write.o)
 .debug_line    0x00000000000073cb      0x1c8 /home/xix277/engr-ece/Winter_Sem_2022/CME332/asn_test/test_prob_6_bsp//libucosii_bsp.a(alt_env_lock.o)
 .debug_line    0x0000000000007593      0x261 /home/xix277/engr-ece/Winter_Sem_2022/CME332/asn_test/test_prob_6_bsp//libucosii_bsp.a(alt_malloc_lock.o)
 .debug_line    0x00000000000077f4      0xbf7 /home/xix277/engr-ece/Winter_Sem_2022/CME332/asn_test/test_prob_6_bsp//libucosii_bsp.a(os_core.o)
 .debug_line    0x00000000000083eb       0x91 /home/xix277/engr-ece/Winter_Sem_2022/CME332/asn_test/test_prob_6_bsp//libucosii_bsp.a(os_dbg.o)
 .debug_line    0x000000000000847c      0x8fe /home/xix277/engr-ece/Winter_Sem_2022/CME332/asn_test/test_prob_6_bsp//libucosii_bsp.a(os_flag.o)
 .debug_line    0x0000000000008d7a      0x3ae /home/xix277/engr-ece/Winter_Sem_2022/CME332/asn_test/test_prob_6_bsp//libucosii_bsp.a(os_mem.o)
 .debug_line    0x0000000000009128      0x762 /home/xix277/engr-ece/Winter_Sem_2022/CME332/asn_test/test_prob_6_bsp//libucosii_bsp.a(os_q.o)
 .debug_line    0x000000000000988a      0x4e3 /home/xix277/engr-ece/Winter_Sem_2022/CME332/asn_test/test_prob_6_bsp//libucosii_bsp.a(os_sem.o)
 .debug_line    0x0000000000009d6d      0x956 /home/xix277/engr-ece/Winter_Sem_2022/CME332/asn_test/test_prob_6_bsp//libucosii_bsp.a(os_task.o)
 .debug_line    0x000000000000a6c3      0x284 /home/xix277/engr-ece/Winter_Sem_2022/CME332/asn_test/test_prob_6_bsp//libucosii_bsp.a(os_time.o)
 .debug_line    0x000000000000a947      0x399 /home/xix277/engr-ece/Winter_Sem_2022/CME332/asn_test/test_prob_6_bsp//libucosii_bsp.a(alt_sys_init.o)
 .debug_line    0x000000000000ace0      0x16f /home/xix277/engr-ece/Winter_Sem_2022/CME332/asn_test/test_prob_6_bsp//libucosii_bsp.a(altera_avalon_jtag_uart_fd.o)
 .debug_line    0x000000000000ae4f      0x324 /home/xix277/engr-ece/Winter_Sem_2022/CME332/asn_test/test_prob_6_bsp//libucosii_bsp.a(altera_avalon_jtag_uart_init.o)
 .debug_line    0x000000000000b173      0x17a /home/xix277/engr-ece/Winter_Sem_2022/CME332/asn_test/test_prob_6_bsp//libucosii_bsp.a(altera_avalon_jtag_uart_ioctl.o)
 .debug_line    0x000000000000b2ed      0x257 /home/xix277/engr-ece/Winter_Sem_2022/CME332/asn_test/test_prob_6_bsp//libucosii_bsp.a(altera_avalon_jtag_uart_read.o)
 .debug_line    0x000000000000b544      0x260 /home/xix277/engr-ece/Winter_Sem_2022/CME332/asn_test/test_prob_6_bsp//libucosii_bsp.a(altera_avalon_jtag_uart_write.o)
 .debug_line    0x000000000000b7a4       0xff /home/xix277/engr-ece/Winter_Sem_2022/CME332/asn_test/test_prob_6_bsp//libucosii_bsp.a(altera_avalon_timer_sc.o)
 .debug_line    0x000000000000b8a3      0x23e /home/xix277/engr-ece/Winter_Sem_2022/CME332/asn_test/test_prob_6_bsp//libucosii_bsp.a(altera_up_avalon_character_lcd.o)
 .debug_line    0x000000000000bae1      0x1b7 /home/xix277/engr-ece/Winter_Sem_2022/CME332/asn_test/test_prob_6_bsp//libucosii_bsp.a(altera_up_avalon_irda.o)
 .debug_line    0x000000000000bc98      0x2b0 /home/xix277/engr-ece/Winter_Sem_2022/CME332/asn_test/test_prob_6_bsp//libucosii_bsp.a(altera_up_avalon_ps2.o)
 .debug_line    0x000000000000bf48      0x1b9 /home/xix277/engr-ece/Winter_Sem_2022/CME332/asn_test/test_prob_6_bsp//libucosii_bsp.a(altera_up_avalon_rs232.o)
 .debug_line    0x000000000000c101      0x138 /home/xix277/engr-ece/Winter_Sem_2022/CME332/asn_test/test_prob_6_bsp//libucosii_bsp.a(alt_alarm_start.o)
 .debug_line    0x000000000000c239       0x53 /home/xix277/engr-ece/Winter_Sem_2022/CME332/asn_test/test_prob_6_bsp//libucosii_bsp.a(alt_dcache_flush_all.o)
 .debug_line    0x000000000000c28c      0x106 /home/xix277/engr-ece/Winter_Sem_2022/CME332/asn_test/test_prob_6_bsp//libucosii_bsp.a(alt_dev_llist_insert.o)
 .debug_line    0x000000000000c392       0x66 /home/xix277/engr-ece/Winter_Sem_2022/CME332/asn_test/test_prob_6_bsp//libucosii_bsp.a(alt_do_ctors.o)
 .debug_line    0x000000000000c3f8       0x66 /home/xix277/engr-ece/Winter_Sem_2022/CME332/asn_test/test_prob_6_bsp//libucosii_bsp.a(alt_do_dtors.o)
 .debug_line    0x000000000000c45e       0xb8 /home/xix277/engr-ece/Winter_Sem_2022/CME332/asn_test/test_prob_6_bsp//libucosii_bsp.a(alt_find_dev.o)
 .debug_line    0x000000000000c516       0x56 /home/xix277/engr-ece/Winter_Sem_2022/CME332/asn_test/test_prob_6_bsp//libucosii_bsp.a(alt_icache_flush_all.o)
 .debug_line    0x000000000000c56c      0x1da /home/xix277/engr-ece/Winter_Sem_2022/CME332/asn_test/test_prob_6_bsp//libucosii_bsp.a(alt_io_redirect.o)
 .debug_line    0x000000000000c746      0x1ad /home/xix277/engr-ece/Winter_Sem_2022/CME332/asn_test/test_prob_6_bsp//libucosii_bsp.a(alt_irq_register.o)
 .debug_line    0x000000000000c8f3       0x50 /home/xix277/engr-ece/Winter_Sem_2022/CME332/asn_test/test_prob_6_bsp//libucosii_bsp.a(alt_irq_vars.o)
 .debug_line    0x000000000000c943      0x1a0 /home/xix277/engr-ece/Winter_Sem_2022/CME332/asn_test/test_prob_6_bsp//libucosii_bsp.a(alt_open.o)
 .debug_line    0x000000000000cae3      0x160 /home/xix277/engr-ece/Winter_Sem_2022/CME332/asn_test/test_prob_6_bsp//libucosii_bsp.a(alt_tick.o)
 .debug_line    0x000000000000cc43       0x57 /home/xix277/engr-ece/Winter_Sem_2022/CME332/asn_test/test_prob_6_bsp//libucosii_bsp.a(altera_nios2_gen2_irq.o)
 .debug_line    0x000000000000cc9a       0x86 /home/xix277/engr-ece/Winter_Sem_2022/CME332/asn_test/test_prob_6_bsp//libucosii_bsp.a(os_cpu_a.o)
 .debug_line    0x000000000000cd20      0x1d4 /home/xix277/engr-ece/Winter_Sem_2022/CME332/asn_test/test_prob_6_bsp//libucosii_bsp.a(os_cpu_c.o)
 .debug_line    0x000000000000cef4      0x103 /home/xix277/engr-ece/Winter_Sem_2022/CME332/asn_test/test_prob_6_bsp//libucosii_bsp.a(alt_find_file.o)
 .debug_line    0x000000000000cff7      0x13f /home/xix277/engr-ece/Winter_Sem_2022/CME332/asn_test/test_prob_6_bsp//libucosii_bsp.a(alt_get_fd.o)
 .debug_line    0x000000000000d136       0xa0 /home/xix277/engr-ece/Winter_Sem_2022/CME332/asn_test/test_prob_6_bsp//libucosii_bsp.a(alt_icache_flush.o)
 .debug_line    0x000000000000d1d6       0x6b /home/xix277/engr-ece/Winter_Sem_2022/CME332/asn_test/test_prob_6_bsp//libucosii_bsp.a(alt_irq_entry.o)
 .debug_line    0x000000000000d241       0xd4 /home/xix277/engr-ece/Winter_Sem_2022/CME332/asn_test/test_prob_6_bsp//libucosii_bsp.a(alt_irq_handler.o)
 .debug_line    0x000000000000d315       0xb3 /home/xix277/engr-ece/Winter_Sem_2022/CME332/asn_test/test_prob_6_bsp//libucosii_bsp.a(alt_exception_entry.o)
 .debug_line    0x000000000000d3c8       0xd9 /home/xix277/engr-ece/Winter_Sem_2022/CME332/asn_test/test_prob_6_bsp//libucosii_bsp.a(alt_instruction_exception_entry.o)
 .debug_line    0x000000000000d4a1       0xf7 /opt/intelFPGA/20.1.1/nios2eds/bin/gnu/H-x86_64-pc-linux-gnu/bin/../lib/gcc/nios2-elf/10.1.1/../../../../../H-x86_64-pc-linux-gnu/nios2-elf/lib/mhw-mulx/libc.a(lib_a-atexit.o)
 .debug_line    0x000000000000d598      0x22a /opt/intelFPGA/20.1.1/nios2eds/bin/gnu/H-x86_64-pc-linux-gnu/bin/../lib/gcc/nios2-elf/10.1.1/../../../../../H-x86_64-pc-linux-gnu/nios2-elf/lib/mhw-mulx/libc.a(lib_a-exit.o)
 .debug_line    0x000000000000d7c2      0x1e6 /opt/intelFPGA/20.1.1/nios2eds/bin/gnu/H-x86_64-pc-linux-gnu/bin/../lib/gcc/nios2-elf/10.1.1/../../../../../H-x86_64-pc-linux-gnu/nios2-elf/lib/mhw-mulx/libc.a(lib_a-memcmp.o)
 .debug_line    0x000000000000d9a8      0x21b /opt/intelFPGA/20.1.1/nios2eds/bin/gnu/H-x86_64-pc-linux-gnu/bin/../lib/gcc/nios2-elf/10.1.1/../../../../../H-x86_64-pc-linux-gnu/nios2-elf/lib/mhw-mulx/libc.a(lib_a-__atexit.o)
 .debug_line    0x000000000000dbc3      0x2a3 /opt/intelFPGA/20.1.1/nios2eds/bin/gnu/H-x86_64-pc-linux-gnu/bin/../lib/gcc/nios2-elf/10.1.1/../../../../../H-x86_64-pc-linux-gnu/nios2-elf/lib/mhw-mulx/libc.a(lib_a-__call_atexit.o)
 .debug_line    0x000000000000de66       0xb5 /home/xix277/engr-ece/Winter_Sem_2022/CME332/asn_test/test_prob_6_bsp//libucosii_bsp.a(alt_exit.o)

.debug_frame    0x0000000000000000     0x2d84
 *(.debug_frame)
 .debug_frame   0x0000000000000000       0xa8 obj/default/hello_ucosii.o
 .debug_frame   0x00000000000000a8       0x48 /opt/intelFPGA/20.1.1/nios2eds/bin/gnu/H-x86_64-pc-linux-gnu/bin/../lib/gcc/nios2-elf/10.1.1/../../../../../H-x86_64-pc-linux-gnu/nios2-elf/lib/mhw-mulx/libc.a(lib_a-puts.o)
 .debug_frame   0x00000000000000f0       0x20 /opt/intelFPGA/20.1.1/nios2eds/bin/gnu/H-x86_64-pc-linux-gnu/bin/../lib/gcc/nios2-elf/10.1.1/../../../../../H-x86_64-pc-linux-gnu/nios2-elf/lib/mhw-mulx/libc.a(lib_a-strlen.o)
 .debug_frame   0x0000000000000110      0x12c /opt/intelFPGA/20.1.1/nios2eds/bin/gnu/H-x86_64-pc-linux-gnu/bin/../lib/gcc/nios2-elf/10.1.1/../../../../../H-x86_64-pc-linux-gnu/nios2-elf/lib/mhw-mulx/libc.a(lib_a-findfp.o)
 .debug_frame   0x000000000000023c       0x78 /opt/intelFPGA/20.1.1/nios2eds/bin/gnu/H-x86_64-pc-linux-gnu/bin/../lib/gcc/nios2-elf/10.1.1/../../../../../H-x86_64-pc-linux-gnu/nios2-elf/lib/mhw-mulx/libc.a(lib_a-fvwrite.o)
 .debug_frame   0x00000000000002b4       0x74 /opt/intelFPGA/20.1.1/nios2eds/bin/gnu/H-x86_64-pc-linux-gnu/bin/../lib/gcc/nios2-elf/10.1.1/../../../../../H-x86_64-pc-linux-gnu/nios2-elf/lib/mhw-mulx/libc.a(lib_a-fwalk.o)
 .debug_frame   0x0000000000000328       0x58 /opt/intelFPGA/20.1.1/nios2eds/bin/gnu/H-x86_64-pc-linux-gnu/bin/../lib/gcc/nios2-elf/10.1.1/../../../../../H-x86_64-pc-linux-gnu/nios2-elf/lib/mhw-mulx/libc.a(lib_a-mallocr.o)
 .debug_frame   0x0000000000000380       0x20 /opt/intelFPGA/20.1.1/nios2eds/bin/gnu/H-x86_64-pc-linux-gnu/bin/../lib/gcc/nios2-elf/10.1.1/../../../../../H-x86_64-pc-linux-gnu/nios2-elf/lib/mhw-mulx/libc.a(lib_a-memchr.o)
 .debug_frame   0x00000000000003a0       0x20 /opt/intelFPGA/20.1.1/nios2eds/bin/gnu/H-x86_64-pc-linux-gnu/bin/../lib/gcc/nios2-elf/10.1.1/../../../../../H-x86_64-pc-linux-gnu/nios2-elf/lib/mhw-mulx/libc.a(lib_a-memcpy.o)
 .debug_frame   0x00000000000003c0       0x20 /opt/intelFPGA/20.1.1/nios2eds/bin/gnu/H-x86_64-pc-linux-gnu/bin/../lib/gcc/nios2-elf/10.1.1/../../../../../H-x86_64-pc-linux-gnu/nios2-elf/lib/mhw-mulx/libc.a(lib_a-memmove.o)
 .debug_frame   0x00000000000003e0       0x20 /opt/intelFPGA/20.1.1/nios2eds/bin/gnu/H-x86_64-pc-linux-gnu/bin/../lib/gcc/nios2-elf/10.1.1/../../../../../H-x86_64-pc-linux-gnu/nios2-elf/lib/mhw-mulx/libc.a(lib_a-memset.o)
 .debug_frame   0x0000000000000400       0x70 /opt/intelFPGA/20.1.1/nios2eds/bin/gnu/H-x86_64-pc-linux-gnu/bin/../lib/gcc/nios2-elf/10.1.1/../../../../../H-x86_64-pc-linux-gnu/nios2-elf/lib/mhw-mulx/libc.a(lib_a-reallocr.o)
 .debug_frame   0x0000000000000470       0x3c /opt/intelFPGA/20.1.1/nios2eds/bin/gnu/H-x86_64-pc-linux-gnu/bin/../lib/gcc/nios2-elf/10.1.1/../../../../../H-x86_64-pc-linux-gnu/nios2-elf/lib/mhw-mulx/libc.a(lib_a-sbrkr.o)
 .debug_frame   0x00000000000004ac       0xb8 /opt/intelFPGA/20.1.1/nios2eds/bin/gnu/H-x86_64-pc-linux-gnu/bin/../lib/gcc/nios2-elf/10.1.1/../../../../../H-x86_64-pc-linux-gnu/nios2-elf/lib/mhw-mulx/libc.a(lib_a-stdio.o)
 .debug_frame   0x0000000000000564       0x3c /opt/intelFPGA/20.1.1/nios2eds/bin/gnu/H-x86_64-pc-linux-gnu/bin/../lib/gcc/nios2-elf/10.1.1/../../../../../H-x86_64-pc-linux-gnu/nios2-elf/lib/mhw-mulx/libc.a(lib_a-writer.o)
 .debug_frame   0x00000000000005a0       0x38 /opt/intelFPGA/20.1.1/nios2eds/bin/gnu/H-x86_64-pc-linux-gnu/bin/../lib/gcc/nios2-elf/10.1.1/../../../../../H-x86_64-pc-linux-gnu/nios2-elf/lib/mhw-mulx/libc.a(lib_a-wsetup.o)
 .debug_frame   0x00000000000005d8       0x3c /opt/intelFPGA/20.1.1/nios2eds/bin/gnu/H-x86_64-pc-linux-gnu/bin/../lib/gcc/nios2-elf/10.1.1/../../../../../H-x86_64-pc-linux-gnu/nios2-elf/lib/mhw-mulx/libc.a(closer.o)
 .debug_frame   0x0000000000000614       0x94 /opt/intelFPGA/20.1.1/nios2eds/bin/gnu/H-x86_64-pc-linux-gnu/bin/../lib/gcc/nios2-elf/10.1.1/../../../../../H-x86_64-pc-linux-gnu/nios2-elf/lib/mhw-mulx/libc.a(lib_a-fclose.o)
 .debug_frame   0x00000000000006a8       0x94 /opt/intelFPGA/20.1.1/nios2eds/bin/gnu/H-x86_64-pc-linux-gnu/bin/../lib/gcc/nios2-elf/10.1.1/../../../../../H-x86_64-pc-linux-gnu/nios2-elf/lib/mhw-mulx/libc.a(lib_a-fflush.o)
 .debug_frame   0x000000000000073c       0x78 /opt/intelFPGA/20.1.1/nios2eds/bin/gnu/H-x86_64-pc-linux-gnu/bin/../lib/gcc/nios2-elf/10.1.1/../../../../../H-x86_64-pc-linux-gnu/nios2-elf/lib/mhw-mulx/libc.a(lib_a-freer.o)
 .debug_frame   0x00000000000007b4       0x3c /opt/intelFPGA/20.1.1/nios2eds/bin/gnu/H-x86_64-pc-linux-gnu/bin/../lib/gcc/nios2-elf/10.1.1/../../../../../H-x86_64-pc-linux-gnu/nios2-elf/lib/mhw-mulx/libc.a(lib_a-lseekr.o)
 .debug_frame   0x00000000000007f0       0x70 /opt/intelFPGA/20.1.1/nios2eds/bin/gnu/H-x86_64-pc-linux-gnu/bin/../lib/gcc/nios2-elf/10.1.1/../../../../../H-x86_64-pc-linux-gnu/nios2-elf/lib/mhw-mulx/libc.a(lib_a-makebuf.o)
 .debug_frame   0x0000000000000860       0x3c /opt/intelFPGA/20.1.1/nios2eds/bin/gnu/H-x86_64-pc-linux-gnu/bin/../lib/gcc/nios2-elf/10.1.1/../../../../../H-x86_64-pc-linux-gnu/nios2-elf/lib/mhw-mulx/libc.a(lib_a-readr.o)
 .debug_frame   0x000000000000089c       0x3c /opt/intelFPGA/20.1.1/nios2eds/bin/gnu/H-x86_64-pc-linux-gnu/bin/../lib/gcc/nios2-elf/10.1.1/../../../../../H-x86_64-pc-linux-gnu/nios2-elf/lib/mhw-mulx/libc.a(lib_a-fstatr.o)
 .debug_frame   0x00000000000008d8       0x3c /opt/intelFPGA/20.1.1/nios2eds/bin/gnu/H-x86_64-pc-linux-gnu/bin/../lib/gcc/nios2-elf/10.1.1/../../../../../H-x86_64-pc-linux-gnu/nios2-elf/lib/mhw-mulx/libc.a(lib_a-isattyr.o)
 .debug_frame   0x0000000000000914       0x50 /opt/intelFPGA/20.1.1/nios2eds/bin/gnu/H-x86_64-pc-linux-gnu/bin/../lib/gcc/nios2-elf/10.1.1/mhw-mulx/libgcc.a(lib2-divmod.o)
 .debug_frame   0x0000000000000964       0x60 /home/xix277/engr-ece/Winter_Sem_2022/CME332/asn_test/test_prob_6_bsp//libucosii_bsp.a(alt_close.o)
 .debug_frame   0x00000000000009c4       0x34 /home/xix277/engr-ece/Winter_Sem_2022/CME332/asn_test/test_prob_6_bsp//libucosii_bsp.a(alt_dev.o)
 .debug_frame   0x00000000000009f8       0x60 /home/xix277/engr-ece/Winter_Sem_2022/CME332/asn_test/test_prob_6_bsp//libucosii_bsp.a(alt_fstat.o)
 .debug_frame   0x0000000000000a58       0x60 /home/xix277/engr-ece/Winter_Sem_2022/CME332/asn_test/test_prob_6_bsp//libucosii_bsp.a(alt_isatty.o)
 .debug_frame   0x0000000000000ab8       0x5c /home/xix277/engr-ece/Winter_Sem_2022/CME332/asn_test/test_prob_6_bsp//libucosii_bsp.a(alt_load.o)
 .debug_frame   0x0000000000000b14       0x60 /home/xix277/engr-ece/Winter_Sem_2022/CME332/asn_test/test_prob_6_bsp//libucosii_bsp.a(alt_lseek.o)
 .debug_frame   0x0000000000000b74       0x2c /home/xix277/engr-ece/Winter_Sem_2022/CME332/asn_test/test_prob_6_bsp//libucosii_bsp.a(alt_main.o)
 .debug_frame   0x0000000000000ba0       0x60 /home/xix277/engr-ece/Winter_Sem_2022/CME332/asn_test/test_prob_6_bsp//libucosii_bsp.a(alt_read.o)
 .debug_frame   0x0000000000000c00       0x34 /home/xix277/engr-ece/Winter_Sem_2022/CME332/asn_test/test_prob_6_bsp//libucosii_bsp.a(alt_release_fd.o)
 .debug_frame   0x0000000000000c34       0x34 /home/xix277/engr-ece/Winter_Sem_2022/CME332/asn_test/test_prob_6_bsp//libucosii_bsp.a(alt_sbrk.o)
 .debug_frame   0x0000000000000c68       0x60 /home/xix277/engr-ece/Winter_Sem_2022/CME332/asn_test/test_prob_6_bsp//libucosii_bsp.a(alt_write.o)
 .debug_frame   0x0000000000000cc8       0x60 /home/xix277/engr-ece/Winter_Sem_2022/CME332/asn_test/test_prob_6_bsp//libucosii_bsp.a(alt_env_lock.o)
 .debug_frame   0x0000000000000d28       0x64 /home/xix277/engr-ece/Winter_Sem_2022/CME332/asn_test/test_prob_6_bsp//libucosii_bsp.a(alt_malloc_lock.o)
 .debug_frame   0x0000000000000d8c      0x530 /home/xix277/engr-ece/Winter_Sem_2022/CME332/asn_test/test_prob_6_bsp//libucosii_bsp.a(os_core.o)
 .debug_frame   0x00000000000012bc       0x34 /home/xix277/engr-ece/Winter_Sem_2022/CME332/asn_test/test_prob_6_bsp//libucosii_bsp.a(os_dbg.o)
 .debug_frame   0x00000000000012f0      0x200 /home/xix277/engr-ece/Winter_Sem_2022/CME332/asn_test/test_prob_6_bsp//libucosii_bsp.a(os_flag.o)
 .debug_frame   0x00000000000014f0      0x118 /home/xix277/engr-ece/Winter_Sem_2022/CME332/asn_test/test_prob_6_bsp//libucosii_bsp.a(os_mem.o)
 .debug_frame   0x0000000000001608      0x1bc /home/xix277/engr-ece/Winter_Sem_2022/CME332/asn_test/test_prob_6_bsp//libucosii_bsp.a(os_q.o)
 .debug_frame   0x00000000000017c4      0x144 /home/xix277/engr-ece/Winter_Sem_2022/CME332/asn_test/test_prob_6_bsp//libucosii_bsp.a(os_sem.o)
 .debug_frame   0x0000000000001908      0x1e4 /home/xix277/engr-ece/Winter_Sem_2022/CME332/asn_test/test_prob_6_bsp//libucosii_bsp.a(os_task.o)
 .debug_frame   0x0000000000001aec       0xd0 /home/xix277/engr-ece/Winter_Sem_2022/CME332/asn_test/test_prob_6_bsp//libucosii_bsp.a(os_time.o)
 .debug_frame   0x0000000000001bbc       0x88 /home/xix277/engr-ece/Winter_Sem_2022/CME332/asn_test/test_prob_6_bsp//libucosii_bsp.a(alt_sys_init.o)
 .debug_frame   0x0000000000001c44       0xb0 /home/xix277/engr-ece/Winter_Sem_2022/CME332/asn_test/test_prob_6_bsp//libucosii_bsp.a(altera_avalon_jtag_uart_fd.o)
 .debug_frame   0x0000000000001cf4       0xac /home/xix277/engr-ece/Winter_Sem_2022/CME332/asn_test/test_prob_6_bsp//libucosii_bsp.a(altera_avalon_jtag_uart_init.o)
 .debug_frame   0x0000000000001da0       0x34 /home/xix277/engr-ece/Winter_Sem_2022/CME332/asn_test/test_prob_6_bsp//libucosii_bsp.a(altera_avalon_jtag_uart_ioctl.o)
 .debug_frame   0x0000000000001dd4       0x38 /home/xix277/engr-ece/Winter_Sem_2022/CME332/asn_test/test_prob_6_bsp//libucosii_bsp.a(altera_avalon_jtag_uart_read.o)
 .debug_frame   0x0000000000001e0c       0x38 /home/xix277/engr-ece/Winter_Sem_2022/CME332/asn_test/test_prob_6_bsp//libucosii_bsp.a(altera_avalon_jtag_uart_write.o)
 .debug_frame   0x0000000000001e44       0x60 /home/xix277/engr-ece/Winter_Sem_2022/CME332/asn_test/test_prob_6_bsp//libucosii_bsp.a(altera_avalon_timer_sc.o)
 .debug_frame   0x0000000000001ea4      0x204 /home/xix277/engr-ece/Winter_Sem_2022/CME332/asn_test/test_prob_6_bsp//libucosii_bsp.a(altera_up_avalon_character_lcd.o)
 .debug_frame   0x00000000000020a8      0x188 /home/xix277/engr-ece/Winter_Sem_2022/CME332/asn_test/test_prob_6_bsp//libucosii_bsp.a(altera_up_avalon_irda.o)
 .debug_frame   0x0000000000002230      0x2c0 /home/xix277/engr-ece/Winter_Sem_2022/CME332/asn_test/test_prob_6_bsp//libucosii_bsp.a(altera_up_avalon_ps2.o)
 .debug_frame   0x00000000000024f0      0x188 /home/xix277/engr-ece/Winter_Sem_2022/CME332/asn_test/test_prob_6_bsp//libucosii_bsp.a(altera_up_avalon_rs232.o)
 .debug_frame   0x0000000000002678       0x34 /home/xix277/engr-ece/Winter_Sem_2022/CME332/asn_test/test_prob_6_bsp//libucosii_bsp.a(alt_alarm_start.o)
 .debug_frame   0x00000000000026ac       0x34 /home/xix277/engr-ece/Winter_Sem_2022/CME332/asn_test/test_prob_6_bsp//libucosii_bsp.a(alt_dcache_flush_all.o)
 .debug_frame   0x00000000000026e0       0x60 /home/xix277/engr-ece/Winter_Sem_2022/CME332/asn_test/test_prob_6_bsp//libucosii_bsp.a(alt_dev_llist_insert.o)
 .debug_frame   0x0000000000002740       0x38 /home/xix277/engr-ece/Winter_Sem_2022/CME332/asn_test/test_prob_6_bsp//libucosii_bsp.a(alt_do_ctors.o)
 .debug_frame   0x0000000000002778       0x38 /home/xix277/engr-ece/Winter_Sem_2022/CME332/asn_test/test_prob_6_bsp//libucosii_bsp.a(alt_do_dtors.o)
 .debug_frame   0x00000000000027b0       0x38 /home/xix277/engr-ece/Winter_Sem_2022/CME332/asn_test/test_prob_6_bsp//libucosii_bsp.a(alt_find_dev.o)
 .debug_frame   0x00000000000027e8       0x38 /home/xix277/engr-ece/Winter_Sem_2022/CME332/asn_test/test_prob_6_bsp//libucosii_bsp.a(alt_icache_flush_all.o)
 .debug_frame   0x0000000000002820       0x60 /home/xix277/engr-ece/Winter_Sem_2022/CME332/asn_test/test_prob_6_bsp//libucosii_bsp.a(alt_io_redirect.o)
 .debug_frame   0x0000000000002880       0x34 /home/xix277/engr-ece/Winter_Sem_2022/CME332/asn_test/test_prob_6_bsp//libucosii_bsp.a(alt_irq_register.o)
 .debug_frame   0x00000000000028b4       0x84 /home/xix277/engr-ece/Winter_Sem_2022/CME332/asn_test/test_prob_6_bsp//libucosii_bsp.a(alt_open.o)
 .debug_frame   0x0000000000002938       0x5c /home/xix277/engr-ece/Winter_Sem_2022/CME332/asn_test/test_prob_6_bsp//libucosii_bsp.a(alt_tick.o)
 .debug_frame   0x0000000000002994       0x34 /home/xix277/engr-ece/Winter_Sem_2022/CME332/asn_test/test_prob_6_bsp//libucosii_bsp.a(altera_nios2_gen2_irq.o)
 .debug_frame   0x00000000000029c8      0x17c /home/xix277/engr-ece/Winter_Sem_2022/CME332/asn_test/test_prob_6_bsp//libucosii_bsp.a(os_cpu_c.o)
 .debug_frame   0x0000000000002b44       0x38 /home/xix277/engr-ece/Winter_Sem_2022/CME332/asn_test/test_prob_6_bsp//libucosii_bsp.a(alt_find_file.o)
 .debug_frame   0x0000000000002b7c       0x38 /home/xix277/engr-ece/Winter_Sem_2022/CME332/asn_test/test_prob_6_bsp//libucosii_bsp.a(alt_get_fd.o)
 .debug_frame   0x0000000000002bb4       0x34 /home/xix277/engr-ece/Winter_Sem_2022/CME332/asn_test/test_prob_6_bsp//libucosii_bsp.a(alt_icache_flush.o)
 .debug_frame   0x0000000000002be8       0x38 /home/xix277/engr-ece/Winter_Sem_2022/CME332/asn_test/test_prob_6_bsp//libucosii_bsp.a(alt_irq_handler.o)
 .debug_frame   0x0000000000002c20       0x5c /home/xix277/engr-ece/Winter_Sem_2022/CME332/asn_test/test_prob_6_bsp//libucosii_bsp.a(alt_instruction_exception_entry.o)
 .debug_frame   0x0000000000002c7c       0x20 /opt/intelFPGA/20.1.1/nios2eds/bin/gnu/H-x86_64-pc-linux-gnu/bin/../lib/gcc/nios2-elf/10.1.1/../../../../../H-x86_64-pc-linux-gnu/nios2-elf/lib/mhw-mulx/libc.a(lib_a-atexit.o)
 .debug_frame   0x0000000000002c9c       0x28 /opt/intelFPGA/20.1.1/nios2eds/bin/gnu/H-x86_64-pc-linux-gnu/bin/../lib/gcc/nios2-elf/10.1.1/../../../../../H-x86_64-pc-linux-gnu/nios2-elf/lib/mhw-mulx/libc.a(lib_a-exit.o)
 .debug_frame   0x0000000000002cc4       0x20 /opt/intelFPGA/20.1.1/nios2eds/bin/gnu/H-x86_64-pc-linux-gnu/bin/../lib/gcc/nios2-elf/10.1.1/../../../../../H-x86_64-pc-linux-gnu/nios2-elf/lib/mhw-mulx/libc.a(lib_a-memcmp.o)
 .debug_frame   0x0000000000002ce4       0x20 /opt/intelFPGA/20.1.1/nios2eds/bin/gnu/H-x86_64-pc-linux-gnu/bin/../lib/gcc/nios2-elf/10.1.1/../../../../../H-x86_64-pc-linux-gnu/nios2-elf/lib/mhw-mulx/libc.a(lib_a-__atexit.o)
 .debug_frame   0x0000000000002d04       0x54 /opt/intelFPGA/20.1.1/nios2eds/bin/gnu/H-x86_64-pc-linux-gnu/bin/../lib/gcc/nios2-elf/10.1.1/../../../../../H-x86_64-pc-linux-gnu/nios2-elf/lib/mhw-mulx/libc.a(lib_a-__call_atexit.o)
 .debug_frame   0x0000000000002d58       0x2c /home/xix277/engr-ece/Winter_Sem_2022/CME332/asn_test/test_prob_6_bsp//libucosii_bsp.a(alt_exit.o)

.debug_str      0x0000000000000000     0x43f8
 *(.debug_str)
 .debug_str     0x0000000000000000       0x64 /home/xix277/engr-ece/Winter_Sem_2022/CME332/asn_test/test_prob_6_bsp//obj/HAL/src/crt0.o
 .debug_str     0x0000000000000064      0x17c obj/default/hello_ucosii.o
                                        0x1c1 (size before relaxing)
 .debug_str     0x00000000000001e0      0x4ec /opt/intelFPGA/20.1.1/nios2eds/bin/gnu/H-x86_64-pc-linux-gnu/bin/../lib/gcc/nios2-elf/10.1.1/../../../../../H-x86_64-pc-linux-gnu/nios2-elf/lib/mhw-mulx/libc.a(lib_a-puts.o)
                                        0x61a (size before relaxing)
 .debug_str     0x00000000000006cc       0xdb /opt/intelFPGA/20.1.1/nios2eds/bin/gnu/H-x86_64-pc-linux-gnu/bin/../lib/gcc/nios2-elf/10.1.1/../../../../../H-x86_64-pc-linux-gnu/nios2-elf/lib/mhw-mulx/libc.a(lib_a-strlen.o)
                                        0x1eb (size before relaxing)
 .debug_str     0x00000000000007a7      0x195 /opt/intelFPGA/20.1.1/nios2eds/bin/gnu/H-x86_64-pc-linux-gnu/bin/../lib/gcc/nios2-elf/10.1.1/../../../../../H-x86_64-pc-linux-gnu/nios2-elf/lib/mhw-mulx/libc.a(lib_a-findfp.o)
                                        0x718 (size before relaxing)
 .debug_str     0x000000000000093c       0xaf /opt/intelFPGA/20.1.1/nios2eds/bin/gnu/H-x86_64-pc-linux-gnu/bin/../lib/gcc/nios2-elf/10.1.1/../../../../../H-x86_64-pc-linux-gnu/nios2-elf/lib/mhw-mulx/libc.a(lib_a-fvwrite.o)
                                        0x65f (size before relaxing)
 .debug_str     0x00000000000009eb       0x4c /opt/intelFPGA/20.1.1/nios2eds/bin/gnu/H-x86_64-pc-linux-gnu/bin/../lib/gcc/nios2-elf/10.1.1/../../../../../H-x86_64-pc-linux-gnu/nios2-elf/lib/mhw-mulx/libc.a(lib_a-fwalk.o)
                                        0x5b8 (size before relaxing)
 .debug_str     0x0000000000000a37       0xd8 /opt/intelFPGA/20.1.1/nios2eds/bin/gnu/H-x86_64-pc-linux-gnu/bin/../lib/gcc/nios2-elf/10.1.1/../../../../../H-x86_64-pc-linux-gnu/nios2-elf/lib/mhw-mulx/libc.a(lib_a-impure.o)
                                        0x5b3 (size before relaxing)
 .debug_str     0x0000000000000b0f      0x2bd /opt/intelFPGA/20.1.1/nios2eds/bin/gnu/H-x86_64-pc-linux-gnu/bin/../lib/gcc/nios2-elf/10.1.1/../../../../../H-x86_64-pc-linux-gnu/nios2-elf/lib/mhw-mulx/libc.a(lib_a-mallocr.o)
                                        0x7b8 (size before relaxing)
 .debug_str     0x0000000000000dcc       0x54 /opt/intelFPGA/20.1.1/nios2eds/bin/gnu/H-x86_64-pc-linux-gnu/bin/../lib/gcc/nios2-elf/10.1.1/../../../../../H-x86_64-pc-linux-gnu/nios2-elf/lib/mhw-mulx/libc.a(lib_a-memchr.o)
                                        0x1f2 (size before relaxing)
 .debug_str     0x0000000000000e20       0x66 /opt/intelFPGA/20.1.1/nios2eds/bin/gnu/H-x86_64-pc-linux-gnu/bin/../lib/gcc/nios2-elf/10.1.1/../../../../../H-x86_64-pc-linux-gnu/nios2-elf/lib/mhw-mulx/libc.a(lib_a-memcpy.o)
                                        0x1ff (size before relaxing)
 .debug_str     0x0000000000000e86       0x49 /opt/intelFPGA/20.1.1/nios2eds/bin/gnu/H-x86_64-pc-linux-gnu/bin/../lib/gcc/nios2-elf/10.1.1/../../../../../H-x86_64-pc-linux-gnu/nios2-elf/lib/mhw-mulx/libc.a(lib_a-memmove.o)
                                        0x20b (size before relaxing)
 .debug_str     0x0000000000000ecf       0x46 /opt/intelFPGA/20.1.1/nios2eds/bin/gnu/H-x86_64-pc-linux-gnu/bin/../lib/gcc/nios2-elf/10.1.1/../../../../../H-x86_64-pc-linux-gnu/nios2-elf/lib/mhw-mulx/libc.a(lib_a-memset.o)
                                        0x1ec (size before relaxing)
 .debug_str     0x0000000000000f15       0x49 /opt/intelFPGA/20.1.1/nios2eds/bin/gnu/H-x86_64-pc-linux-gnu/bin/../lib/gcc/nios2-elf/10.1.1/../../../../../H-x86_64-pc-linux-gnu/nios2-elf/lib/mhw-mulx/libc.a(lib_a-reallocr.o)
                                        0x694 (size before relaxing)
 .debug_str     0x0000000000000f5e       0x51 /opt/intelFPGA/20.1.1/nios2eds/bin/gnu/H-x86_64-pc-linux-gnu/bin/../lib/gcc/nios2-elf/10.1.1/../../../../../H-x86_64-pc-linux-gnu/nios2-elf/lib/mhw-mulx/libc.a(lib_a-sbrkr.o)
                                        0x5a9 (size before relaxing)
 .debug_str     0x0000000000000faf       0x9d /opt/intelFPGA/20.1.1/nios2eds/bin/gnu/H-x86_64-pc-linux-gnu/bin/../lib/gcc/nios2-elf/10.1.1/../../../../../H-x86_64-pc-linux-gnu/nios2-elf/lib/mhw-mulx/libc.a(lib_a-stdio.o)
                                        0x607 (size before relaxing)
 .debug_str     0x000000000000104c       0x3e /opt/intelFPGA/20.1.1/nios2eds/bin/gnu/H-x86_64-pc-linux-gnu/bin/../lib/gcc/nios2-elf/10.1.1/../../../../../H-x86_64-pc-linux-gnu/nios2-elf/lib/mhw-mulx/libc.a(lib_a-writer.o)
                                        0x5ad (size before relaxing)
 .debug_str     0x000000000000108a       0x4b /opt/intelFPGA/20.1.1/nios2eds/bin/gnu/H-x86_64-pc-linux-gnu/bin/../lib/gcc/nios2-elf/10.1.1/../../../../../H-x86_64-pc-linux-gnu/nios2-elf/lib/mhw-mulx/libc.a(lib_a-wsetup.o)
                                        0x5d2 (size before relaxing)
 .debug_str     0x00000000000010d5       0x3e /opt/intelFPGA/20.1.1/nios2eds/bin/gnu/H-x86_64-pc-linux-gnu/bin/../lib/gcc/nios2-elf/10.1.1/../../../../../H-x86_64-pc-linux-gnu/nios2-elf/lib/mhw-mulx/libc.a(closer.o)
                                        0x59d (size before relaxing)
 .debug_str     0x0000000000001113       0x5f /opt/intelFPGA/20.1.1/nios2eds/bin/gnu/H-x86_64-pc-linux-gnu/bin/../lib/gcc/nios2-elf/10.1.1/../../../../../H-x86_64-pc-linux-gnu/nios2-elf/lib/mhw-mulx/libc.a(lib_a-fclose.o)
                                        0x600 (size before relaxing)
 .debug_str     0x0000000000001172       0x56 /opt/intelFPGA/20.1.1/nios2eds/bin/gnu/H-x86_64-pc-linux-gnu/bin/../lib/gcc/nios2-elf/10.1.1/../../../../../H-x86_64-pc-linux-gnu/nios2-elf/lib/mhw-mulx/libc.a(lib_a-fflush.o)
                                        0x613 (size before relaxing)
 .debug_str     0x00000000000011c8       0x34 /opt/intelFPGA/20.1.1/nios2eds/bin/gnu/H-x86_64-pc-linux-gnu/bin/../lib/gcc/nios2-elf/10.1.1/../../../../../H-x86_64-pc-linux-gnu/nios2-elf/lib/mhw-mulx/libc.a(lib_a-freer.o)
                                        0x702 (size before relaxing)
 .debug_str     0x00000000000011fc       0x41 /opt/intelFPGA/20.1.1/nios2eds/bin/gnu/H-x86_64-pc-linux-gnu/bin/../lib/gcc/nios2-elf/10.1.1/../../../../../H-x86_64-pc-linux-gnu/nios2-elf/lib/mhw-mulx/libc.a(lib_a-int_errno.o)
                                        0x1d1 (size before relaxing)
 .debug_str     0x000000000000123d       0x44 /opt/intelFPGA/20.1.1/nios2eds/bin/gnu/H-x86_64-pc-linux-gnu/bin/../lib/gcc/nios2-elf/10.1.1/../../../../../H-x86_64-pc-linux-gnu/nios2-elf/lib/mhw-mulx/libc.a(lib_a-lseekr.o)
                                        0x5a4 (size before relaxing)
 .debug_str     0x0000000000001281      0x177 /opt/intelFPGA/20.1.1/nios2eds/bin/gnu/H-x86_64-pc-linux-gnu/bin/../lib/gcc/nios2-elf/10.1.1/../../../../../H-x86_64-pc-linux-gnu/nios2-elf/lib/mhw-mulx/libc.a(lib_a-makebuf.o)
                                        0x734 (size before relaxing)
 .debug_str     0x00000000000013f8       0x3d /opt/intelFPGA/20.1.1/nios2eds/bin/gnu/H-x86_64-pc-linux-gnu/bin/../lib/gcc/nios2-elf/10.1.1/../../../../../H-x86_64-pc-linux-gnu/nios2-elf/lib/mhw-mulx/libc.a(lib_a-readr.o)
                                        0x5aa (size before relaxing)
 .debug_str     0x0000000000001435       0x4a /opt/intelFPGA/20.1.1/nios2eds/bin/gnu/H-x86_64-pc-linux-gnu/bin/../lib/gcc/nios2-elf/10.1.1/../../../../../H-x86_64-pc-linux-gnu/nios2-elf/lib/mhw-mulx/libc.a(lib_a-fstatr.o)
                                        0x6e8 (size before relaxing)
 .debug_str     0x000000000000147f       0x46 /opt/intelFPGA/20.1.1/nios2eds/bin/gnu/H-x86_64-pc-linux-gnu/bin/../lib/gcc/nios2-elf/10.1.1/../../../../../H-x86_64-pc-linux-gnu/nios2-elf/lib/mhw-mulx/libc.a(lib_a-isattyr.o)
                                        0x5a0 (size before relaxing)
 .debug_str     0x00000000000014c5      0x189 /opt/intelFPGA/20.1.1/nios2eds/bin/gnu/H-x86_64-pc-linux-gnu/bin/../lib/gcc/nios2-elf/10.1.1/mhw-mulx/libgcc.a(lib2-divmod.o)
                                        0x1dd (size before relaxing)
 .debug_str     0x000000000000164e       0x9f /home/xix277/engr-ece/Winter_Sem_2022/CME332/asn_test/test_prob_6_bsp//libucosii_bsp.a(alt_close.o)
                                        0x225 (size before relaxing)
 .debug_str     0x00000000000016ed       0xd1 /home/xix277/engr-ece/Winter_Sem_2022/CME332/asn_test/test_prob_6_bsp//libucosii_bsp.a(alt_dev.o)
                                        0x3ff (size before relaxing)
 .debug_str     0x00000000000017be       0x14 /home/xix277/engr-ece/Winter_Sem_2022/CME332/asn_test/test_prob_6_bsp//libucosii_bsp.a(alt_errno.o)
                                        0x159 (size before relaxing)
 .debug_str     0x00000000000017d2       0x14 /home/xix277/engr-ece/Winter_Sem_2022/CME332/asn_test/test_prob_6_bsp//libucosii_bsp.a(alt_fstat.o)
                                        0x365 (size before relaxing)
 .debug_str     0x00000000000017e6       0x15 /home/xix277/engr-ece/Winter_Sem_2022/CME332/asn_test/test_prob_6_bsp//libucosii_bsp.a(alt_isatty.o)
                                        0x36d (size before relaxing)
 .debug_str     0x00000000000017fb       0xf1 /home/xix277/engr-ece/Winter_Sem_2022/CME332/asn_test/test_prob_6_bsp//libucosii_bsp.a(alt_load.o)
                                        0x22c (size before relaxing)
 .debug_str     0x00000000000018ec       0x14 /home/xix277/engr-ece/Winter_Sem_2022/CME332/asn_test/test_prob_6_bsp//libucosii_bsp.a(alt_lseek.o)
                                        0x233 (size before relaxing)
 .debug_str     0x0000000000001900       0x5d /home/xix277/engr-ece/Winter_Sem_2022/CME332/asn_test/test_prob_6_bsp//libucosii_bsp.a(alt_main.o)
                                        0x226 (size before relaxing)
 .debug_str     0x000000000000195d       0x13 /home/xix277/engr-ece/Winter_Sem_2022/CME332/asn_test/test_prob_6_bsp//libucosii_bsp.a(alt_read.o)
                                        0x370 (size before relaxing)
 .debug_str     0x0000000000001970       0x28 /home/xix277/engr-ece/Winter_Sem_2022/CME332/asn_test/test_prob_6_bsp//libucosii_bsp.a(alt_release_fd.o)
                                        0x20f (size before relaxing)
 .debug_str     0x0000000000001998       0x82 /home/xix277/engr-ece/Winter_Sem_2022/CME332/asn_test/test_prob_6_bsp//libucosii_bsp.a(alt_sbrk.o)
                                        0x1d8 (size before relaxing)
 .debug_str     0x0000000000001a1a       0x14 /home/xix277/engr-ece/Winter_Sem_2022/CME332/asn_test/test_prob_6_bsp//libucosii_bsp.a(alt_write.o)
                                        0x371 (size before relaxing)
 .debug_str     0x0000000000001a2e      0x246 /home/xix277/engr-ece/Winter_Sem_2022/CME332/asn_test/test_prob_6_bsp//libucosii_bsp.a(alt_env_lock.o)
                                        0x7c9 (size before relaxing)
 .debug_str     0x0000000000001c74       0x36 /home/xix277/engr-ece/Winter_Sem_2022/CME332/asn_test/test_prob_6_bsp//libucosii_bsp.a(alt_malloc_lock.o)
                                        0x82b (size before relaxing)
 .debug_str     0x0000000000001caa      0x536 /home/xix277/engr-ece/Winter_Sem_2022/CME332/asn_test/test_prob_6_bsp//libucosii_bsp.a(os_core.o)
                                        0x94d (size before relaxing)
 .debug_str     0x00000000000021e0      0x2e5 /home/xix277/engr-ece/Winter_Sem_2022/CME332/asn_test/test_prob_6_bsp//libucosii_bsp.a(os_dbg.o)
                                        0x443 (size before relaxing)
 .debug_str     0x00000000000024c5      0x136 /home/xix277/engr-ece/Winter_Sem_2022/CME332/asn_test/test_prob_6_bsp//libucosii_bsp.a(os_flag.o)
                                        0x5e9 (size before relaxing)
 .debug_str     0x00000000000025fb       0xcf /home/xix277/engr-ece/Winter_Sem_2022/CME332/asn_test/test_prob_6_bsp//libucosii_bsp.a(os_mem.o)
                                        0x2f2 (size before relaxing)
 .debug_str     0x00000000000026ca       0xc0 /home/xix277/engr-ece/Winter_Sem_2022/CME332/asn_test/test_prob_6_bsp//libucosii_bsp.a(os_q.o)
                                        0x56c (size before relaxing)
 .debug_str     0x000000000000278a       0x77 /home/xix277/engr-ece/Winter_Sem_2022/CME332/asn_test/test_prob_6_bsp//libucosii_bsp.a(os_sem.o)
                                        0x4f5 (size before relaxing)
 .debug_str     0x0000000000002801      0x118 /home/xix277/engr-ece/Winter_Sem_2022/CME332/asn_test/test_prob_6_bsp//libucosii_bsp.a(os_task.o)
                                        0x5f8 (size before relaxing)
 .debug_str     0x0000000000002919       0x6d /home/xix277/engr-ece/Winter_Sem_2022/CME332/asn_test/test_prob_6_bsp//libucosii_bsp.a(os_time.o)
                                        0x498 (size before relaxing)
 .debug_str     0x0000000000002986      0x527 /home/xix277/engr-ece/Winter_Sem_2022/CME332/asn_test/test_prob_6_bsp//libucosii_bsp.a(alt_sys_init.o)
                                        0x822 (size before relaxing)
 .debug_str     0x0000000000002ead       0xb2 /home/xix277/engr-ece/Winter_Sem_2022/CME332/asn_test/test_prob_6_bsp//libucosii_bsp.a(altera_avalon_jtag_uart_fd.o)
                                        0x474 (size before relaxing)
 .debug_str     0x0000000000002f5f      0x105 /home/xix277/engr-ece/Winter_Sem_2022/CME332/asn_test/test_prob_6_bsp//libucosii_bsp.a(altera_avalon_jtag_uart_init.o)
                                        0x45c (size before relaxing)
 .debug_str     0x0000000000003064       0x4a /home/xix277/engr-ece/Winter_Sem_2022/CME332/asn_test/test_prob_6_bsp//libucosii_bsp.a(altera_avalon_jtag_uart_ioctl.o)
                                        0x363 (size before relaxing)
 .debug_str     0x00000000000030ae       0x63 /home/xix277/engr-ece/Winter_Sem_2022/CME332/asn_test/test_prob_6_bsp//libucosii_bsp.a(altera_avalon_jtag_uart_read.o)
                                        0x3e8 (size before relaxing)
 .debug_str     0x0000000000003111       0x4a /home/xix277/engr-ece/Winter_Sem_2022/CME332/asn_test/test_prob_6_bsp//libucosii_bsp.a(altera_avalon_jtag_uart_write.o)
                                        0x3e9 (size before relaxing)
 .debug_str     0x000000000000315b       0x6b /home/xix277/engr-ece/Winter_Sem_2022/CME332/asn_test/test_prob_6_bsp//libucosii_bsp.a(altera_avalon_timer_sc.o)
                                        0x228 (size before relaxing)
 .debug_str     0x00000000000031c6      0x1ea /home/xix277/engr-ece/Winter_Sem_2022/CME332/asn_test/test_prob_6_bsp//libucosii_bsp.a(altera_up_avalon_character_lcd.o)
                                        0x3f5 (size before relaxing)
 .debug_str     0x00000000000033b0      0x176 /home/xix277/engr-ece/Winter_Sem_2022/CME332/asn_test/test_prob_6_bsp//libucosii_bsp.a(altera_up_avalon_irda.o)
                                        0x386 (size before relaxing)
 .debug_str     0x0000000000003526      0x1c5 /home/xix277/engr-ece/Winter_Sem_2022/CME332/asn_test/test_prob_6_bsp//libucosii_bsp.a(altera_up_avalon_ps2.o)
                                        0x459 (size before relaxing)
 .debug_str     0x00000000000036eb      0x154 /home/xix277/engr-ece/Winter_Sem_2022/CME332/asn_test/test_prob_6_bsp//libucosii_bsp.a(altera_up_avalon_rs232.o)
                                        0x393 (size before relaxing)
 .debug_str     0x000000000000383f       0x65 /home/xix277/engr-ece/Winter_Sem_2022/CME332/asn_test/test_prob_6_bsp//libucosii_bsp.a(alt_alarm_start.o)
                                        0x298 (size before relaxing)
 .debug_str     0x00000000000038a4       0x34 /home/xix277/engr-ece/Winter_Sem_2022/CME332/asn_test/test_prob_6_bsp//libucosii_bsp.a(alt_dcache_flush_all.o)
                                        0x16f (size before relaxing)
 .debug_str     0x00000000000038d8       0x34 /home/xix277/engr-ece/Winter_Sem_2022/CME332/asn_test/test_prob_6_bsp//libucosii_bsp.a(alt_dev_llist_insert.o)
                                        0x1e6 (size before relaxing)
 .debug_str     0x000000000000390c       0x48 /home/xix277/engr-ece/Winter_Sem_2022/CME332/asn_test/test_prob_6_bsp//libucosii_bsp.a(alt_do_ctors.o)
                                         0xf3 (size before relaxing)
 .debug_str     0x0000000000003954       0x4c /home/xix277/engr-ece/Winter_Sem_2022/CME332/asn_test/test_prob_6_bsp//libucosii_bsp.a(alt_do_dtors.o)
                                         0xf2 (size before relaxing)
 .debug_str     0x00000000000039a0       0x24 /home/xix277/engr-ece/Winter_Sem_2022/CME332/asn_test/test_prob_6_bsp//libucosii_bsp.a(alt_find_dev.o)
                                        0x206 (size before relaxing)
 .debug_str     0x00000000000039c4       0x34 /home/xix277/engr-ece/Winter_Sem_2022/CME332/asn_test/test_prob_6_bsp//libucosii_bsp.a(alt_icache_flush_all.o)
                                        0x16f (size before relaxing)
 .debug_str     0x00000000000039f8       0x56 /home/xix277/engr-ece/Winter_Sem_2022/CME332/asn_test/test_prob_6_bsp//libucosii_bsp.a(alt_io_redirect.o)
                                        0x38f (size before relaxing)
 .debug_str     0x0000000000003a4e       0x7f /home/xix277/engr-ece/Winter_Sem_2022/CME332/asn_test/test_prob_6_bsp//libucosii_bsp.a(alt_irq_register.o)
                                        0x21d (size before relaxing)
 .debug_str     0x0000000000003acd       0x29 /home/xix277/engr-ece/Winter_Sem_2022/CME332/asn_test/test_prob_6_bsp//libucosii_bsp.a(alt_irq_vars.o)
                                        0x15d (size before relaxing)
 .debug_str     0x0000000000003af6       0x29 /home/xix277/engr-ece/Winter_Sem_2022/CME332/asn_test/test_prob_6_bsp//libucosii_bsp.a(alt_open.o)
                                        0x272 (size before relaxing)
 .debug_str     0x0000000000003b1f       0x4a /home/xix277/engr-ece/Winter_Sem_2022/CME332/asn_test/test_prob_6_bsp//libucosii_bsp.a(alt_tick.o)
                                        0x279 (size before relaxing)
 .debug_str     0x0000000000003b69       0x3b /home/xix277/engr-ece/Winter_Sem_2022/CME332/asn_test/test_prob_6_bsp//libucosii_bsp.a(altera_nios2_gen2_irq.o)
                                        0x176 (size before relaxing)
 .debug_str     0x0000000000003ba4       0x13 /home/xix277/engr-ece/Winter_Sem_2022/CME332/asn_test/test_prob_6_bsp//libucosii_bsp.a(os_cpu_a.o)
                                         0x68 (size before relaxing)
 .debug_str     0x0000000000003bb7       0xd5 /home/xix277/engr-ece/Winter_Sem_2022/CME332/asn_test/test_prob_6_bsp//libucosii_bsp.a(os_cpu_c.o)
                                        0x846 (size before relaxing)
 .debug_str     0x0000000000003c8c       0x26 /home/xix277/engr-ece/Winter_Sem_2022/CME332/asn_test/test_prob_6_bsp//libucosii_bsp.a(alt_find_file.o)
                                        0x214 (size before relaxing)
 .debug_str     0x0000000000003cb2       0x30 /home/xix277/engr-ece/Winter_Sem_2022/CME332/asn_test/test_prob_6_bsp//libucosii_bsp.a(alt_get_fd.o)
                                        0x2b2 (size before relaxing)
 .debug_str     0x0000000000003ce2       0x2c /home/xix277/engr-ece/Winter_Sem_2022/CME332/asn_test/test_prob_6_bsp//libucosii_bsp.a(alt_icache_flush.o)
                                        0x175 (size before relaxing)
 .debug_str     0x0000000000003d0e       0x18 /home/xix277/engr-ece/Winter_Sem_2022/CME332/asn_test/test_prob_6_bsp//libucosii_bsp.a(alt_irq_entry.o)
                                         0x6d (size before relaxing)
 .debug_str     0x0000000000003d26       0x3a /home/xix277/engr-ece/Winter_Sem_2022/CME332/asn_test/test_prob_6_bsp//libucosii_bsp.a(alt_irq_handler.o)
                                        0x1be (size before relaxing)
 .debug_str     0x0000000000003d60       0x1e /home/xix277/engr-ece/Winter_Sem_2022/CME332/asn_test/test_prob_6_bsp//libucosii_bsp.a(alt_exception_entry.o)
                                         0x73 (size before relaxing)
 .debug_str     0x0000000000003d7e      0x48b /home/xix277/engr-ece/Winter_Sem_2022/CME332/asn_test/test_prob_6_bsp//libucosii_bsp.a(alt_instruction_exception_entry.o)
                                        0x5c3 (size before relaxing)
 .debug_str     0x0000000000004209       0x83 /opt/intelFPGA/20.1.1/nios2eds/bin/gnu/H-x86_64-pc-linux-gnu/bin/../lib/gcc/nios2-elf/10.1.1/../../../../../H-x86_64-pc-linux-gnu/nios2-elf/lib/mhw-mulx/libc.a(lib_a-atexit.o)
                                        0x215 (size before relaxing)
 .debug_str     0x000000000000428c       0x4e /opt/intelFPGA/20.1.1/nios2eds/bin/gnu/H-x86_64-pc-linux-gnu/bin/../lib/gcc/nios2-elf/10.1.1/../../../../../H-x86_64-pc-linux-gnu/nios2-elf/lib/mhw-mulx/libc.a(lib_a-exit.o)
                                        0x5bc (size before relaxing)
 .debug_str     0x00000000000042da       0x46 /opt/intelFPGA/20.1.1/nios2eds/bin/gnu/H-x86_64-pc-linux-gnu/bin/../lib/gcc/nios2-elf/10.1.1/../../../../../H-x86_64-pc-linux-gnu/nios2-elf/lib/mhw-mulx/libc.a(lib_a-memcmp.o)
                                        0x1d8 (size before relaxing)
 .debug_str     0x0000000000004320       0x41 /opt/intelFPGA/20.1.1/nios2eds/bin/gnu/H-x86_64-pc-linux-gnu/bin/../lib/gcc/nios2-elf/10.1.1/../../../../../H-x86_64-pc-linux-gnu/nios2-elf/lib/mhw-mulx/libc.a(lib_a-__atexit.o)
                                        0x5ed (size before relaxing)
 .debug_str     0x0000000000004361       0x6d /opt/intelFPGA/20.1.1/nios2eds/bin/gnu/H-x86_64-pc-linux-gnu/bin/../lib/gcc/nios2-elf/10.1.1/../../../../../H-x86_64-pc-linux-gnu/nios2-elf/lib/mhw-mulx/libc.a(lib_a-__call_atexit.o)
                                        0x5e6 (size before relaxing)
 .debug_str     0x00000000000043ce       0x2a /home/xix277/engr-ece/Winter_Sem_2022/CME332/asn_test/test_prob_6_bsp//libucosii_bsp.a(alt_exit.o)
                                        0x18a (size before relaxing)

.debug_loc      0x0000000000000000     0x5f1e
 *(.debug_loc)
 .debug_loc     0x0000000000000000      0x143 /opt/intelFPGA/20.1.1/nios2eds/bin/gnu/H-x86_64-pc-linux-gnu/bin/../lib/gcc/nios2-elf/10.1.1/../../../../../H-x86_64-pc-linux-gnu/nios2-elf/lib/mhw-mulx/libc.a(lib_a-puts.o)
 .debug_loc     0x0000000000000143       0x73 /opt/intelFPGA/20.1.1/nios2eds/bin/gnu/H-x86_64-pc-linux-gnu/bin/../lib/gcc/nios2-elf/10.1.1/../../../../../H-x86_64-pc-linux-gnu/nios2-elf/lib/mhw-mulx/libc.a(lib_a-strlen.o)
 .debug_loc     0x00000000000001b6      0x32c /opt/intelFPGA/20.1.1/nios2eds/bin/gnu/H-x86_64-pc-linux-gnu/bin/../lib/gcc/nios2-elf/10.1.1/../../../../../H-x86_64-pc-linux-gnu/nios2-elf/lib/mhw-mulx/libc.a(lib_a-findfp.o)
 .debug_loc     0x00000000000004e2      0x75a /opt/intelFPGA/20.1.1/nios2eds/bin/gnu/H-x86_64-pc-linux-gnu/bin/../lib/gcc/nios2-elf/10.1.1/../../../../../H-x86_64-pc-linux-gnu/nios2-elf/lib/mhw-mulx/libc.a(lib_a-fvwrite.o)
 .debug_loc     0x0000000000000c3c      0x1eb /opt/intelFPGA/20.1.1/nios2eds/bin/gnu/H-x86_64-pc-linux-gnu/bin/../lib/gcc/nios2-elf/10.1.1/../../../../../H-x86_64-pc-linux-gnu/nios2-elf/lib/mhw-mulx/libc.a(lib_a-fwalk.o)
 .debug_loc     0x0000000000000e27      0xd34 /opt/intelFPGA/20.1.1/nios2eds/bin/gnu/H-x86_64-pc-linux-gnu/bin/../lib/gcc/nios2-elf/10.1.1/../../../../../H-x86_64-pc-linux-gnu/nios2-elf/lib/mhw-mulx/libc.a(lib_a-mallocr.o)
 .debug_loc     0x0000000000001b5b      0x240 /opt/intelFPGA/20.1.1/nios2eds/bin/gnu/H-x86_64-pc-linux-gnu/bin/../lib/gcc/nios2-elf/10.1.1/../../../../../H-x86_64-pc-linux-gnu/nios2-elf/lib/mhw-mulx/libc.a(lib_a-memchr.o)
 .debug_loc     0x0000000000001d9b      0x347 /opt/intelFPGA/20.1.1/nios2eds/bin/gnu/H-x86_64-pc-linux-gnu/bin/../lib/gcc/nios2-elf/10.1.1/../../../../../H-x86_64-pc-linux-gnu/nios2-elf/lib/mhw-mulx/libc.a(lib_a-memcpy.o)
 .debug_loc     0x00000000000020e2      0x3ff /opt/intelFPGA/20.1.1/nios2eds/bin/gnu/H-x86_64-pc-linux-gnu/bin/../lib/gcc/nios2-elf/10.1.1/../../../../../H-x86_64-pc-linux-gnu/nios2-elf/lib/mhw-mulx/libc.a(lib_a-memmove.o)
 .debug_loc     0x00000000000024e1      0x1b5 /opt/intelFPGA/20.1.1/nios2eds/bin/gnu/H-x86_64-pc-linux-gnu/bin/../lib/gcc/nios2-elf/10.1.1/../../../../../H-x86_64-pc-linux-gnu/nios2-elf/lib/mhw-mulx/libc.a(lib_a-memset.o)
 .debug_loc     0x0000000000002696     0x11ff /opt/intelFPGA/20.1.1/nios2eds/bin/gnu/H-x86_64-pc-linux-gnu/bin/../lib/gcc/nios2-elf/10.1.1/../../../../../H-x86_64-pc-linux-gnu/nios2-elf/lib/mhw-mulx/libc.a(lib_a-reallocr.o)
 .debug_loc     0x0000000000003895       0x89 /opt/intelFPGA/20.1.1/nios2eds/bin/gnu/H-x86_64-pc-linux-gnu/bin/../lib/gcc/nios2-elf/10.1.1/../../../../../H-x86_64-pc-linux-gnu/nios2-elf/lib/mhw-mulx/libc.a(lib_a-sbrkr.o)
 .debug_loc     0x000000000000391e      0x43c /opt/intelFPGA/20.1.1/nios2eds/bin/gnu/H-x86_64-pc-linux-gnu/bin/../lib/gcc/nios2-elf/10.1.1/../../../../../H-x86_64-pc-linux-gnu/nios2-elf/lib/mhw-mulx/libc.a(lib_a-stdio.o)
 .debug_loc     0x0000000000003d5a       0xed /opt/intelFPGA/20.1.1/nios2eds/bin/gnu/H-x86_64-pc-linux-gnu/bin/../lib/gcc/nios2-elf/10.1.1/../../../../../H-x86_64-pc-linux-gnu/nios2-elf/lib/mhw-mulx/libc.a(lib_a-writer.o)
 .debug_loc     0x0000000000003e47       0xd4 /opt/intelFPGA/20.1.1/nios2eds/bin/gnu/H-x86_64-pc-linux-gnu/bin/../lib/gcc/nios2-elf/10.1.1/../../../../../H-x86_64-pc-linux-gnu/nios2-elf/lib/mhw-mulx/libc.a(lib_a-wsetup.o)
 .debug_loc     0x0000000000003f1b       0x89 /opt/intelFPGA/20.1.1/nios2eds/bin/gnu/H-x86_64-pc-linux-gnu/bin/../lib/gcc/nios2-elf/10.1.1/../../../../../H-x86_64-pc-linux-gnu/nios2-elf/lib/mhw-mulx/libc.a(closer.o)
 .debug_loc     0x0000000000003fa4      0x2fc /opt/intelFPGA/20.1.1/nios2eds/bin/gnu/H-x86_64-pc-linux-gnu/bin/../lib/gcc/nios2-elf/10.1.1/../../../../../H-x86_64-pc-linux-gnu/nios2-elf/lib/mhw-mulx/libc.a(lib_a-fclose.o)
 .debug_loc     0x00000000000042a0      0x4c6 /opt/intelFPGA/20.1.1/nios2eds/bin/gnu/H-x86_64-pc-linux-gnu/bin/../lib/gcc/nios2-elf/10.1.1/../../../../../H-x86_64-pc-linux-gnu/nios2-elf/lib/mhw-mulx/libc.a(lib_a-fflush.o)
 .debug_loc     0x0000000000004766      0x614 /opt/intelFPGA/20.1.1/nios2eds/bin/gnu/H-x86_64-pc-linux-gnu/bin/../lib/gcc/nios2-elf/10.1.1/../../../../../H-x86_64-pc-linux-gnu/nios2-elf/lib/mhw-mulx/libc.a(lib_a-freer.o)
 .debug_loc     0x0000000000004d7a       0xed /opt/intelFPGA/20.1.1/nios2eds/bin/gnu/H-x86_64-pc-linux-gnu/bin/../lib/gcc/nios2-elf/10.1.1/../../../../../H-x86_64-pc-linux-gnu/nios2-elf/lib/mhw-mulx/libc.a(lib_a-lseekr.o)
 .debug_loc     0x0000000000004e67      0x449 /opt/intelFPGA/20.1.1/nios2eds/bin/gnu/H-x86_64-pc-linux-gnu/bin/../lib/gcc/nios2-elf/10.1.1/../../../../../H-x86_64-pc-linux-gnu/nios2-elf/lib/mhw-mulx/libc.a(lib_a-makebuf.o)
 .debug_loc     0x00000000000052b0       0xed /opt/intelFPGA/20.1.1/nios2eds/bin/gnu/H-x86_64-pc-linux-gnu/bin/../lib/gcc/nios2-elf/10.1.1/../../../../../H-x86_64-pc-linux-gnu/nios2-elf/lib/mhw-mulx/libc.a(lib_a-readr.o)
 .debug_loc     0x000000000000539d       0xbb /opt/intelFPGA/20.1.1/nios2eds/bin/gnu/H-x86_64-pc-linux-gnu/bin/../lib/gcc/nios2-elf/10.1.1/../../../../../H-x86_64-pc-linux-gnu/nios2-elf/lib/mhw-mulx/libc.a(lib_a-fstatr.o)
 .debug_loc     0x0000000000005458       0x89 /opt/intelFPGA/20.1.1/nios2eds/bin/gnu/H-x86_64-pc-linux-gnu/bin/../lib/gcc/nios2-elf/10.1.1/../../../../../H-x86_64-pc-linux-gnu/nios2-elf/lib/mhw-mulx/libc.a(lib_a-isattyr.o)
 .debug_loc     0x00000000000054e1      0x5d0 /opt/intelFPGA/20.1.1/nios2eds/bin/gnu/H-x86_64-pc-linux-gnu/bin/../lib/gcc/nios2-elf/10.1.1/mhw-mulx/libgcc.a(lib2-divmod.o)
 .debug_loc     0x0000000000005ab1       0x32 /opt/intelFPGA/20.1.1/nios2eds/bin/gnu/H-x86_64-pc-linux-gnu/bin/../lib/gcc/nios2-elf/10.1.1/../../../../../H-x86_64-pc-linux-gnu/nios2-elf/lib/mhw-mulx/libc.a(lib_a-atexit.o)
 .debug_loc     0x0000000000005ae3       0x22 /opt/intelFPGA/20.1.1/nios2eds/bin/gnu/H-x86_64-pc-linux-gnu/bin/../lib/gcc/nios2-elf/10.1.1/../../../../../H-x86_64-pc-linux-gnu/nios2-elf/lib/mhw-mulx/libc.a(lib_a-exit.o)
 .debug_loc     0x0000000000005b05      0x158 /opt/intelFPGA/20.1.1/nios2eds/bin/gnu/H-x86_64-pc-linux-gnu/bin/../lib/gcc/nios2-elf/10.1.1/../../../../../H-x86_64-pc-linux-gnu/nios2-elf/lib/mhw-mulx/libc.a(lib_a-memcmp.o)
 .debug_loc     0x0000000000005c5d       0xf7 /opt/intelFPGA/20.1.1/nios2eds/bin/gnu/H-x86_64-pc-linux-gnu/bin/../lib/gcc/nios2-elf/10.1.1/../../../../../H-x86_64-pc-linux-gnu/nios2-elf/lib/mhw-mulx/libc.a(lib_a-__atexit.o)
 .debug_loc     0x0000000000005d54      0x1ca /opt/intelFPGA/20.1.1/nios2eds/bin/gnu/H-x86_64-pc-linux-gnu/bin/../lib/gcc/nios2-elf/10.1.1/../../../../../H-x86_64-pc-linux-gnu/nios2-elf/lib/mhw-mulx/libc.a(lib_a-__call_atexit.o)

.debug_macinfo
 *(.debug_macinfo)

.debug_weaknames
 *(.debug_weaknames)

.debug_funcnames
 *(.debug_funcnames)

.debug_typenames
 *(.debug_typenames)

.debug_varnames
 *(.debug_varnames)

.debug_alt_sim_info
                0x0000000000000000       0x20
 *(.debug_alt_sim_info)
 .debug_alt_sim_info
                0x0000000000000000       0x20 /home/xix277/engr-ece/Winter_Sem_2022/CME332/asn_test/test_prob_6_bsp//obj/HAL/src/crt0.o
                0x0000000004000000                __alt_data_end = 0x4000000
                0x0000000004000000                PROVIDE (__alt_stack_pointer = __alt_data_end)
                [!provide]                        PROVIDE (__alt_stack_limit = __alt_stack_base)
                0x000000000001a728                PROVIDE (__alt_heap_start = end)
                0x0000000004000000                PROVIDE (__alt_heap_limit = 0x4000000)
OUTPUT(test_prob_6.elf elf32-littlenios2)
LOAD linker stubs

.debug_ranges   0x0000000000000000      0x8d8
 .debug_ranges  0x0000000000000000       0x20 /home/xix277/engr-ece/Winter_Sem_2022/CME332/asn_test/test_prob_6_bsp//obj/HAL/src/crt0.o
 .debug_ranges  0x0000000000000020       0x30 /opt/intelFPGA/20.1.1/nios2eds/bin/gnu/H-x86_64-pc-linux-gnu/bin/../lib/gcc/nios2-elf/10.1.1/../../../../../H-x86_64-pc-linux-gnu/nios2-elf/lib/mhw-mulx/libc.a(lib_a-puts.o)
 .debug_ranges  0x0000000000000050       0x10 /opt/intelFPGA/20.1.1/nios2eds/bin/gnu/H-x86_64-pc-linux-gnu/bin/../lib/gcc/nios2-elf/10.1.1/../../../../../H-x86_64-pc-linux-gnu/nios2-elf/lib/mhw-mulx/libc.a(lib_a-strlen.o)
 .debug_ranges  0x0000000000000060      0x148 /opt/intelFPGA/20.1.1/nios2eds/bin/gnu/H-x86_64-pc-linux-gnu/bin/../lib/gcc/nios2-elf/10.1.1/../../../../../H-x86_64-pc-linux-gnu/nios2-elf/lib/mhw-mulx/libc.a(lib_a-findfp.o)
 .debug_ranges  0x00000000000001a8       0x38 /opt/intelFPGA/20.1.1/nios2eds/bin/gnu/H-x86_64-pc-linux-gnu/bin/../lib/gcc/nios2-elf/10.1.1/../../../../../H-x86_64-pc-linux-gnu/nios2-elf/lib/mhw-mulx/libc.a(lib_a-fvwrite.o)
 .debug_ranges  0x00000000000001e0       0x18 /opt/intelFPGA/20.1.1/nios2eds/bin/gnu/H-x86_64-pc-linux-gnu/bin/../lib/gcc/nios2-elf/10.1.1/../../../../../H-x86_64-pc-linux-gnu/nios2-elf/lib/mhw-mulx/libc.a(lib_a-fwalk.o)
 .debug_ranges  0x00000000000001f8       0x60 /opt/intelFPGA/20.1.1/nios2eds/bin/gnu/H-x86_64-pc-linux-gnu/bin/../lib/gcc/nios2-elf/10.1.1/../../../../../H-x86_64-pc-linux-gnu/nios2-elf/lib/mhw-mulx/libc.a(lib_a-mallocr.o)
 .debug_ranges  0x0000000000000258       0x10 /opt/intelFPGA/20.1.1/nios2eds/bin/gnu/H-x86_64-pc-linux-gnu/bin/../lib/gcc/nios2-elf/10.1.1/../../../../../H-x86_64-pc-linux-gnu/nios2-elf/lib/mhw-mulx/libc.a(lib_a-memchr.o)
 .debug_ranges  0x0000000000000268       0x10 /opt/intelFPGA/20.1.1/nios2eds/bin/gnu/H-x86_64-pc-linux-gnu/bin/../lib/gcc/nios2-elf/10.1.1/../../../../../H-x86_64-pc-linux-gnu/nios2-elf/lib/mhw-mulx/libc.a(lib_a-memcpy.o)
 .debug_ranges  0x0000000000000278       0x10 /opt/intelFPGA/20.1.1/nios2eds/bin/gnu/H-x86_64-pc-linux-gnu/bin/../lib/gcc/nios2-elf/10.1.1/../../../../../H-x86_64-pc-linux-gnu/nios2-elf/lib/mhw-mulx/libc.a(lib_a-memmove.o)
 .debug_ranges  0x0000000000000288       0x10 /opt/intelFPGA/20.1.1/nios2eds/bin/gnu/H-x86_64-pc-linux-gnu/bin/../lib/gcc/nios2-elf/10.1.1/../../../../../H-x86_64-pc-linux-gnu/nios2-elf/lib/mhw-mulx/libc.a(lib_a-memset.o)
 .debug_ranges  0x0000000000000298      0x160 /opt/intelFPGA/20.1.1/nios2eds/bin/gnu/H-x86_64-pc-linux-gnu/bin/../lib/gcc/nios2-elf/10.1.1/../../../../../H-x86_64-pc-linux-gnu/nios2-elf/lib/mhw-mulx/libc.a(lib_a-reallocr.o)
 .debug_ranges  0x00000000000003f8       0x10 /opt/intelFPGA/20.1.1/nios2eds/bin/gnu/H-x86_64-pc-linux-gnu/bin/../lib/gcc/nios2-elf/10.1.1/../../../../../H-x86_64-pc-linux-gnu/nios2-elf/lib/mhw-mulx/libc.a(lib_a-sbrkr.o)
 .debug_ranges  0x0000000000000408       0x30 /opt/intelFPGA/20.1.1/nios2eds/bin/gnu/H-x86_64-pc-linux-gnu/bin/../lib/gcc/nios2-elf/10.1.1/../../../../../H-x86_64-pc-linux-gnu/nios2-elf/lib/mhw-mulx/libc.a(lib_a-stdio.o)
 .debug_ranges  0x0000000000000438       0x10 /opt/intelFPGA/20.1.1/nios2eds/bin/gnu/H-x86_64-pc-linux-gnu/bin/../lib/gcc/nios2-elf/10.1.1/../../../../../H-x86_64-pc-linux-gnu/nios2-elf/lib/mhw-mulx/libc.a(lib_a-writer.o)
 .debug_ranges  0x0000000000000448       0x30 /opt/intelFPGA/20.1.1/nios2eds/bin/gnu/H-x86_64-pc-linux-gnu/bin/../lib/gcc/nios2-elf/10.1.1/../../../../../H-x86_64-pc-linux-gnu/nios2-elf/lib/mhw-mulx/libc.a(lib_a-wsetup.o)
 .debug_ranges  0x0000000000000478       0x10 /opt/intelFPGA/20.1.1/nios2eds/bin/gnu/H-x86_64-pc-linux-gnu/bin/../lib/gcc/nios2-elf/10.1.1/../../../../../H-x86_64-pc-linux-gnu/nios2-elf/lib/mhw-mulx/libc.a(closer.o)
 .debug_ranges  0x0000000000000488       0x90 /opt/intelFPGA/20.1.1/nios2eds/bin/gnu/H-x86_64-pc-linux-gnu/bin/../lib/gcc/nios2-elf/10.1.1/../../../../../H-x86_64-pc-linux-gnu/nios2-elf/lib/mhw-mulx/libc.a(lib_a-fclose.o)
 .debug_ranges  0x0000000000000518       0xc8 /opt/intelFPGA/20.1.1/nios2eds/bin/gnu/H-x86_64-pc-linux-gnu/bin/../lib/gcc/nios2-elf/10.1.1/../../../../../H-x86_64-pc-linux-gnu/nios2-elf/lib/mhw-mulx/libc.a(lib_a-fflush.o)
 .debug_ranges  0x00000000000005e0       0x18 /opt/intelFPGA/20.1.1/nios2eds/bin/gnu/H-x86_64-pc-linux-gnu/bin/../lib/gcc/nios2-elf/10.1.1/../../../../../H-x86_64-pc-linux-gnu/nios2-elf/lib/mhw-mulx/libc.a(lib_a-freer.o)
 .debug_ranges  0x00000000000005f8       0x10 /opt/intelFPGA/20.1.1/nios2eds/bin/gnu/H-x86_64-pc-linux-gnu/bin/../lib/gcc/nios2-elf/10.1.1/../../../../../H-x86_64-pc-linux-gnu/nios2-elf/lib/mhw-mulx/libc.a(lib_a-lseekr.o)
 .debug_ranges  0x0000000000000608       0xc0 /opt/intelFPGA/20.1.1/nios2eds/bin/gnu/H-x86_64-pc-linux-gnu/bin/../lib/gcc/nios2-elf/10.1.1/../../../../../H-x86_64-pc-linux-gnu/nios2-elf/lib/mhw-mulx/libc.a(lib_a-makebuf.o)
 .debug_ranges  0x00000000000006c8       0x10 /opt/intelFPGA/20.1.1/nios2eds/bin/gnu/H-x86_64-pc-linux-gnu/bin/../lib/gcc/nios2-elf/10.1.1/../../../../../H-x86_64-pc-linux-gnu/nios2-elf/lib/mhw-mulx/libc.a(lib_a-readr.o)
 .debug_ranges  0x00000000000006d8       0x10 /opt/intelFPGA/20.1.1/nios2eds/bin/gnu/H-x86_64-pc-linux-gnu/bin/../lib/gcc/nios2-elf/10.1.1/../../../../../H-x86_64-pc-linux-gnu/nios2-elf/lib/mhw-mulx/libc.a(lib_a-fstatr.o)
 .debug_ranges  0x00000000000006e8       0x10 /opt/intelFPGA/20.1.1/nios2eds/bin/gnu/H-x86_64-pc-linux-gnu/bin/../lib/gcc/nios2-elf/10.1.1/../../../../../H-x86_64-pc-linux-gnu/nios2-elf/lib/mhw-mulx/libc.a(lib_a-isattyr.o)
 .debug_ranges  0x00000000000006f8       0x70 /opt/intelFPGA/20.1.1/nios2eds/bin/gnu/H-x86_64-pc-linux-gnu/bin/../lib/gcc/nios2-elf/10.1.1/mhw-mulx/libgcc.a(lib2-divmod.o)
 .debug_ranges  0x0000000000000768       0x30 /home/xix277/engr-ece/Winter_Sem_2022/CME332/asn_test/test_prob_6_bsp//libucosii_bsp.a(altera_avalon_jtag_uart_init.o)
 .debug_ranges  0x0000000000000798       0x30 /home/xix277/engr-ece/Winter_Sem_2022/CME332/asn_test/test_prob_6_bsp//libucosii_bsp.a(altera_avalon_jtag_uart_read.o)
 .debug_ranges  0x00000000000007c8       0x18 /home/xix277/engr-ece/Winter_Sem_2022/CME332/asn_test/test_prob_6_bsp//libucosii_bsp.a(altera_avalon_jtag_uart_write.o)
 .debug_ranges  0x00000000000007e0       0x28 /home/xix277/engr-ece/Winter_Sem_2022/CME332/asn_test/test_prob_6_bsp//libucosii_bsp.a(alt_irq_entry.o)
 .debug_ranges  0x0000000000000808       0x10 /home/xix277/engr-ece/Winter_Sem_2022/CME332/asn_test/test_prob_6_bsp//libucosii_bsp.a(alt_irq_handler.o)
 .debug_ranges  0x0000000000000818       0x30 /home/xix277/engr-ece/Winter_Sem_2022/CME332/asn_test/test_prob_6_bsp//libucosii_bsp.a(alt_exception_entry.o)
 .debug_ranges  0x0000000000000848       0x18 /home/xix277/engr-ece/Winter_Sem_2022/CME332/asn_test/test_prob_6_bsp//libucosii_bsp.a(alt_instruction_exception_entry.o)
 .debug_ranges  0x0000000000000860       0x10 /opt/intelFPGA/20.1.1/nios2eds/bin/gnu/H-x86_64-pc-linux-gnu/bin/../lib/gcc/nios2-elf/10.1.1/../../../../../H-x86_64-pc-linux-gnu/nios2-elf/lib/mhw-mulx/libc.a(lib_a-atexit.o)
 .debug_ranges  0x0000000000000870       0x10 /opt/intelFPGA/20.1.1/nios2eds/bin/gnu/H-x86_64-pc-linux-gnu/bin/../lib/gcc/nios2-elf/10.1.1/../../../../../H-x86_64-pc-linux-gnu/nios2-elf/lib/mhw-mulx/libc.a(lib_a-exit.o)
 .debug_ranges  0x0000000000000880       0x10 /opt/intelFPGA/20.1.1/nios2eds/bin/gnu/H-x86_64-pc-linux-gnu/bin/../lib/gcc/nios2-elf/10.1.1/../../../../../H-x86_64-pc-linux-gnu/nios2-elf/lib/mhw-mulx/libc.a(lib_a-memcmp.o)
 .debug_ranges  0x0000000000000890       0x10 /opt/intelFPGA/20.1.1/nios2eds/bin/gnu/H-x86_64-pc-linux-gnu/bin/../lib/gcc/nios2-elf/10.1.1/../../../../../H-x86_64-pc-linux-gnu/nios2-elf/lib/mhw-mulx/libc.a(lib_a-__atexit.o)
 .debug_ranges  0x00000000000008a0       0x38 /opt/intelFPGA/20.1.1/nios2eds/bin/gnu/H-x86_64-pc-linux-gnu/bin/../lib/gcc/nios2-elf/10.1.1/../../../../../H-x86_64-pc-linux-gnu/nios2-elf/lib/mhw-mulx/libc.a(lib_a-__call_atexit.o)
